SF:/home/sysuser/ws001/gofastskill/fastskill/src/bin/../cli/auth_config.rs
FN:247,_RNCNCNvNtNtCsfVElPQFRzD4_9fastskill3cli11auth_config22get_token_with_refresh00B9_
FN:324,_RNCNCNvNtNtCsfVElPQFRzD4_9fastskill3cli11auth_config22set_token_for_registry00B9_
FN:294,_RNCNCNvNtNtCsfVElPQFRzD4_9fastskill3cli11auth_config26refresh_token_for_registry00B9_
FN:311,_RNCNCNvNtNtCsfVElPQFRzD4_9fastskill3cli11auth_config26refresh_token_for_registry0s0_0B9_
FN:312,_RNCNCNvNtNtCsfVElPQFRzD4_9fastskill3cli11auth_config26refresh_token_for_registry0s1_0B9_
FN:313,_RNCNCNvNtNtCsfVElPQFRzD4_9fastskill3cli11auth_config26refresh_token_for_registry0s2_0B9_
FN:307,_RNCNCNvNtNtCsfVElPQFRzD4_9fastskill3cli11auth_config26refresh_token_for_registry0s_0B9_
FN:44,_RNCNvNtNtCsfVElPQFRzD4_9fastskill3cli11auth_config15get_config_path0B7_
FN:69,_RNCNvNtNtCsfVElPQFRzD4_9fastskill3cli11auth_config16load_auth_config0B7_
FN:77,_RNCNvNtNtCsfVElPQFRzD4_9fastskill3cli11auth_config16load_auth_configs_0B7_
FN:93,_RNCNvNtNtCsfVElPQFRzD4_9fastskill3cli11auth_config16save_auth_config0B7_
FN:101,_RNCNvNtNtCsfVElPQFRzD4_9fastskill3cli11auth_config16save_auth_configs0_0B7_
FN:104,_RNCNvNtNtCsfVElPQFRzD4_9fastskill3cli11auth_config16save_auth_configs1_0B7_
FN:117,_RNCNvNtNtCsfVElPQFRzD4_9fastskill3cli11auth_config16save_auth_configs2_0B7_
FN:121,_RNCNvNtNtCsfVElPQFRzD4_9fastskill3cli11auth_config16save_auth_configs3_0B7_
FN:97,_RNCNvNtNtCsfVElPQFRzD4_9fastskill3cli11auth_config16save_auth_configs_0B7_
FN:169,_RNCNvNtNtCsfVElPQFRzD4_9fastskill3cli11auth_config20get_token_expiration0B7_
FN:207,_RNCNvNtNtCsfVElPQFRzD4_9fastskill3cli11auth_config22get_token_with_refresh0B7_
FN:319,_RNCNvNtNtCsfVElPQFRzD4_9fastskill3cli11auth_config22set_token_for_registry0B7_
FN:281,_RNCNvNtNtCsfVElPQFRzD4_9fastskill3cli11auth_config26refresh_token_for_registry0B7_
FN:154,_RNCNvNtNtCsfVElPQFRzD4_9fastskill3cli11auth_config33is_token_expired_or_expiring_soon0B7_
FN:182,_RNvNtNtCsfVElPQFRzD4_9fastskill3cli11auth_config14get_token_role
FN:189,_RNvNtNtCsfVElPQFRzD4_9fastskill3cli11auth_config22get_token_for_registry
FN:42,_RNvNtNtCsfVElPQFRzD4_9fastskill3cli11auth_config15get_config_path
FN:60,_RNvNtNtCsfVElPQFRzD4_9fastskill3cli11auth_config16load_auth_config
FN:89,_RNvNtNtCsfVElPQFRzD4_9fastskill3cli11auth_config16save_auth_config
FN:176,_RNvNtNtCsfVElPQFRzD4_9fastskill3cli11auth_config18get_token_username
FN:129,_RNvNtNtCsfVElPQFRzD4_9fastskill3cli11auth_config19decode_token_unsafe
FN:168,_RNvNtNtCsfVElPQFRzD4_9fastskill3cli11auth_config20get_token_expiration
FN:207,_RNvNtNtCsfVElPQFRzD4_9fastskill3cli11auth_config22get_token_with_refresh
FN:50,_RNvNtNtCsfVElPQFRzD4_9fastskill3cli11auth_config22normalize_registry_url
FN:319,_RNvNtNtCsfVElPQFRzD4_9fastskill3cli11auth_config22set_token_for_registry
FN:341,_RNvNtNtCsfVElPQFRzD4_9fastskill3cli11auth_config25remove_token_for_registry
FN:352,_RNvNtNtCsfVElPQFRzD4_9fastskill3cli11auth_config26get_auth_info_for_registry
FN:281,_RNvNtNtCsfVElPQFRzD4_9fastskill3cli11auth_config26refresh_token_for_registry
FN:148,_RNvNtNtCsfVElPQFRzD4_9fastskill3cli11auth_config33is_token_expired_or_expiring_soon
FN:182,_RNvNtNtCs4etJKk8xmvn_9fastskill3cli11auth_config14get_token_role
FN:189,_RNvNtNtCs4etJKk8xmvn_9fastskill3cli11auth_config22get_token_for_registry
FN:42,_RNvNtNtCs4etJKk8xmvn_9fastskill3cli11auth_config15get_config_path
FN:60,_RNvNtNtCs4etJKk8xmvn_9fastskill3cli11auth_config16load_auth_config
FN:89,_RNvNtNtCs4etJKk8xmvn_9fastskill3cli11auth_config16save_auth_config
FN:176,_RNvNtNtCs4etJKk8xmvn_9fastskill3cli11auth_config18get_token_username
FN:129,_RNvNtNtCs4etJKk8xmvn_9fastskill3cli11auth_config19decode_token_unsafe
FN:168,_RNvNtNtCs4etJKk8xmvn_9fastskill3cli11auth_config20get_token_expiration
FN:207,_RNvNtNtCs4etJKk8xmvn_9fastskill3cli11auth_config22get_token_with_refresh
FN:50,_RNvNtNtCs4etJKk8xmvn_9fastskill3cli11auth_config22normalize_registry_url
FN:319,_RNvNtNtCs4etJKk8xmvn_9fastskill3cli11auth_config22set_token_for_registry
FN:341,_RNvNtNtCs4etJKk8xmvn_9fastskill3cli11auth_config25remove_token_for_registry
FN:352,_RNvNtNtCs4etJKk8xmvn_9fastskill3cli11auth_config26get_auth_info_for_registry
FN:281,_RNvNtNtCs4etJKk8xmvn_9fastskill3cli11auth_config26refresh_token_for_registry
FN:148,_RNvNtNtCs4etJKk8xmvn_9fastskill3cli11auth_config33is_token_expired_or_expiring_soon
FN:247,_RNCNCNvNtNtCs4etJKk8xmvn_9fastskill3cli11auth_config22get_token_with_refresh00B9_
FN:324,_RNCNCNvNtNtCs4etJKk8xmvn_9fastskill3cli11auth_config22set_token_for_registry00B9_
FN:294,_RNCNCNvNtNtCs4etJKk8xmvn_9fastskill3cli11auth_config26refresh_token_for_registry00B9_
FN:311,_RNCNCNvNtNtCs4etJKk8xmvn_9fastskill3cli11auth_config26refresh_token_for_registry0s0_0B9_
FN:312,_RNCNCNvNtNtCs4etJKk8xmvn_9fastskill3cli11auth_config26refresh_token_for_registry0s1_0B9_
FN:313,_RNCNCNvNtNtCs4etJKk8xmvn_9fastskill3cli11auth_config26refresh_token_for_registry0s2_0B9_
FN:307,_RNCNCNvNtNtCs4etJKk8xmvn_9fastskill3cli11auth_config26refresh_token_for_registry0s_0B9_
FN:44,_RNCNvNtNtCs4etJKk8xmvn_9fastskill3cli11auth_config15get_config_path0B7_
FN:69,_RNCNvNtNtCs4etJKk8xmvn_9fastskill3cli11auth_config16load_auth_config0B7_
FN:77,_RNCNvNtNtCs4etJKk8xmvn_9fastskill3cli11auth_config16load_auth_configs_0B7_
FN:93,_RNCNvNtNtCs4etJKk8xmvn_9fastskill3cli11auth_config16save_auth_config0B7_
FN:101,_RNCNvNtNtCs4etJKk8xmvn_9fastskill3cli11auth_config16save_auth_configs0_0B7_
FN:104,_RNCNvNtNtCs4etJKk8xmvn_9fastskill3cli11auth_config16save_auth_configs1_0B7_
FN:117,_RNCNvNtNtCs4etJKk8xmvn_9fastskill3cli11auth_config16save_auth_configs2_0B7_
FN:121,_RNCNvNtNtCs4etJKk8xmvn_9fastskill3cli11auth_config16save_auth_configs3_0B7_
FN:97,_RNCNvNtNtCs4etJKk8xmvn_9fastskill3cli11auth_config16save_auth_configs_0B7_
FN:169,_RNCNvNtNtCs4etJKk8xmvn_9fastskill3cli11auth_config20get_token_expiration0B7_
FN:207,_RNCNvNtNtCs4etJKk8xmvn_9fastskill3cli11auth_config22get_token_with_refresh0B7_
FN:319,_RNCNvNtNtCs4etJKk8xmvn_9fastskill3cli11auth_config22set_token_for_registry0B7_
FN:281,_RNCNvNtNtCs4etJKk8xmvn_9fastskill3cli11auth_config26refresh_token_for_registry0B7_
FN:154,_RNCNvNtNtCs4etJKk8xmvn_9fastskill3cli11auth_config33is_token_expired_or_expiring_soon0B7_
FNDA:0,_RNCNCNvNtNtCsfVElPQFRzD4_9fastskill3cli11auth_config22get_token_with_refresh00B9_
FNDA:0,_RNCNCNvNtNtCsfVElPQFRzD4_9fastskill3cli11auth_config22set_token_for_registry00B9_
FNDA:0,_RNCNCNvNtNtCsfVElPQFRzD4_9fastskill3cli11auth_config26refresh_token_for_registry00B9_
FNDA:0,_RNCNCNvNtNtCsfVElPQFRzD4_9fastskill3cli11auth_config26refresh_token_for_registry0s0_0B9_
FNDA:0,_RNCNCNvNtNtCsfVElPQFRzD4_9fastskill3cli11auth_config26refresh_token_for_registry0s1_0B9_
FNDA:0,_RNCNCNvNtNtCsfVElPQFRzD4_9fastskill3cli11auth_config26refresh_token_for_registry0s2_0B9_
FNDA:0,_RNCNCNvNtNtCsfVElPQFRzD4_9fastskill3cli11auth_config26refresh_token_for_registry0s_0B9_
FNDA:0,_RNCNvNtNtCsfVElPQFRzD4_9fastskill3cli11auth_config15get_config_path0B7_
FNDA:0,_RNCNvNtNtCsfVElPQFRzD4_9fastskill3cli11auth_config16load_auth_config0B7_
FNDA:0,_RNCNvNtNtCsfVElPQFRzD4_9fastskill3cli11auth_config16load_auth_configs_0B7_
FNDA:0,_RNCNvNtNtCsfVElPQFRzD4_9fastskill3cli11auth_config16save_auth_config0B7_
FNDA:0,_RNCNvNtNtCsfVElPQFRzD4_9fastskill3cli11auth_config16save_auth_configs0_0B7_
FNDA:0,_RNCNvNtNtCsfVElPQFRzD4_9fastskill3cli11auth_config16save_auth_configs1_0B7_
FNDA:0,_RNCNvNtNtCsfVElPQFRzD4_9fastskill3cli11auth_config16save_auth_configs2_0B7_
FNDA:0,_RNCNvNtNtCsfVElPQFRzD4_9fastskill3cli11auth_config16save_auth_configs3_0B7_
FNDA:0,_RNCNvNtNtCsfVElPQFRzD4_9fastskill3cli11auth_config16save_auth_configs_0B7_
FNDA:0,_RNCNvNtNtCsfVElPQFRzD4_9fastskill3cli11auth_config20get_token_expiration0B7_
FNDA:0,_RNCNvNtNtCsfVElPQFRzD4_9fastskill3cli11auth_config22get_token_with_refresh0B7_
FNDA:0,_RNCNvNtNtCsfVElPQFRzD4_9fastskill3cli11auth_config22set_token_for_registry0B7_
FNDA:0,_RNCNvNtNtCsfVElPQFRzD4_9fastskill3cli11auth_config26refresh_token_for_registry0B7_
FNDA:0,_RNCNvNtNtCsfVElPQFRzD4_9fastskill3cli11auth_config33is_token_expired_or_expiring_soon0B7_
FNDA:0,_RNvNtNtCsfVElPQFRzD4_9fastskill3cli11auth_config14get_token_role
FNDA:0,_RNvNtNtCsfVElPQFRzD4_9fastskill3cli11auth_config22get_token_for_registry
FNDA:0,_RNvNtNtCsfVElPQFRzD4_9fastskill3cli11auth_config15get_config_path
FNDA:0,_RNvNtNtCsfVElPQFRzD4_9fastskill3cli11auth_config16load_auth_config
FNDA:0,_RNvNtNtCsfVElPQFRzD4_9fastskill3cli11auth_config16save_auth_config
FNDA:0,_RNvNtNtCsfVElPQFRzD4_9fastskill3cli11auth_config18get_token_username
FNDA:0,_RNvNtNtCsfVElPQFRzD4_9fastskill3cli11auth_config19decode_token_unsafe
FNDA:0,_RNvNtNtCsfVElPQFRzD4_9fastskill3cli11auth_config20get_token_expiration
FNDA:0,_RNvNtNtCsfVElPQFRzD4_9fastskill3cli11auth_config22get_token_with_refresh
FNDA:0,_RNvNtNtCsfVElPQFRzD4_9fastskill3cli11auth_config22normalize_registry_url
FNDA:0,_RNvNtNtCsfVElPQFRzD4_9fastskill3cli11auth_config22set_token_for_registry
FNDA:0,_RNvNtNtCsfVElPQFRzD4_9fastskill3cli11auth_config25remove_token_for_registry
FNDA:0,_RNvNtNtCsfVElPQFRzD4_9fastskill3cli11auth_config26get_auth_info_for_registry
FNDA:0,_RNvNtNtCsfVElPQFRzD4_9fastskill3cli11auth_config26refresh_token_for_registry
FNDA:0,_RNvNtNtCsfVElPQFRzD4_9fastskill3cli11auth_config33is_token_expired_or_expiring_soon
FNDA:0,_RNvNtNtCs4etJKk8xmvn_9fastskill3cli11auth_config14get_token_role
FNDA:0,_RNvNtNtCs4etJKk8xmvn_9fastskill3cli11auth_config22get_token_for_registry
FNDA:0,_RNvNtNtCs4etJKk8xmvn_9fastskill3cli11auth_config15get_config_path
FNDA:0,_RNvNtNtCs4etJKk8xmvn_9fastskill3cli11auth_config16load_auth_config
FNDA:0,_RNvNtNtCs4etJKk8xmvn_9fastskill3cli11auth_config16save_auth_config
FNDA:0,_RNvNtNtCs4etJKk8xmvn_9fastskill3cli11auth_config18get_token_username
FNDA:0,_RNvNtNtCs4etJKk8xmvn_9fastskill3cli11auth_config19decode_token_unsafe
FNDA:0,_RNvNtNtCs4etJKk8xmvn_9fastskill3cli11auth_config20get_token_expiration
FNDA:0,_RNvNtNtCs4etJKk8xmvn_9fastskill3cli11auth_config22get_token_with_refresh
FNDA:0,_RNvNtNtCs4etJKk8xmvn_9fastskill3cli11auth_config22normalize_registry_url
FNDA:0,_RNvNtNtCs4etJKk8xmvn_9fastskill3cli11auth_config22set_token_for_registry
FNDA:0,_RNvNtNtCs4etJKk8xmvn_9fastskill3cli11auth_config25remove_token_for_registry
FNDA:0,_RNvNtNtCs4etJKk8xmvn_9fastskill3cli11auth_config26get_auth_info_for_registry
FNDA:0,_RNvNtNtCs4etJKk8xmvn_9fastskill3cli11auth_config26refresh_token_for_registry
FNDA:0,_RNvNtNtCs4etJKk8xmvn_9fastskill3cli11auth_config33is_token_expired_or_expiring_soon
FNDA:0,_RNCNCNvNtNtCs4etJKk8xmvn_9fastskill3cli11auth_config22get_token_with_refresh00B9_
FNDA:0,_RNCNCNvNtNtCs4etJKk8xmvn_9fastskill3cli11auth_config22set_token_for_registry00B9_
FNDA:0,_RNCNCNvNtNtCs4etJKk8xmvn_9fastskill3cli11auth_config26refresh_token_for_registry00B9_
FNDA:0,_RNCNCNvNtNtCs4etJKk8xmvn_9fastskill3cli11auth_config26refresh_token_for_registry0s0_0B9_
FNDA:0,_RNCNCNvNtNtCs4etJKk8xmvn_9fastskill3cli11auth_config26refresh_token_for_registry0s1_0B9_
FNDA:0,_RNCNCNvNtNtCs4etJKk8xmvn_9fastskill3cli11auth_config26refresh_token_for_registry0s2_0B9_
FNDA:0,_RNCNCNvNtNtCs4etJKk8xmvn_9fastskill3cli11auth_config26refresh_token_for_registry0s_0B9_
FNDA:0,_RNCNvNtNtCs4etJKk8xmvn_9fastskill3cli11auth_config15get_config_path0B7_
FNDA:0,_RNCNvNtNtCs4etJKk8xmvn_9fastskill3cli11auth_config16load_auth_config0B7_
FNDA:0,_RNCNvNtNtCs4etJKk8xmvn_9fastskill3cli11auth_config16load_auth_configs_0B7_
FNDA:0,_RNCNvNtNtCs4etJKk8xmvn_9fastskill3cli11auth_config16save_auth_config0B7_
FNDA:0,_RNCNvNtNtCs4etJKk8xmvn_9fastskill3cli11auth_config16save_auth_configs0_0B7_
FNDA:0,_RNCNvNtNtCs4etJKk8xmvn_9fastskill3cli11auth_config16save_auth_configs1_0B7_
FNDA:0,_RNCNvNtNtCs4etJKk8xmvn_9fastskill3cli11auth_config16save_auth_configs2_0B7_
FNDA:0,_RNCNvNtNtCs4etJKk8xmvn_9fastskill3cli11auth_config16save_auth_configs3_0B7_
FNDA:0,_RNCNvNtNtCs4etJKk8xmvn_9fastskill3cli11auth_config16save_auth_configs_0B7_
FNDA:0,_RNCNvNtNtCs4etJKk8xmvn_9fastskill3cli11auth_config20get_token_expiration0B7_
FNDA:0,_RNCNvNtNtCs4etJKk8xmvn_9fastskill3cli11auth_config22get_token_with_refresh0B7_
FNDA:0,_RNCNvNtNtCs4etJKk8xmvn_9fastskill3cli11auth_config22set_token_for_registry0B7_
FNDA:0,_RNCNvNtNtCs4etJKk8xmvn_9fastskill3cli11auth_config26refresh_token_for_registry0B7_
FNDA:0,_RNCNvNtNtCs4etJKk8xmvn_9fastskill3cli11auth_config33is_token_expired_or_expiring_soon0B7_
FNF:36
FNH:0
DA:42,0
DA:43,0
DA:44,0
DA:45,0
DA:46,0
DA:47,0
DA:50,0
DA:51,0
DA:53,0
DA:54,0
DA:55,0
DA:56,0
DA:57,0
DA:60,0
DA:61,0
DA:63,0
DA:64,0
DA:65,0
DA:66,0
DA:67,0
DA:69,0
DA:70,0
DA:71,0
DA:72,0
DA:73,0
DA:74,0
DA:75,0
DA:77,0
DA:78,0
DA:79,0
DA:80,0
DA:81,0
DA:82,0
DA:83,0
DA:85,0
DA:86,0
DA:89,0
DA:90,0
DA:91,0
DA:92,0
DA:93,0
DA:96,0
DA:97,0
DA:100,0
DA:101,0
DA:104,0
DA:105,0
DA:106,0
DA:107,0
DA:108,0
DA:109,0
DA:110,0
DA:116,0
DA:117,0
DA:118,0
DA:119,0
DA:120,0
DA:121,0
DA:124,0
DA:125,0
DA:129,0
DA:131,0
DA:132,0
DA:133,0
DA:134,0
DA:137,0
DA:140,0
DA:141,0
DA:144,0
DA:145,0
DA:148,0
DA:149,0
DA:150,0
DA:151,0
DA:152,0
DA:153,0
DA:154,0
DA:155,0
DA:158,0
DA:162,0
DA:165,0
DA:168,0
DA:169,0
DA:170,0
DA:171,0
DA:172,0
DA:173,0
DA:176,0
DA:177,0
DA:178,0
DA:182,0
DA:183,0
DA:184,0
DA:189,0
DA:191,0
DA:192,0
DA:193,0
DA:196,0
DA:197,0
DA:199,0
DA:200,0
DA:202,0
DA:204,0
DA:207,0
DA:209,0
DA:210,0
DA:211,0
DA:213,0
DA:214,0
DA:216,0
DA:218,0
DA:220,0
DA:221,0
DA:222,0
DA:223,0
DA:226,0
DA:230,0
DA:233,0
DA:235,0
DA:241,0
DA:243,0
DA:244,0
DA:246,0
DA:247,0
DA:249,0
DA:250,0
DA:251,0
DA:252,0
DA:253,0
DA:254,0
DA:255,0
DA:257,0
DA:258,0
DA:260,0
DA:261,0
DA:263,0
DA:264,0
DA:268,0
DA:273,0
DA:276,0
DA:278,0
DA:281,0
DA:282,0
DA:283,0
DA:285,0
DA:286,0
DA:289,0
DA:290,0
DA:291,0
DA:292,0
DA:293,0
DA:294,0
DA:296,0
DA:297,0
DA:299,0
DA:300,0
DA:302,0
DA:304,0
DA:305,0
DA:306,0
DA:307,0
DA:309,0
DA:310,0
DA:311,0
DA:312,0
DA:313,0
DA:315,0
DA:316,0
DA:319,0
DA:320,0
DA:321,0
DA:323,0
DA:324,0
DA:326,0
DA:327,0
DA:328,0
DA:329,0
DA:330,0
DA:331,0
DA:332,0
DA:334,0
DA:335,0
DA:337,0
DA:338,0
DA:341,0
DA:342,0
DA:343,0
DA:345,0
DA:346,0
DA:348,0
DA:349,0
DA:352,0
DA:353,0
DA:354,0
DA:356,0
DA:357,0
DA:358,0
DA:359,0
DA:360,0
DA:361,0
DA:362,0
DA:363,0
DA:365,0
DA:367,0
BRF:0
BRH:0
LF:228
LH:0
end_of_record
SF:/home/sysuser/ws001/gofastskill/fastskill/src/bin/../cli/cli.rs
FN:49,_RNCNvMNtNtCsfVElPQFRzD4_9fastskill3cli3cliNtB4_3Cli7execute0B8_
FN:49,_RNvMNtNtCsfVElPQFRzD4_9fastskill3cli3cliNtB2_3Cli7execute
FN:49,_RNCNvMNtNtCs4etJKk8xmvn_9fastskill3cli3cliNtB4_3Cli7execute0B8_
FN:49,_RNvMNtNtCs4etJKk8xmvn_9fastskill3cli3cliNtB2_3Cli7execute
FNDA:0,_RNCNvMNtNtCsfVElPQFRzD4_9fastskill3cli3cliNtB4_3Cli7execute0B8_
FNDA:0,_RNvMNtNtCsfVElPQFRzD4_9fastskill3cli3cliNtB2_3Cli7execute
FNDA:0,_RNCNvMNtNtCs4etJKk8xmvn_9fastskill3cli3cliNtB4_3Cli7execute0B8_
FNDA:0,_RNvMNtNtCs4etJKk8xmvn_9fastskill3cli3cliNtB2_3Cli7execute
FNF:2
FNH:0
DA:49,0
DA:51,0
DA:54,0
DA:57,0
DA:58,0
DA:59,0
DA:62,0
DA:63,0
DA:64,0
DA:66,0
DA:67,0
DA:68,0
DA:70,0
DA:71,0
DA:72,0
DA:74,0
DA:75,0
DA:76,0
DA:78,0
DA:79,0
DA:80,0
DA:82,0
DA:83,0
DA:84,0
DA:86,0
DA:87,0
DA:88,0
DA:90,0
DA:91,0
DA:92,0
DA:94,0
DA:95,0
DA:96,0
DA:100,0
DA:103,0
DA:105,0
DA:106,0
DA:107,0
DA:108,0
DA:109,0
DA:110,0
DA:113,0
DA:114,0
DA:115,0
DA:116,0
DA:119,0
DA:120,0
DA:121,0
DA:122,0
DA:123,0
DA:124,0
DA:125,0
DA:126,0
DA:127,0
DA:137,0
DA:140,0
DA:141,0
DA:142,0
DA:143,0
DA:144,0
DA:145,0
DA:146,0
DA:149,0
DA:150,0
DA:151,0
DA:155,0
BRF:0
BRH:0
LF:67
LH:0
end_of_record
SF:/home/sysuser/ws001/gofastskill/fastskill/src/bin/../cli/commands/add.rs
FN:940,_RNCNvNtNtNtNtCsfVElPQFRzD4_9fastskill3cli8commands3add5testss_32test_execute_add_with_force_flag0Bb_
FN:914,_RNCNvNtNtNtNtCsfVElPQFRzD4_9fastskill3cli8commands3add5testss_33test_execute_add_invalid_skill_id0Bb_
FN:889,_RNCNvNtNtNtNtCsfVElPQFRzD4_9fastskill3cli8commands3add5testss_35test_execute_add_nonexistent_source0Bb_
FN:80,_RNvNtNtNtCsfVElPQFRzD4_9fastskill3cli8commands3add11execute_add
FN:374,_RNvNtNtNtCsfVElPQFRzD4_9fastskill3cli8commands3add12add_from_git
FN:127,_RNvNtNtNtCsfVElPQFRzD4_9fastskill3cli8commands3add12add_from_zip
FN:269,_RNvNtNtNtCsfVElPQFRzD4_9fastskill3cli8commands3add15add_from_folder
FN:520,_RNvNtNtNtCsfVElPQFRzD4_9fastskill3cli8commands3add17add_from_registry
FN:856,_RNvNtNtNtCsfVElPQFRzD4_9fastskill3cli8commands3add18copy_dir_recursive
FN:21,_RNvNtNtNtCsfVElPQFRzD4_9fastskill3cli8commands3add20update_project_files
FN:822,_RNvNtNtNtCsfVElPQFRzD4_9fastskill3cli8commands3add22create_skill_from_path
FN:798,_RNvNtNtNtCsfVElPQFRzD4_9fastskill3cli8commands3add23find_skill_in_directory
FN:765,_RNvNtNtNtCsfVElPQFRzD4_9fastskill3cli8commands3add23read_skill_id_from_toml
FN:81,_RNCNCNvNtNtNtCsfVElPQFRzD4_9fastskill3cli8commands3add11execute_add00Bb_
FN:90,_RNCNCNvNtNtNtCsfVElPQFRzD4_9fastskill3cli8commands3add11execute_add0s_0Bb_
FN:395,_RNCNCNvNtNtNtCsfVElPQFRzD4_9fastskill3cli8commands3add12add_from_git00Bb_
FN:478,_RNCNCNvNtNtNtCsfVElPQFRzD4_9fastskill3cli8commands3add12add_from_git0s0_0Bb_
FN:479,_RNCNCNvNtNtNtCsfVElPQFRzD4_9fastskill3cli8commands3add12add_from_git0s1_0Bb_
FN:413,_RNCNCNvNtNtNtCsfVElPQFRzD4_9fastskill3cli8commands3add12add_from_git0s_0Bb_
FN:151,_RNCNCNvNtNtNtCsfVElPQFRzD4_9fastskill3cli8commands3add12add_from_zip00Bb_
FN:156,_RNCNCNvNtNtNtCsfVElPQFRzD4_9fastskill3cli8commands3add12add_from_zip0s_0Bb_
FN:551,_RNCNCNvNtNtNtCsfVElPQFRzD4_9fastskill3cli8commands3add17add_from_registry00Bb_
FN:583,_RNCNCNvNtNtNtCsfVElPQFRzD4_9fastskill3cli8commands3add17add_from_registry0s0_0Bb_
FN:597,_RNCNCNvNtNtNtCsfVElPQFRzD4_9fastskill3cli8commands3add17add_from_registry0s1_0Bb_
FN:605,_RNCNCNvNtNtNtCsfVElPQFRzD4_9fastskill3cli8commands3add17add_from_registry0s2_0Bb_
FN:606,_RNCNCNvNtNtNtCsfVElPQFRzD4_9fastskill3cli8commands3add17add_from_registry0s3_0Bb_
FN:621,_RNCNCNvNtNtNtCsfVElPQFRzD4_9fastskill3cli8commands3add17add_from_registry0s4_0Bb_
FN:636,_RNCNCNvNtNtNtCsfVElPQFRzD4_9fastskill3cli8commands3add17add_from_registry0s5_0Bb_
FN:641,_RNCNCNvNtNtNtCsfVElPQFRzD4_9fastskill3cli8commands3add17add_from_registry0s6_0Bb_
FN:573,_RNCNCNvNtNtNtCsfVElPQFRzD4_9fastskill3cli8commands3add17add_from_registry0s_0Bb_
FN:80,_RNCNvNtNtNtCsfVElPQFRzD4_9fastskill3cli8commands3add11execute_add0B9_
FN:382,_RNCNvNtNtNtCsfVElPQFRzD4_9fastskill3cli8commands3add12add_from_git0B9_
FN:133,_RNCNvNtNtNtCsfVElPQFRzD4_9fastskill3cli8commands3add12add_from_zip0B9_
FN:275,_RNCNvNtNtNtCsfVElPQFRzD4_9fastskill3cli8commands3add15add_from_folder0B9_
FN:526,_RNCNvNtNtNtCsfVElPQFRzD4_9fastskill3cli8commands3add17add_from_registry0B9_
FN:856,_RNCNvNtNtNtCsfVElPQFRzD4_9fastskill3cli8commands3add18copy_dir_recursive0B9_
FN:28,_RNCNvNtNtNtCsfVElPQFRzD4_9fastskill3cli8commands3add20update_project_files0B9_
FN:40,_RNCNvNtNtNtCsfVElPQFRzD4_9fastskill3cli8commands3add20update_project_filess0_0B9_
FN:32,_RNCNvNtNtNtCsfVElPQFRzD4_9fastskill3cli8commands3add20update_project_filess_0B9_
FN:830,_RNCNvNtNtNtCsfVElPQFRzD4_9fastskill3cli8commands3add22create_skill_from_path0B9_
FN:843,_RNCNvNtNtNtCsfVElPQFRzD4_9fastskill3cli8commands3add22create_skill_from_paths0_0B9_
FN:834,_RNCNvNtNtNtCsfVElPQFRzD4_9fastskill3cli8commands3add22create_skill_from_paths_0B9_
FN:781,_RNCNvNtNtNtCsfVElPQFRzD4_9fastskill3cli8commands3add23read_skill_id_from_toml0B9_
FN:786,_RNCNvNtNtNtCsfVElPQFRzD4_9fastskill3cli8commands3add23read_skill_id_from_tomls0_0B9_
FN:790,_RNCNvNtNtNtCsfVElPQFRzD4_9fastskill3cli8commands3add23read_skill_id_from_tomls1_0B9_
FN:784,_RNCNvNtNtNtCsfVElPQFRzD4_9fastskill3cli8commands3add23read_skill_id_from_tomls_0B9_
FN:940,_RNvNtNtNtNtCsfVElPQFRzD4_9fastskill3cli8commands3add5testss_32test_execute_add_with_force_flag
FN:914,_RNvNtNtNtNtCsfVElPQFRzD4_9fastskill3cli8commands3add5testss_33test_execute_add_invalid_skill_id
FN:889,_RNvNtNtNtNtCsfVElPQFRzD4_9fastskill3cli8commands3add5testss_35test_execute_add_nonexistent_source
FN:80,_RNvNtNtNtCs4etJKk8xmvn_9fastskill3cli8commands3add11execute_add
FN:374,_RNvNtNtNtCs4etJKk8xmvn_9fastskill3cli8commands3add12add_from_git
FN:127,_RNvNtNtNtCs4etJKk8xmvn_9fastskill3cli8commands3add12add_from_zip
FN:269,_RNvNtNtNtCs4etJKk8xmvn_9fastskill3cli8commands3add15add_from_folder
FN:520,_RNvNtNtNtCs4etJKk8xmvn_9fastskill3cli8commands3add17add_from_registry
FN:856,_RNvNtNtNtCs4etJKk8xmvn_9fastskill3cli8commands3add18copy_dir_recursive
FN:21,_RNvNtNtNtCs4etJKk8xmvn_9fastskill3cli8commands3add20update_project_files
FN:822,_RNvNtNtNtCs4etJKk8xmvn_9fastskill3cli8commands3add22create_skill_from_path
FN:798,_RNvNtNtNtCs4etJKk8xmvn_9fastskill3cli8commands3add23find_skill_in_directory
FN:765,_RNvNtNtNtCs4etJKk8xmvn_9fastskill3cli8commands3add23read_skill_id_from_toml
FN:81,_RNCNCNvNtNtNtCs4etJKk8xmvn_9fastskill3cli8commands3add11execute_add00Bb_
FN:90,_RNCNCNvNtNtNtCs4etJKk8xmvn_9fastskill3cli8commands3add11execute_add0s_0Bb_
FN:395,_RNCNCNvNtNtNtCs4etJKk8xmvn_9fastskill3cli8commands3add12add_from_git00Bb_
FN:478,_RNCNCNvNtNtNtCs4etJKk8xmvn_9fastskill3cli8commands3add12add_from_git0s0_0Bb_
FN:479,_RNCNCNvNtNtNtCs4etJKk8xmvn_9fastskill3cli8commands3add12add_from_git0s1_0Bb_
FN:413,_RNCNCNvNtNtNtCs4etJKk8xmvn_9fastskill3cli8commands3add12add_from_git0s_0Bb_
FN:151,_RNCNCNvNtNtNtCs4etJKk8xmvn_9fastskill3cli8commands3add12add_from_zip00Bb_
FN:156,_RNCNCNvNtNtNtCs4etJKk8xmvn_9fastskill3cli8commands3add12add_from_zip0s_0Bb_
FN:551,_RNCNCNvNtNtNtCs4etJKk8xmvn_9fastskill3cli8commands3add17add_from_registry00Bb_
FN:583,_RNCNCNvNtNtNtCs4etJKk8xmvn_9fastskill3cli8commands3add17add_from_registry0s0_0Bb_
FN:597,_RNCNCNvNtNtNtCs4etJKk8xmvn_9fastskill3cli8commands3add17add_from_registry0s1_0Bb_
FN:605,_RNCNCNvNtNtNtCs4etJKk8xmvn_9fastskill3cli8commands3add17add_from_registry0s2_0Bb_
FN:606,_RNCNCNvNtNtNtCs4etJKk8xmvn_9fastskill3cli8commands3add17add_from_registry0s3_0Bb_
FN:621,_RNCNCNvNtNtNtCs4etJKk8xmvn_9fastskill3cli8commands3add17add_from_registry0s4_0Bb_
FN:636,_RNCNCNvNtNtNtCs4etJKk8xmvn_9fastskill3cli8commands3add17add_from_registry0s5_0Bb_
FN:641,_RNCNCNvNtNtNtCs4etJKk8xmvn_9fastskill3cli8commands3add17add_from_registry0s6_0Bb_
FN:573,_RNCNCNvNtNtNtCs4etJKk8xmvn_9fastskill3cli8commands3add17add_from_registry0s_0Bb_
FN:80,_RNCNvNtNtNtCs4etJKk8xmvn_9fastskill3cli8commands3add11execute_add0B9_
FN:382,_RNCNvNtNtNtCs4etJKk8xmvn_9fastskill3cli8commands3add12add_from_git0B9_
FN:133,_RNCNvNtNtNtCs4etJKk8xmvn_9fastskill3cli8commands3add12add_from_zip0B9_
FN:275,_RNCNvNtNtNtCs4etJKk8xmvn_9fastskill3cli8commands3add15add_from_folder0B9_
FN:526,_RNCNvNtNtNtCs4etJKk8xmvn_9fastskill3cli8commands3add17add_from_registry0B9_
FN:856,_RNCNvNtNtNtCs4etJKk8xmvn_9fastskill3cli8commands3add18copy_dir_recursive0B9_
FN:28,_RNCNvNtNtNtCs4etJKk8xmvn_9fastskill3cli8commands3add20update_project_files0B9_
FN:40,_RNCNvNtNtNtCs4etJKk8xmvn_9fastskill3cli8commands3add20update_project_filess0_0B9_
FN:32,_RNCNvNtNtNtCs4etJKk8xmvn_9fastskill3cli8commands3add20update_project_filess_0B9_
FN:830,_RNCNvNtNtNtCs4etJKk8xmvn_9fastskill3cli8commands3add22create_skill_from_path0B9_
FN:843,_RNCNvNtNtNtCs4etJKk8xmvn_9fastskill3cli8commands3add22create_skill_from_paths0_0B9_
FN:834,_RNCNvNtNtNtCs4etJKk8xmvn_9fastskill3cli8commands3add22create_skill_from_paths_0B9_
FN:781,_RNCNvNtNtNtCs4etJKk8xmvn_9fastskill3cli8commands3add23read_skill_id_from_toml0B9_
FN:786,_RNCNvNtNtNtCs4etJKk8xmvn_9fastskill3cli8commands3add23read_skill_id_from_tomls0_0B9_
FN:790,_RNCNvNtNtNtCs4etJKk8xmvn_9fastskill3cli8commands3add23read_skill_id_from_tomls1_0B9_
FN:784,_RNCNvNtNtNtCs4etJKk8xmvn_9fastskill3cli8commands3add23read_skill_id_from_tomls_0B9_
FNDA:1,_RNCNvNtNtNtNtCsfVElPQFRzD4_9fastskill3cli8commands3add5testss_32test_execute_add_with_force_flag0Bb_
FNDA:1,_RNCNvNtNtNtNtCsfVElPQFRzD4_9fastskill3cli8commands3add5testss_33test_execute_add_invalid_skill_id0Bb_
FNDA:1,_RNCNvNtNtNtNtCsfVElPQFRzD4_9fastskill3cli8commands3add5testss_35test_execute_add_nonexistent_source0Bb_
FNDA:3,_RNvNtNtNtCsfVElPQFRzD4_9fastskill3cli8commands3add11execute_add
FNDA:0,_RNvNtNtNtCsfVElPQFRzD4_9fastskill3cli8commands3add12add_from_git
FNDA:0,_RNvNtNtNtCsfVElPQFRzD4_9fastskill3cli8commands3add12add_from_zip
FNDA:2,_RNvNtNtNtCsfVElPQFRzD4_9fastskill3cli8commands3add15add_from_folder
FNDA:1,_RNvNtNtNtCsfVElPQFRzD4_9fastskill3cli8commands3add17add_from_registry
FNDA:0,_RNvNtNtNtCsfVElPQFRzD4_9fastskill3cli8commands3add18copy_dir_recursive
FNDA:0,_RNvNtNtNtCsfVElPQFRzD4_9fastskill3cli8commands3add20update_project_files
FNDA:0,_RNvNtNtNtCsfVElPQFRzD4_9fastskill3cli8commands3add22create_skill_from_path
FNDA:0,_RNvNtNtNtCsfVElPQFRzD4_9fastskill3cli8commands3add23find_skill_in_directory
FNDA:0,_RNvNtNtNtCsfVElPQFRzD4_9fastskill3cli8commands3add23read_skill_id_from_toml
FNDA:0,_RNCNCNvNtNtNtCsfVElPQFRzD4_9fastskill3cli8commands3add11execute_add00Bb_
FNDA:0,_RNCNCNvNtNtNtCsfVElPQFRzD4_9fastskill3cli8commands3add11execute_add0s_0Bb_
FNDA:0,_RNCNCNvNtNtNtCsfVElPQFRzD4_9fastskill3cli8commands3add12add_from_git00Bb_
FNDA:0,_RNCNCNvNtNtNtCsfVElPQFRzD4_9fastskill3cli8commands3add12add_from_git0s0_0Bb_
FNDA:0,_RNCNCNvNtNtNtCsfVElPQFRzD4_9fastskill3cli8commands3add12add_from_git0s1_0Bb_
FNDA:0,_RNCNCNvNtNtNtCsfVElPQFRzD4_9fastskill3cli8commands3add12add_from_git0s_0Bb_
FNDA:0,_RNCNCNvNtNtNtCsfVElPQFRzD4_9fastskill3cli8commands3add12add_from_zip00Bb_
FNDA:0,_RNCNCNvNtNtNtCsfVElPQFRzD4_9fastskill3cli8commands3add12add_from_zip0s_0Bb_
FNDA:0,_RNCNCNvNtNtNtCsfVElPQFRzD4_9fastskill3cli8commands3add17add_from_registry00Bb_
FNDA:0,_RNCNCNvNtNtNtCsfVElPQFRzD4_9fastskill3cli8commands3add17add_from_registry0s0_0Bb_
FNDA:0,_RNCNCNvNtNtNtCsfVElPQFRzD4_9fastskill3cli8commands3add17add_from_registry0s1_0Bb_
FNDA:0,_RNCNCNvNtNtNtCsfVElPQFRzD4_9fastskill3cli8commands3add17add_from_registry0s2_0Bb_
FNDA:0,_RNCNCNvNtNtNtCsfVElPQFRzD4_9fastskill3cli8commands3add17add_from_registry0s3_0Bb_
FNDA:0,_RNCNCNvNtNtNtCsfVElPQFRzD4_9fastskill3cli8commands3add17add_from_registry0s4_0Bb_
FNDA:0,_RNCNCNvNtNtNtCsfVElPQFRzD4_9fastskill3cli8commands3add17add_from_registry0s5_0Bb_
FNDA:0,_RNCNCNvNtNtNtCsfVElPQFRzD4_9fastskill3cli8commands3add17add_from_registry0s6_0Bb_
FNDA:0,_RNCNCNvNtNtNtCsfVElPQFRzD4_9fastskill3cli8commands3add17add_from_registry0s_0Bb_
FNDA:3,_RNCNvNtNtNtCsfVElPQFRzD4_9fastskill3cli8commands3add11execute_add0B9_
FNDA:0,_RNCNvNtNtNtCsfVElPQFRzD4_9fastskill3cli8commands3add12add_from_git0B9_
FNDA:0,_RNCNvNtNtNtCsfVElPQFRzD4_9fastskill3cli8commands3add12add_from_zip0B9_
FNDA:2,_RNCNvNtNtNtCsfVElPQFRzD4_9fastskill3cli8commands3add15add_from_folder0B9_
FNDA:1,_RNCNvNtNtNtCsfVElPQFRzD4_9fastskill3cli8commands3add17add_from_registry0B9_
FNDA:0,_RNCNvNtNtNtCsfVElPQFRzD4_9fastskill3cli8commands3add18copy_dir_recursive0B9_
FNDA:0,_RNCNvNtNtNtCsfVElPQFRzD4_9fastskill3cli8commands3add20update_project_files0B9_
FNDA:0,_RNCNvNtNtNtCsfVElPQFRzD4_9fastskill3cli8commands3add20update_project_filess0_0B9_
FNDA:0,_RNCNvNtNtNtCsfVElPQFRzD4_9fastskill3cli8commands3add20update_project_filess_0B9_
FNDA:0,_RNCNvNtNtNtCsfVElPQFRzD4_9fastskill3cli8commands3add22create_skill_from_path0B9_
FNDA:0,_RNCNvNtNtNtCsfVElPQFRzD4_9fastskill3cli8commands3add22create_skill_from_paths0_0B9_
FNDA:0,_RNCNvNtNtNtCsfVElPQFRzD4_9fastskill3cli8commands3add22create_skill_from_paths_0B9_
FNDA:0,_RNCNvNtNtNtCsfVElPQFRzD4_9fastskill3cli8commands3add23read_skill_id_from_toml0B9_
FNDA:0,_RNCNvNtNtNtCsfVElPQFRzD4_9fastskill3cli8commands3add23read_skill_id_from_tomls0_0B9_
FNDA:0,_RNCNvNtNtNtCsfVElPQFRzD4_9fastskill3cli8commands3add23read_skill_id_from_tomls1_0B9_
FNDA:0,_RNCNvNtNtNtCsfVElPQFRzD4_9fastskill3cli8commands3add23read_skill_id_from_tomls_0B9_
FNDA:1,_RNvNtNtNtNtCsfVElPQFRzD4_9fastskill3cli8commands3add5testss_32test_execute_add_with_force_flag
FNDA:1,_RNvNtNtNtNtCsfVElPQFRzD4_9fastskill3cli8commands3add5testss_33test_execute_add_invalid_skill_id
FNDA:1,_RNvNtNtNtNtCsfVElPQFRzD4_9fastskill3cli8commands3add5testss_35test_execute_add_nonexistent_source
FNDA:0,_RNvNtNtNtCs4etJKk8xmvn_9fastskill3cli8commands3add11execute_add
FNDA:0,_RNvNtNtNtCs4etJKk8xmvn_9fastskill3cli8commands3add12add_from_git
FNDA:0,_RNvNtNtNtCs4etJKk8xmvn_9fastskill3cli8commands3add12add_from_zip
FNDA:0,_RNvNtNtNtCs4etJKk8xmvn_9fastskill3cli8commands3add15add_from_folder
FNDA:0,_RNvNtNtNtCs4etJKk8xmvn_9fastskill3cli8commands3add17add_from_registry
FNDA:0,_RNvNtNtNtCs4etJKk8xmvn_9fastskill3cli8commands3add18copy_dir_recursive
FNDA:0,_RNvNtNtNtCs4etJKk8xmvn_9fastskill3cli8commands3add20update_project_files
FNDA:0,_RNvNtNtNtCs4etJKk8xmvn_9fastskill3cli8commands3add22create_skill_from_path
FNDA:0,_RNvNtNtNtCs4etJKk8xmvn_9fastskill3cli8commands3add23find_skill_in_directory
FNDA:0,_RNvNtNtNtCs4etJKk8xmvn_9fastskill3cli8commands3add23read_skill_id_from_toml
FNDA:0,_RNCNCNvNtNtNtCs4etJKk8xmvn_9fastskill3cli8commands3add11execute_add00Bb_
FNDA:0,_RNCNCNvNtNtNtCs4etJKk8xmvn_9fastskill3cli8commands3add11execute_add0s_0Bb_
FNDA:0,_RNCNCNvNtNtNtCs4etJKk8xmvn_9fastskill3cli8commands3add12add_from_git00Bb_
FNDA:0,_RNCNCNvNtNtNtCs4etJKk8xmvn_9fastskill3cli8commands3add12add_from_git0s0_0Bb_
FNDA:0,_RNCNCNvNtNtNtCs4etJKk8xmvn_9fastskill3cli8commands3add12add_from_git0s1_0Bb_
FNDA:0,_RNCNCNvNtNtNtCs4etJKk8xmvn_9fastskill3cli8commands3add12add_from_git0s_0Bb_
FNDA:0,_RNCNCNvNtNtNtCs4etJKk8xmvn_9fastskill3cli8commands3add12add_from_zip00Bb_
FNDA:0,_RNCNCNvNtNtNtCs4etJKk8xmvn_9fastskill3cli8commands3add12add_from_zip0s_0Bb_
FNDA:0,_RNCNCNvNtNtNtCs4etJKk8xmvn_9fastskill3cli8commands3add17add_from_registry00Bb_
FNDA:0,_RNCNCNvNtNtNtCs4etJKk8xmvn_9fastskill3cli8commands3add17add_from_registry0s0_0Bb_
FNDA:0,_RNCNCNvNtNtNtCs4etJKk8xmvn_9fastskill3cli8commands3add17add_from_registry0s1_0Bb_
FNDA:0,_RNCNCNvNtNtNtCs4etJKk8xmvn_9fastskill3cli8commands3add17add_from_registry0s2_0Bb_
FNDA:0,_RNCNCNvNtNtNtCs4etJKk8xmvn_9fastskill3cli8commands3add17add_from_registry0s3_0Bb_
FNDA:0,_RNCNCNvNtNtNtCs4etJKk8xmvn_9fastskill3cli8commands3add17add_from_registry0s4_0Bb_
FNDA:0,_RNCNCNvNtNtNtCs4etJKk8xmvn_9fastskill3cli8commands3add17add_from_registry0s5_0Bb_
FNDA:0,_RNCNCNvNtNtNtCs4etJKk8xmvn_9fastskill3cli8commands3add17add_from_registry0s6_0Bb_
FNDA:0,_RNCNCNvNtNtNtCs4etJKk8xmvn_9fastskill3cli8commands3add17add_from_registry0s_0Bb_
FNDA:0,_RNCNvNtNtNtCs4etJKk8xmvn_9fastskill3cli8commands3add11execute_add0B9_
FNDA:0,_RNCNvNtNtNtCs4etJKk8xmvn_9fastskill3cli8commands3add12add_from_git0B9_
FNDA:0,_RNCNvNtNtNtCs4etJKk8xmvn_9fastskill3cli8commands3add12add_from_zip0B9_
FNDA:0,_RNCNvNtNtNtCs4etJKk8xmvn_9fastskill3cli8commands3add15add_from_folder0B9_
FNDA:0,_RNCNvNtNtNtCs4etJKk8xmvn_9fastskill3cli8commands3add17add_from_registry0B9_
FNDA:0,_RNCNvNtNtNtCs4etJKk8xmvn_9fastskill3cli8commands3add18copy_dir_recursive0B9_
FNDA:0,_RNCNvNtNtNtCs4etJKk8xmvn_9fastskill3cli8commands3add20update_project_files0B9_
FNDA:0,_RNCNvNtNtNtCs4etJKk8xmvn_9fastskill3cli8commands3add20update_project_filess0_0B9_
FNDA:0,_RNCNvNtNtNtCs4etJKk8xmvn_9fastskill3cli8commands3add20update_project_filess_0B9_
FNDA:0,_RNCNvNtNtNtCs4etJKk8xmvn_9fastskill3cli8commands3add22create_skill_from_path0B9_
FNDA:0,_RNCNvNtNtNtCs4etJKk8xmvn_9fastskill3cli8commands3add22create_skill_from_paths0_0B9_
FNDA:0,_RNCNvNtNtNtCs4etJKk8xmvn_9fastskill3cli8commands3add22create_skill_from_paths_0B9_
FNDA:0,_RNCNvNtNtNtCs4etJKk8xmvn_9fastskill3cli8commands3add23read_skill_id_from_toml0B9_
FNDA:0,_RNCNvNtNtNtCs4etJKk8xmvn_9fastskill3cli8commands3add23read_skill_id_from_tomls0_0B9_
FNDA:0,_RNCNvNtNtNtCs4etJKk8xmvn_9fastskill3cli8commands3add23read_skill_id_from_tomls1_0B9_
FNDA:0,_RNCNvNtNtNtCs4etJKk8xmvn_9fastskill3cli8commands3add23read_skill_id_from_tomls_0B9_
FNF:49
FNH:12
DA:21,0
DA:22,0
DA:23,0
DA:24,0
DA:25,0
DA:27,0
DA:28,0
DA:31,0
DA:32,0
DA:33,0
DA:34,0
DA:35,0
DA:37,0
DA:39,0
DA:40,0
DA:42,0
DA:43,0
DA:80,3
DA:81,3
DA:84,3
DA:85,3
DA:86,3
DA:87,2
DA:88,2
DA:89,2
DA:90,2
DA:91,0
DA:93,2
DA:96,0
DA:99,0
DA:102,3
DA:103,0
DA:104,0
DA:106,2
DA:107,2
DA:109,0
DA:110,0
DA:111,0
DA:112,0
DA:113,0
DA:114,0
DA:115,0
DA:116,0
DA:117,0
DA:118,0
DA:119,0
DA:121,1
DA:122,1
DA:125,3
DA:127,0
DA:128,0
DA:129,0
DA:130,0
DA:131,0
DA:132,0
DA:133,0
DA:134,0
DA:137,0
DA:138,0
DA:139,0
DA:140,0
DA:141,0
DA:142,0
DA:145,0
DA:146,0
DA:149,0
DA:150,0
DA:151,0
DA:153,0
DA:154,0
DA:155,0
DA:156,0
DA:157,0
DA:159,0
DA:160,0
DA:162,0
DA:163,0
DA:164,0
DA:165,0
DA:166,0
DA:167,0
DA:168,0
DA:173,0
DA:174,0
DA:178,0
DA:181,0
DA:182,0
DA:183,0
DA:184,0
DA:185,0
DA:186,0
DA:187,0
DA:188,0
DA:189,0
DA:190,0
DA:191,0
DA:193,0
DA:194,0
DA:195,0
DA:196,0
DA:199,0
DA:202,0
DA:203,0
DA:206,0
DA:207,0
DA:208,0
DA:209,0
DA:210,0
DA:211,0
DA:214,0
DA:215,0
DA:216,0
DA:217,0
DA:218,0
DA:219,0
DA:221,0
DA:222,0
DA:223,0
DA:224,0
DA:225,0
DA:226,0
DA:227,0
DA:228,0
DA:229,0
DA:230,0
DA:234,0
DA:235,0
DA:236,0
DA:237,0
DA:240,0
DA:241,0
DA:242,0
DA:243,0
DA:244,0
DA:245,0
DA:246,0
DA:247,0
DA:248,0
DA:249,0
DA:250,0
DA:251,0
DA:252,0
DA:253,0
DA:256,0
DA:258,0
DA:262,0
DA:264,0
DA:266,0
DA:267,0
DA:269,2
DA:270,2
DA:271,2
DA:272,2
DA:273,2
DA:274,2
DA:275,2
DA:276,2
DA:279,2
DA:283,0
DA:286,0
DA:287,0
DA:288,0
DA:289,0
DA:290,0
DA:291,0
DA:292,0
DA:293,0
DA:294,0
DA:295,0
DA:296,0
DA:298,0
DA:299,0
DA:300,0
DA:301,0
DA:304,0
DA:307,0
DA:308,0
DA:311,0
DA:312,0
DA:313,0
DA:314,0
DA:315,0
DA:316,0
DA:319,0
DA:320,0
DA:321,0
DA:322,0
DA:323,0
DA:324,0
DA:326,0
DA:327,0
DA:328,0
DA:329,0
DA:330,0
DA:331,0
DA:332,0
DA:333,0
DA:334,0
DA:335,0
DA:339,0
DA:340,0
DA:341,0
DA:342,0
DA:345,0
DA:346,0
DA:347,0
DA:348,0
DA:349,0
DA:350,0
DA:351,0
DA:352,0
DA:353,0
DA:354,0
DA:355,0
DA:356,0
DA:357,0
DA:358,0
DA:361,0
DA:363,0
DA:367,0
DA:369,0
DA:371,0
DA:372,2
DA:374,0
DA:375,0
DA:376,0
DA:377,0
DA:378,0
DA:379,0
DA:380,0
DA:381,0
DA:382,0
DA:383,0
DA:386,0
DA:387,0
DA:393,0
DA:394,0
DA:395,0
DA:398,0
DA:399,0
DA:400,0
DA:401,0
DA:402,0
DA:403,0
DA:404,0
DA:405,0
DA:406,0
DA:408,0
DA:412,0
DA:413,0
DA:416,0
DA:420,0
DA:423,0
DA:424,0
DA:425,0
DA:426,0
DA:427,0
DA:428,0
DA:429,0
DA:430,0
DA:431,0
DA:432,0
DA:433,0
DA:435,0
DA:436,0
DA:437,0
DA:438,0
DA:441,0
DA:444,0
DA:445,0
DA:448,0
DA:449,0
DA:450,0
DA:451,0
DA:452,0
DA:453,0
DA:456,0
DA:457,0
DA:458,0
DA:459,0
DA:460,0
DA:461,0
DA:463,0
DA:464,0
DA:465,0
DA:466,0
DA:467,0
DA:468,0
DA:469,0
DA:470,0
DA:471,0
DA:472,0
DA:476,0
DA:477,0
DA:478,0
DA:479,0
DA:480,0
DA:481,0
DA:482,0
DA:486,0
DA:487,0
DA:488,0
DA:489,0
DA:490,0
DA:491,0
DA:492,0
DA:493,0
DA:494,0
DA:495,0
DA:496,0
DA:497,0
DA:498,0
DA:499,0
DA:500,0
DA:501,0
DA:502,0
DA:505,0
DA:507,0
DA:511,0
DA:513,0
DA:515,0
DA:517,0
DA:520,1
DA:521,1
DA:522,1
DA:523,1
DA:524,1
DA:525,1
DA:526,1
DA:527,1
DA:530,1
DA:533,1
DA:534,0
DA:535,0
DA:536,0
DA:540,1
DA:541,1
DA:542,1
DA:543,1
DA:547,0
DA:548,0
DA:551,0
DA:552,0
DA:553,0
DA:554,0
DA:555,0
DA:556,0
DA:560,0
DA:561,0
DA:564,0
DA:565,0
DA:566,0
DA:567,0
DA:570,0
DA:571,0
DA:572,0
DA:573,0
DA:576,0
DA:577,0
DA:580,0
DA:581,0
DA:582,0
DA:583,0
DA:585,0
DA:586,0
DA:587,0
DA:588,0
DA:589,0
DA:590,0
DA:593,0
DA:594,0
DA:595,0
DA:596,0
DA:597,0
DA:598,0
DA:602,0
DA:603,0
DA:604,0
DA:605,0
DA:606,0
DA:607,0
DA:608,0
DA:609,0
DA:610,0
DA:611,0
DA:614,0
DA:618,0
DA:619,0
DA:620,0
DA:621,0
DA:625,0
DA:626,0
DA:627,0
DA:630,0
DA:631,0
DA:634,0
DA:635,0
DA:636,0
DA:638,0
DA:639,0
DA:640,0
DA:641,0
DA:642,0
DA:644,0
DA:645,0
DA:647,0
DA:648,0
DA:649,0
DA:650,0
DA:651,0
DA:652,0
DA:653,0
DA:658,0
DA:659,0
DA:663,0
DA:666,0
DA:667,0
DA:668,0
DA:669,0
DA:670,0
DA:671,0
DA:674,0
DA:675,0
DA:676,0
DA:677,0
DA:678,0
DA:679,0
DA:680,0
DA:681,0
DA:682,0
DA:683,0
DA:684,0
DA:685,0
DA:687,0
DA:688,0
DA:689,0
DA:690,0
DA:693,0
DA:696,0
DA:697,0
DA:700,0
DA:701,0
DA:702,0
DA:703,0
DA:704,0
DA:705,0
DA:707,0
DA:708,0
DA:709,0
DA:710,0
DA:711,0
DA:712,0
DA:714,0
DA:715,0
DA:716,0
DA:717,0
DA:718,0
DA:719,0
DA:720,0
DA:721,0
DA:722,0
DA:723,0
DA:727,0
DA:728,0
DA:729,0
DA:730,0
DA:731,0
DA:734,0
DA:735,0
DA:736,0
DA:737,0
DA:738,0
DA:739,0
DA:740,0
DA:741,0
DA:742,0
DA:743,0
DA:744,0
DA:745,0
DA:746,0
DA:747,0
DA:748,0
DA:751,0
DA:753,0
DA:757,0
DA:759,0
DA:761,0
DA:762,1
DA:765,0
DA:766,0
DA:768,0
DA:769,0
DA:770,0
DA:771,0
DA:772,0
DA:773,0
DA:780,0
DA:781,0
DA:783,0
DA:784,0
DA:786,0
DA:787,0
DA:788,0
DA:790,0
DA:791,0
DA:792,0
DA:793,0
DA:794,0
DA:795,0
DA:798,0
DA:800,0
DA:801,0
DA:802,0
DA:805,0
DA:806,0
DA:807,0
DA:808,0
DA:809,0
DA:810,0
DA:811,0
DA:814,0
DA:815,0
DA:816,0
DA:817,0
DA:818,0
DA:822,0
DA:824,0
DA:825,0
DA:826,0
DA:829,0
DA:830,0
DA:833,0
DA:834,0
DA:835,0
DA:836,0
DA:839,0
DA:840,0
DA:841,0
DA:842,0
DA:843,0
DA:847,0
DA:850,0
DA:852,0
DA:853,0
DA:856,0
DA:858,0
DA:860,0
DA:862,0
DA:863,0
DA:864,0
DA:865,0
DA:867,0
DA:869,0
DA:872,0
DA:873,0
DA:874,0
DA:878,0
DA:879,0
DA:889,1
DA:890,1
DA:891,1
DA:892,1
DA:893,1
DA:894,1
DA:896,1
DA:897,1
DA:899,1
DA:900,1
DA:901,1
DA:902,1
DA:903,1
DA:904,1
DA:905,1
DA:906,1
DA:907,1
DA:909,1
DA:910,1
DA:911,1
DA:914,1
DA:915,1
DA:916,1
DA:917,1
DA:918,1
DA:919,1
DA:921,1
DA:922,1
DA:924,1
DA:925,1
DA:926,1
DA:927,1
DA:928,1
DA:929,1
DA:930,1
DA:931,1
DA:932,1
DA:934,1
DA:936,1
DA:937,1
DA:940,1
DA:941,1
DA:942,1
DA:943,1
DA:944,1
DA:945,1
DA:947,1
DA:948,1
DA:950,1
DA:951,1
DA:952,1
DA:953,1
DA:954,1
DA:955,1
DA:956,1
DA:957,1
DA:958,1
DA:961,1
DA:962,1
DA:963,1
BRF:0
BRH:0
LF:661
LH:110
end_of_record
SF:/home/sysuser/ws001/gofastskill/fastskill/src/bin/../cli/commands/auth.rs
FN:67,_RNCNCNvNtNtNtCsfVElPQFRzD4_9fastskill3cli8commands4auth13execute_login00Bb_
FN:85,_RNCNCNvNtNtNtCsfVElPQFRzD4_9fastskill3cli8commands4auth13execute_login0s0_0Bb_
FN:98,_RNCNCNvNtNtNtCsfVElPQFRzD4_9fastskill3cli8commands4auth13execute_login0s1_0Bb_
FN:102,_RNCNCNvNtNtNtCsfVElPQFRzD4_9fastskill3cli8commands4auth13execute_login0s2_0Bb_
FN:103,_RNCNCNvNtNtNtCsfVElPQFRzD4_9fastskill3cli8commands4auth13execute_login0s3_0Bb_
FN:104,_RNCNCNvNtNtNtCsfVElPQFRzD4_9fastskill3cli8commands4auth13execute_login0s4_0Bb_
FN:68,_RNCNCNvNtNtNtCsfVElPQFRzD4_9fastskill3cli8commands4auth13execute_login0s_0Bb_
FN:54,_RNCNvNtNtNtCsfVElPQFRzD4_9fastskill3cli8commands4auth12execute_auth0B9_
FN:63,_RNCNvNtNtNtCsfVElPQFRzD4_9fastskill3cli8commands4auth13execute_login0B9_
FN:123,_RNCNvNtNtNtCsfVElPQFRzD4_9fastskill3cli8commands4auth14execute_logout0B9_
FN:124,_RNCNvNtNtNtCsfVElPQFRzD4_9fastskill3cli8commands4auth14execute_logouts_0B9_
FN:142,_RNCNvNtNtNtCsfVElPQFRzD4_9fastskill3cli8commands4auth14execute_whoami0B9_
FN:143,_RNCNvNtNtNtCsfVElPQFRzD4_9fastskill3cli8commands4auth14execute_whoamis_0B9_
FN:54,_RNvNtNtNtCsfVElPQFRzD4_9fastskill3cli8commands4auth12execute_auth
FN:63,_RNvNtNtNtCsfVElPQFRzD4_9fastskill3cli8commands4auth13execute_login
FN:119,_RNvNtNtNtCsfVElPQFRzD4_9fastskill3cli8commands4auth14execute_logout
FN:138,_RNvNtNtNtCsfVElPQFRzD4_9fastskill3cli8commands4auth14execute_whoami
FN:67,_RNCNCNvNtNtNtCs4etJKk8xmvn_9fastskill3cli8commands4auth13execute_login00Bb_
FN:85,_RNCNCNvNtNtNtCs4etJKk8xmvn_9fastskill3cli8commands4auth13execute_login0s0_0Bb_
FN:98,_RNCNCNvNtNtNtCs4etJKk8xmvn_9fastskill3cli8commands4auth13execute_login0s1_0Bb_
FN:102,_RNCNCNvNtNtNtCs4etJKk8xmvn_9fastskill3cli8commands4auth13execute_login0s2_0Bb_
FN:103,_RNCNCNvNtNtNtCs4etJKk8xmvn_9fastskill3cli8commands4auth13execute_login0s3_0Bb_
FN:104,_RNCNCNvNtNtNtCs4etJKk8xmvn_9fastskill3cli8commands4auth13execute_login0s4_0Bb_
FN:68,_RNCNCNvNtNtNtCs4etJKk8xmvn_9fastskill3cli8commands4auth13execute_login0s_0Bb_
FN:54,_RNCNvNtNtNtCs4etJKk8xmvn_9fastskill3cli8commands4auth12execute_auth0B9_
FN:63,_RNCNvNtNtNtCs4etJKk8xmvn_9fastskill3cli8commands4auth13execute_login0B9_
FN:123,_RNCNvNtNtNtCs4etJKk8xmvn_9fastskill3cli8commands4auth14execute_logout0B9_
FN:124,_RNCNvNtNtNtCs4etJKk8xmvn_9fastskill3cli8commands4auth14execute_logouts_0B9_
FN:142,_RNCNvNtNtNtCs4etJKk8xmvn_9fastskill3cli8commands4auth14execute_whoami0B9_
FN:143,_RNCNvNtNtNtCs4etJKk8xmvn_9fastskill3cli8commands4auth14execute_whoamis_0B9_
FN:54,_RNvNtNtNtCs4etJKk8xmvn_9fastskill3cli8commands4auth12execute_auth
FN:63,_RNvNtNtNtCs4etJKk8xmvn_9fastskill3cli8commands4auth13execute_login
FN:119,_RNvNtNtNtCs4etJKk8xmvn_9fastskill3cli8commands4auth14execute_logout
FN:138,_RNvNtNtNtCs4etJKk8xmvn_9fastskill3cli8commands4auth14execute_whoami
FNDA:0,_RNCNCNvNtNtNtCsfVElPQFRzD4_9fastskill3cli8commands4auth13execute_login00Bb_
FNDA:0,_RNCNCNvNtNtNtCsfVElPQFRzD4_9fastskill3cli8commands4auth13execute_login0s0_0Bb_
FNDA:0,_RNCNCNvNtNtNtCsfVElPQFRzD4_9fastskill3cli8commands4auth13execute_login0s1_0Bb_
FNDA:0,_RNCNCNvNtNtNtCsfVElPQFRzD4_9fastskill3cli8commands4auth13execute_login0s2_0Bb_
FNDA:0,_RNCNCNvNtNtNtCsfVElPQFRzD4_9fastskill3cli8commands4auth13execute_login0s3_0Bb_
FNDA:0,_RNCNCNvNtNtNtCsfVElPQFRzD4_9fastskill3cli8commands4auth13execute_login0s4_0Bb_
FNDA:0,_RNCNCNvNtNtNtCsfVElPQFRzD4_9fastskill3cli8commands4auth13execute_login0s_0Bb_
FNDA:0,_RNCNvNtNtNtCsfVElPQFRzD4_9fastskill3cli8commands4auth12execute_auth0B9_
FNDA:0,_RNCNvNtNtNtCsfVElPQFRzD4_9fastskill3cli8commands4auth13execute_login0B9_
FNDA:0,_RNCNvNtNtNtCsfVElPQFRzD4_9fastskill3cli8commands4auth14execute_logout0B9_
FNDA:0,_RNCNvNtNtNtCsfVElPQFRzD4_9fastskill3cli8commands4auth14execute_logouts_0B9_
FNDA:0,_RNCNvNtNtNtCsfVElPQFRzD4_9fastskill3cli8commands4auth14execute_whoami0B9_
FNDA:0,_RNCNvNtNtNtCsfVElPQFRzD4_9fastskill3cli8commands4auth14execute_whoamis_0B9_
FNDA:0,_RNvNtNtNtCsfVElPQFRzD4_9fastskill3cli8commands4auth12execute_auth
FNDA:0,_RNvNtNtNtCsfVElPQFRzD4_9fastskill3cli8commands4auth13execute_login
FNDA:0,_RNvNtNtNtCsfVElPQFRzD4_9fastskill3cli8commands4auth14execute_logout
FNDA:0,_RNvNtNtNtCsfVElPQFRzD4_9fastskill3cli8commands4auth14execute_whoami
FNDA:0,_RNCNCNvNtNtNtCs4etJKk8xmvn_9fastskill3cli8commands4auth13execute_login00Bb_
FNDA:0,_RNCNCNvNtNtNtCs4etJKk8xmvn_9fastskill3cli8commands4auth13execute_login0s0_0Bb_
FNDA:0,_RNCNCNvNtNtNtCs4etJKk8xmvn_9fastskill3cli8commands4auth13execute_login0s1_0Bb_
FNDA:0,_RNCNCNvNtNtNtCs4etJKk8xmvn_9fastskill3cli8commands4auth13execute_login0s2_0Bb_
FNDA:0,_RNCNCNvNtNtNtCs4etJKk8xmvn_9fastskill3cli8commands4auth13execute_login0s3_0Bb_
FNDA:0,_RNCNCNvNtNtNtCs4etJKk8xmvn_9fastskill3cli8commands4auth13execute_login0s4_0Bb_
FNDA:0,_RNCNCNvNtNtNtCs4etJKk8xmvn_9fastskill3cli8commands4auth13execute_login0s_0Bb_
FNDA:0,_RNCNvNtNtNtCs4etJKk8xmvn_9fastskill3cli8commands4auth12execute_auth0B9_
FNDA:0,_RNCNvNtNtNtCs4etJKk8xmvn_9fastskill3cli8commands4auth13execute_login0B9_
FNDA:0,_RNCNvNtNtNtCs4etJKk8xmvn_9fastskill3cli8commands4auth14execute_logout0B9_
FNDA:0,_RNCNvNtNtNtCs4etJKk8xmvn_9fastskill3cli8commands4auth14execute_logouts_0B9_
FNDA:0,_RNCNvNtNtNtCs4etJKk8xmvn_9fastskill3cli8commands4auth14execute_whoami0B9_
FNDA:0,_RNCNvNtNtNtCs4etJKk8xmvn_9fastskill3cli8commands4auth14execute_whoamis_0B9_
FNDA:0,_RNvNtNtNtCs4etJKk8xmvn_9fastskill3cli8commands4auth12execute_auth
FNDA:0,_RNvNtNtNtCs4etJKk8xmvn_9fastskill3cli8commands4auth13execute_login
FNDA:0,_RNvNtNtNtCs4etJKk8xmvn_9fastskill3cli8commands4auth14execute_logout
FNDA:0,_RNvNtNtNtCs4etJKk8xmvn_9fastskill3cli8commands4auth14execute_whoami
FNF:17
FNH:0
DA:54,0
DA:55,0
DA:56,0
DA:57,0
DA:58,0
DA:60,0
DA:63,0
DA:65,0
DA:66,0
DA:67,0
DA:68,0
DA:70,0
DA:73,0
DA:74,0
DA:76,0
DA:77,0
DA:80,0
DA:81,0
DA:82,0
DA:83,0
DA:84,0
DA:85,0
DA:87,0
DA:88,0
DA:90,0
DA:91,0
DA:93,0
DA:95,0
DA:96,0
DA:97,0
DA:98,0
DA:100,0
DA:101,0
DA:102,0
DA:103,0
DA:104,0
DA:107,0
DA:109,0
DA:111,0
DA:113,0
DA:115,0
DA:116,0
DA:119,0
DA:121,0
DA:122,0
DA:123,0
DA:124,0
DA:127,0
DA:129,0
DA:131,0
DA:134,0
DA:135,0
DA:138,0
DA:140,0
DA:141,0
DA:142,0
DA:143,0
DA:146,0
DA:147,0
DA:148,0
DA:149,0
DA:150,0
DA:151,0
DA:154,0
DA:155,0
DA:156,0
DA:157,0
DA:158,0
DA:159,0
DA:160,0
DA:161,0
DA:162,0
DA:163,0
DA:164,0
DA:165,0
DA:166,0
DA:168,0
DA:169,0
DA:170,0
DA:171,0
DA:174,0
DA:175,0
BRF:0
BRH:0
LF:95
LH:0
end_of_record
SF:/home/sysuser/ws001/gofastskill/fastskill/src/bin/../cli/commands/disable.rs
FN:46,_RNvNtNtNtNtCsfVElPQFRzD4_9fastskill3cli8commands7disable5testss_31test_execute_disable_empty_args
FN:68,_RNvNtNtNtNtCsfVElPQFRzD4_9fastskill3cli8commands7disable5testss_37test_execute_disable_invalid_skill_id
FN:92,_RNvNtNtNtNtCsfVElPQFRzD4_9fastskill3cli8commands7disable5testss_38test_execute_disable_nonexistent_skill
FN:46,_RNCNvNtNtNtNtCsfVElPQFRzD4_9fastskill3cli8commands7disable5testss_31test_execute_disable_empty_args0Bb_
FN:68,_RNCNvNtNtNtNtCsfVElPQFRzD4_9fastskill3cli8commands7disable5testss_37test_execute_disable_invalid_skill_id0Bb_
FN:92,_RNCNvNtNtNtNtCsfVElPQFRzD4_9fastskill3cli8commands7disable5testss_38test_execute_disable_nonexistent_skill0Bb_
FN:14,_RNvNtNtNtCsfVElPQFRzD4_9fastskill3cli8commands7disable15execute_disable
FN:21,_RNCNCNvNtNtNtCsfVElPQFRzD4_9fastskill3cli8commands7disable15execute_disable00Bb_
FN:26,_RNCNCNvNtNtNtCsfVElPQFRzD4_9fastskill3cli8commands7disable15execute_disable0s_0Bb_
FN:14,_RNCNvNtNtNtCsfVElPQFRzD4_9fastskill3cli8commands7disable15execute_disable0B9_
FN:21,_RNCNCNvNtNtNtCs4etJKk8xmvn_9fastskill3cli8commands7disable15execute_disable00Bb_
FN:26,_RNCNCNvNtNtNtCs4etJKk8xmvn_9fastskill3cli8commands7disable15execute_disable0s_0Bb_
FN:14,_RNCNvNtNtNtCs4etJKk8xmvn_9fastskill3cli8commands7disable15execute_disable0B9_
FN:14,_RNvNtNtNtCs4etJKk8xmvn_9fastskill3cli8commands7disable15execute_disable
FNDA:1,_RNvNtNtNtNtCsfVElPQFRzD4_9fastskill3cli8commands7disable5testss_31test_execute_disable_empty_args
FNDA:1,_RNvNtNtNtNtCsfVElPQFRzD4_9fastskill3cli8commands7disable5testss_37test_execute_disable_invalid_skill_id
FNDA:1,_RNvNtNtNtNtCsfVElPQFRzD4_9fastskill3cli8commands7disable5testss_38test_execute_disable_nonexistent_skill
FNDA:1,_RNCNvNtNtNtNtCsfVElPQFRzD4_9fastskill3cli8commands7disable5testss_31test_execute_disable_empty_args0Bb_
FNDA:1,_RNCNvNtNtNtNtCsfVElPQFRzD4_9fastskill3cli8commands7disable5testss_37test_execute_disable_invalid_skill_id0Bb_
FNDA:1,_RNCNvNtNtNtNtCsfVElPQFRzD4_9fastskill3cli8commands7disable5testss_38test_execute_disable_nonexistent_skill0Bb_
FNDA:3,_RNvNtNtNtCsfVElPQFRzD4_9fastskill3cli8commands7disable15execute_disable
FNDA:2,_RNCNCNvNtNtNtCsfVElPQFRzD4_9fastskill3cli8commands7disable15execute_disable00Bb_
FNDA:0,_RNCNCNvNtNtNtCsfVElPQFRzD4_9fastskill3cli8commands7disable15execute_disable0s_0Bb_
FNDA:3,_RNCNvNtNtNtCsfVElPQFRzD4_9fastskill3cli8commands7disable15execute_disable0B9_
FNDA:0,_RNCNCNvNtNtNtCs4etJKk8xmvn_9fastskill3cli8commands7disable15execute_disable00Bb_
FNDA:0,_RNCNCNvNtNtNtCs4etJKk8xmvn_9fastskill3cli8commands7disable15execute_disable0s_0Bb_
FNDA:0,_RNCNvNtNtNtCs4etJKk8xmvn_9fastskill3cli8commands7disable15execute_disable0B9_
FNDA:0,_RNvNtNtNtCs4etJKk8xmvn_9fastskill3cli8commands7disable15execute_disable
FNF:10
FNH:9
DA:14,3
DA:15,3
DA:16,1
DA:17,2
DA:19,2
DA:20,2
DA:21,2
DA:22,0
DA:23,0
DA:24,0
DA:25,0
DA:26,0
DA:27,0
DA:28,0
DA:29,0
DA:30,0
DA:31,0
DA:32,0
DA:35,0
DA:36,3
DA:46,1
DA:47,1
DA:48,1
DA:49,1
DA:50,1
DA:51,1
DA:53,1
DA:54,1
DA:56,1
DA:58,1
DA:59,1
DA:60,1
DA:61,1
DA:62,1
DA:63,1
DA:64,1
DA:65,1
DA:68,1
DA:69,1
DA:70,1
DA:71,1
DA:72,1
DA:73,1
DA:75,1
DA:76,1
DA:78,1
DA:79,1
DA:80,1
DA:82,1
DA:83,1
DA:84,1
DA:85,1
DA:86,1
DA:87,1
DA:88,1
DA:89,1
DA:92,1
DA:93,1
DA:94,1
DA:95,1
DA:96,1
DA:97,1
DA:99,1
DA:100,1
DA:102,1
DA:103,1
DA:104,1
DA:107,1
DA:108,1
DA:109,1
BRF:0
BRH:0
LF:84
LH:68
end_of_record
SF:/home/sysuser/ws001/gofastskill/fastskill/src/bin/../cli/commands/init.rs
FN:382,_RNCNvNtNtNtNtCsfVElPQFRzD4_9fastskill3cli8commands4init5testss_31test_execute_init_with_all_args0Bb_
FN:429,_RNCNvNtNtNtNtCsfVElPQFRzD4_9fastskill3cli8commands4init5testss_33test_execute_init_with_invalid_id0Bb_
FN:406,_RNCNvNtNtNtNtCsfVElPQFRzD4_9fastskill3cli8commands4init5testss_38test_execute_init_with_invalid_version0Bb_
FN:46,_RNvNtNtNtCsfVElPQFRzD4_9fastskill3cli8commands4init12execute_init
FN:347,_RNvNtNtNtCsfVElPQFRzD4_9fastskill3cli8commands4init16prompt_for_field
FN:327,_RNvNtNtNtCsfVElPQFRzD4_9fastskill3cli8commands4init18prompt_for_version
FN:248,_RNvNtNtNtCsfVElPQFRzD4_9fastskill3cli8commands4init29extract_version_from_skill_md
FN:382,_RNvNtNtNtNtCsfVElPQFRzD4_9fastskill3cli8commands4init5testss_31test_execute_init_with_all_args
FN:429,_RNvNtNtNtNtCsfVElPQFRzD4_9fastskill3cli8commands4init5testss_33test_execute_init_with_invalid_id
FN:406,_RNvNtNtNtNtCsfVElPQFRzD4_9fastskill3cli8commands4init5testss_38test_execute_init_with_invalid_version
FN:67,_RNCNCNvNtNtNtCsfVElPQFRzD4_9fastskill3cli8commands4init12execute_init00Bb_
FN:93,_RNCNCNvNtNtNtCsfVElPQFRzD4_9fastskill3cli8commands4init12execute_init0s0_0Bb_
FN:98,_RNCNCNvNtNtNtCsfVElPQFRzD4_9fastskill3cli8commands4init12execute_init0s1_0Bb_
FN:150,_RNCNCNvNtNtNtCsfVElPQFRzD4_9fastskill3cli8commands4init12execute_init0s2_0Bb_
FN:153,_RNCNCNvNtNtNtCsfVElPQFRzD4_9fastskill3cli8commands4init12execute_init0s3_0Bb_
FN:154,_RNCNCNvNtNtNtCsfVElPQFRzD4_9fastskill3cli8commands4init12execute_init0s4_0Bb_
FN:160,_RNCNCNvNtNtNtCsfVElPQFRzD4_9fastskill3cli8commands4init12execute_init0s5_0Bb_
FN:184,_RNCNCNvNtNtNtCsfVElPQFRzD4_9fastskill3cli8commands4init12execute_init0s6_0Bb_
FN:195,_RNCNCNvNtNtNtCsfVElPQFRzD4_9fastskill3cli8commands4init12execute_init0s7_0Bb_
FN:217,_RNCNCNvNtNtNtCsfVElPQFRzD4_9fastskill3cli8commands4init12execute_init0s8_0Bb_
FN:220,_RNCNCNvNtNtNtCsfVElPQFRzD4_9fastskill3cli8commands4init12execute_init0s9_0Bb_
FN:68,_RNCNCNvNtNtNtCsfVElPQFRzD4_9fastskill3cli8commands4init12execute_init0s_0Bb_
FN:224,_RNCNCNvNtNtNtCsfVElPQFRzD4_9fastskill3cli8commands4init12execute_init0sa_0Bb_
FN:46,_RNCNvNtNtNtCsfVElPQFRzD4_9fastskill3cli8commands4init12execute_init0B9_
FN:362,_RNCNvNtNtNtCsfVElPQFRzD4_9fastskill3cli8commands4init16prompt_for_field0B9_
FN:342,_RNCNvNtNtNtCsfVElPQFRzD4_9fastskill3cli8commands4init18prompt_for_version0B9_
FN:290,_RNCNvNtNtNtCsfVElPQFRzD4_9fastskill3cli8commands4init29extract_version_from_skill_md0B9_
FN:308,_RNCNvNtNtNtCsfVElPQFRzD4_9fastskill3cli8commands4init29extract_version_from_skill_mds_0B9_
FN:46,_RNvNtNtNtCs4etJKk8xmvn_9fastskill3cli8commands4init12execute_init
FN:347,_RNvNtNtNtCs4etJKk8xmvn_9fastskill3cli8commands4init16prompt_for_field
FN:327,_RNvNtNtNtCs4etJKk8xmvn_9fastskill3cli8commands4init18prompt_for_version
FN:248,_RNvNtNtNtCs4etJKk8xmvn_9fastskill3cli8commands4init29extract_version_from_skill_md
FN:67,_RNCNCNvNtNtNtCs4etJKk8xmvn_9fastskill3cli8commands4init12execute_init00Bb_
FN:93,_RNCNCNvNtNtNtCs4etJKk8xmvn_9fastskill3cli8commands4init12execute_init0s0_0Bb_
FN:98,_RNCNCNvNtNtNtCs4etJKk8xmvn_9fastskill3cli8commands4init12execute_init0s1_0Bb_
FN:150,_RNCNCNvNtNtNtCs4etJKk8xmvn_9fastskill3cli8commands4init12execute_init0s2_0Bb_
FN:153,_RNCNCNvNtNtNtCs4etJKk8xmvn_9fastskill3cli8commands4init12execute_init0s3_0Bb_
FN:154,_RNCNCNvNtNtNtCs4etJKk8xmvn_9fastskill3cli8commands4init12execute_init0s4_0Bb_
FN:160,_RNCNCNvNtNtNtCs4etJKk8xmvn_9fastskill3cli8commands4init12execute_init0s5_0Bb_
FN:184,_RNCNCNvNtNtNtCs4etJKk8xmvn_9fastskill3cli8commands4init12execute_init0s6_0Bb_
FN:195,_RNCNCNvNtNtNtCs4etJKk8xmvn_9fastskill3cli8commands4init12execute_init0s7_0Bb_
FN:217,_RNCNCNvNtNtNtCs4etJKk8xmvn_9fastskill3cli8commands4init12execute_init0s8_0Bb_
FN:220,_RNCNCNvNtNtNtCs4etJKk8xmvn_9fastskill3cli8commands4init12execute_init0s9_0Bb_
FN:68,_RNCNCNvNtNtNtCs4etJKk8xmvn_9fastskill3cli8commands4init12execute_init0s_0Bb_
FN:224,_RNCNCNvNtNtNtCs4etJKk8xmvn_9fastskill3cli8commands4init12execute_init0sa_0Bb_
FN:46,_RNCNvNtNtNtCs4etJKk8xmvn_9fastskill3cli8commands4init12execute_init0B9_
FN:362,_RNCNvNtNtNtCs4etJKk8xmvn_9fastskill3cli8commands4init16prompt_for_field0B9_
FN:342,_RNCNvNtNtNtCs4etJKk8xmvn_9fastskill3cli8commands4init18prompt_for_version0B9_
FN:290,_RNCNvNtNtNtCs4etJKk8xmvn_9fastskill3cli8commands4init29extract_version_from_skill_md0B9_
FN:308,_RNCNvNtNtNtCs4etJKk8xmvn_9fastskill3cli8commands4init29extract_version_from_skill_mds_0B9_
FNDA:1,_RNCNvNtNtNtNtCsfVElPQFRzD4_9fastskill3cli8commands4init5testss_31test_execute_init_with_all_args0Bb_
FNDA:1,_RNCNvNtNtNtNtCsfVElPQFRzD4_9fastskill3cli8commands4init5testss_33test_execute_init_with_invalid_id0Bb_
FNDA:1,_RNCNvNtNtNtNtCsfVElPQFRzD4_9fastskill3cli8commands4init5testss_38test_execute_init_with_invalid_version0Bb_
FNDA:3,_RNvNtNtNtCsfVElPQFRzD4_9fastskill3cli8commands4init12execute_init
FNDA:0,_RNvNtNtNtCsfVElPQFRzD4_9fastskill3cli8commands4init16prompt_for_field
FNDA:0,_RNvNtNtNtCsfVElPQFRzD4_9fastskill3cli8commands4init18prompt_for_version
FNDA:0,_RNvNtNtNtCsfVElPQFRzD4_9fastskill3cli8commands4init29extract_version_from_skill_md
FNDA:1,_RNvNtNtNtNtCsfVElPQFRzD4_9fastskill3cli8commands4init5testss_31test_execute_init_with_all_args
FNDA:1,_RNvNtNtNtNtCsfVElPQFRzD4_9fastskill3cli8commands4init5testss_33test_execute_init_with_invalid_id
FNDA:1,_RNvNtNtNtNtCsfVElPQFRzD4_9fastskill3cli8commands4init5testss_38test_execute_init_with_invalid_version
FNDA:0,_RNCNCNvNtNtNtCsfVElPQFRzD4_9fastskill3cli8commands4init12execute_init00Bb_
FNDA:1,_RNCNCNvNtNtNtCsfVElPQFRzD4_9fastskill3cli8commands4init12execute_init0s0_0Bb_
FNDA:0,_RNCNCNvNtNtNtCsfVElPQFRzD4_9fastskill3cli8commands4init12execute_init0s1_0Bb_
FNDA:0,_RNCNCNvNtNtNtCsfVElPQFRzD4_9fastskill3cli8commands4init12execute_init0s2_0Bb_
FNDA:2,_RNCNCNvNtNtNtCsfVElPQFRzD4_9fastskill3cli8commands4init12execute_init0s3_0Bb_
FNDA:0,_RNCNCNvNtNtNtCsfVElPQFRzD4_9fastskill3cli8commands4init12execute_init0s4_0Bb_
FNDA:2,_RNCNCNvNtNtNtCsfVElPQFRzD4_9fastskill3cli8commands4init12execute_init0s5_0Bb_
FNDA:0,_RNCNCNvNtNtNtCsfVElPQFRzD4_9fastskill3cli8commands4init12execute_init0s6_0Bb_
FNDA:0,_RNCNCNvNtNtNtCsfVElPQFRzD4_9fastskill3cli8commands4init12execute_init0s7_0Bb_
FNDA:0,_RNCNCNvNtNtNtCsfVElPQFRzD4_9fastskill3cli8commands4init12execute_init0s8_0Bb_
FNDA:0,_RNCNCNvNtNtNtCsfVElPQFRzD4_9fastskill3cli8commands4init12execute_init0s9_0Bb_
FNDA:0,_RNCNCNvNtNtNtCsfVElPQFRzD4_9fastskill3cli8commands4init12execute_init0s_0Bb_
FNDA:0,_RNCNCNvNtNtNtCsfVElPQFRzD4_9fastskill3cli8commands4init12execute_init0sa_0Bb_
FNDA:3,_RNCNvNtNtNtCsfVElPQFRzD4_9fastskill3cli8commands4init12execute_init0B9_
FNDA:0,_RNCNvNtNtNtCsfVElPQFRzD4_9fastskill3cli8commands4init16prompt_for_field0B9_
FNDA:0,_RNCNvNtNtNtCsfVElPQFRzD4_9fastskill3cli8commands4init18prompt_for_version0B9_
FNDA:0,_RNCNvNtNtNtCsfVElPQFRzD4_9fastskill3cli8commands4init29extract_version_from_skill_md0B9_
FNDA:0,_RNCNvNtNtNtCsfVElPQFRzD4_9fastskill3cli8commands4init29extract_version_from_skill_mds_0B9_
FNDA:0,_RNvNtNtNtCs4etJKk8xmvn_9fastskill3cli8commands4init12execute_init
FNDA:0,_RNvNtNtNtCs4etJKk8xmvn_9fastskill3cli8commands4init16prompt_for_field
FNDA:0,_RNvNtNtNtCs4etJKk8xmvn_9fastskill3cli8commands4init18prompt_for_version
FNDA:0,_RNvNtNtNtCs4etJKk8xmvn_9fastskill3cli8commands4init29extract_version_from_skill_md
FNDA:0,_RNCNCNvNtNtNtCs4etJKk8xmvn_9fastskill3cli8commands4init12execute_init00Bb_
FNDA:0,_RNCNCNvNtNtNtCs4etJKk8xmvn_9fastskill3cli8commands4init12execute_init0s0_0Bb_
FNDA:0,_RNCNCNvNtNtNtCs4etJKk8xmvn_9fastskill3cli8commands4init12execute_init0s1_0Bb_
FNDA:0,_RNCNCNvNtNtNtCs4etJKk8xmvn_9fastskill3cli8commands4init12execute_init0s2_0Bb_
FNDA:0,_RNCNCNvNtNtNtCs4etJKk8xmvn_9fastskill3cli8commands4init12execute_init0s3_0Bb_
FNDA:0,_RNCNCNvNtNtNtCs4etJKk8xmvn_9fastskill3cli8commands4init12execute_init0s4_0Bb_
FNDA:0,_RNCNCNvNtNtNtCs4etJKk8xmvn_9fastskill3cli8commands4init12execute_init0s5_0Bb_
FNDA:0,_RNCNCNvNtNtNtCs4etJKk8xmvn_9fastskill3cli8commands4init12execute_init0s6_0Bb_
FNDA:0,_RNCNCNvNtNtNtCs4etJKk8xmvn_9fastskill3cli8commands4init12execute_init0s7_0Bb_
FNDA:0,_RNCNCNvNtNtNtCs4etJKk8xmvn_9fastskill3cli8commands4init12execute_init0s8_0Bb_
FNDA:0,_RNCNCNvNtNtNtCs4etJKk8xmvn_9fastskill3cli8commands4init12execute_init0s9_0Bb_
FNDA:0,_RNCNCNvNtNtNtCs4etJKk8xmvn_9fastskill3cli8commands4init12execute_init0s_0Bb_
FNDA:0,_RNCNCNvNtNtNtCs4etJKk8xmvn_9fastskill3cli8commands4init12execute_init0sa_0Bb_
FNDA:0,_RNCNvNtNtNtCs4etJKk8xmvn_9fastskill3cli8commands4init12execute_init0B9_
FNDA:0,_RNCNvNtNtNtCs4etJKk8xmvn_9fastskill3cli8commands4init16prompt_for_field0B9_
FNDA:0,_RNCNvNtNtNtCs4etJKk8xmvn_9fastskill3cli8commands4init18prompt_for_version0B9_
FNDA:0,_RNCNvNtNtNtCs4etJKk8xmvn_9fastskill3cli8commands4init29extract_version_from_skill_md0B9_
FNDA:0,_RNCNvNtNtNtCs4etJKk8xmvn_9fastskill3cli8commands4init29extract_version_from_skill_mds_0B9_
FNF:28
FNH:11
DA:46,3
DA:47,3
DA:48,3
DA:51,3
DA:52,3
DA:53,0
DA:54,0
DA:55,0
DA:56,3
DA:59,3
DA:62,3
DA:65,3
DA:66,0
DA:67,0
DA:68,0
DA:69,0
DA:70,0
DA:71,0
DA:73,3
DA:74,3
DA:75,3
DA:76,3
DA:77,3
DA:78,3
DA:79,3
DA:80,3
DA:81,3
DA:82,3
DA:83,3
DA:84,3
DA:85,3
DA:86,3
DA:90,3
DA:92,3
DA:93,3
DA:94,2
DA:95,0
DA:96,0
DA:97,0
DA:98,0
DA:99,0
DA:101,0
DA:102,0
DA:103,0
DA:104,0
DA:106,0
DA:107,0
DA:110,0
DA:111,0
DA:113,0
DA:118,2
DA:119,1
DA:120,1
DA:121,0
DA:122,1
DA:123,0
DA:125,1
DA:129,2
DA:130,1
DA:131,1
DA:132,0
DA:133,1
DA:134,0
DA:136,1
DA:140,2
DA:141,1
DA:142,1
DA:143,0
DA:145,1
DA:149,2
DA:150,2
DA:151,2
DA:152,2
DA:153,2
DA:154,2
DA:155,0
DA:156,0
DA:159,2
DA:160,2
DA:161,0
DA:164,0
DA:167,0
DA:168,0
DA:169,0
DA:170,0
DA:171,0
DA:172,0
DA:173,0
DA:174,0
DA:177,0
DA:178,0
DA:179,0
DA:183,0
DA:184,0
DA:186,0
DA:187,0
DA:188,0
DA:189,0
DA:190,0
DA:193,0
DA:194,0
DA:195,0
DA:198,0
DA:199,0
DA:200,0
DA:201,0
DA:202,0
DA:203,0
DA:204,0
DA:205,0
DA:206,0
DA:207,0
DA:208,0
DA:209,0
DA:210,0
DA:211,0
DA:212,0
DA:213,0
DA:214,0
DA:216,0
DA:217,0
DA:218,0
DA:219,0
DA:220,0
DA:223,0
DA:224,0
DA:225,0
DA:226,0
DA:227,0
DA:228,0
DA:229,0
DA:231,0
DA:233,0
DA:234,0
DA:235,0
DA:236,0
DA:238,0
DA:239,0
DA:241,0
DA:243,0
DA:245,0
DA:246,3
DA:248,0
DA:250,0
DA:251,0
DA:252,0
DA:254,0
DA:256,0
DA:258,0
DA:260,0
DA:261,0
DA:262,0
DA:263,0
DA:264,0
DA:266,0
DA:267,0
DA:269,0
DA:272,0
DA:276,0
DA:279,0
DA:280,0
DA:281,0
DA:282,0
DA:283,0
DA:285,0
DA:286,0
DA:287,0
DA:288,0
DA:289,0
DA:290,0
DA:292,0
DA:294,0
DA:297,0
DA:300,0
DA:302,0
DA:303,0
DA:304,0
DA:305,0
DA:306,0
DA:307,0
DA:308,0
DA:309,0
DA:310,0
DA:311,0
DA:312,0
DA:313,0
DA:314,0
DA:316,0
DA:317,0
DA:320,0
DA:321,0
DA:322,0
DA:324,0
DA:325,0
DA:327,0
DA:328,0
DA:329,0
DA:330,0
DA:331,0
DA:333,0
DA:334,0
DA:335,0
DA:337,0
DA:338,0
DA:341,0
DA:342,0
DA:343,0
DA:345,0
DA:347,0
DA:348,0
DA:349,0
DA:351,0
DA:354,0
DA:355,0
DA:357,0
DA:358,0
DA:359,0
DA:361,0
DA:362,0
DA:364,0
DA:366,0
DA:382,1
DA:383,1
DA:384,1
DA:386,1
DA:387,1
DA:388,1
DA:389,1
DA:390,1
DA:391,1
DA:392,1
DA:393,1
DA:395,1
DA:397,1
DA:398,1
DA:399,1
DA:400,0
DA:401,0
DA:402,1
DA:403,1
DA:406,1
DA:407,1
DA:408,1
DA:410,1
DA:411,1
DA:412,1
DA:413,1
DA:414,1
DA:415,1
DA:416,1
DA:417,1
DA:419,1
DA:420,1
DA:421,1
DA:422,1
DA:423,1
DA:424,1
DA:425,1
DA:426,1
DA:429,1
DA:433,1
DA:434,1
DA:436,1
DA:437,1
DA:438,1
DA:439,1
DA:440,1
DA:441,1
DA:442,1
DA:443,1
DA:447,1
DA:449,1
DA:450,1
DA:451,0
DA:452,0
DA:453,1
DA:454,1
BRF:0
BRH:0
LF:315
LH:120
end_of_record
SF:/home/sysuser/ws001/gofastskill/fastskill/src/bin/../cli/commands/install.rs
FN:344,_RNvNtNtNtNtCsfVElPQFRzD4_9fastskill3cli8commands7install5testss_32test_execute_install_no_manifest
FN:432,_RNvNtNtNtNtCsfVElPQFRzD4_9fastskill3cli8commands7install5testss_40test_execute_install_with_empty_manifest
FN:389,_RNvNtNtNtNtCsfVElPQFRzD4_9fastskill3cli8commands7install5testss_45test_execute_install_with_lock_file_not_found
FN:344,_RNCNvNtNtNtNtCsfVElPQFRzD4_9fastskill3cli8commands7install5testss_32test_execute_install_no_manifest0Bb_
FN:432,_RNCNvNtNtNtNtCsfVElPQFRzD4_9fastskill3cli8commands7install5testss_40test_execute_install_with_empty_manifest0Bb_
FN:389,_RNCNvNtNtNtNtCsfVElPQFRzD4_9fastskill3cli8commands7install5testss_45test_execute_install_with_lock_file_not_found0Bb_
FN:146,_RNCNCNCNCNvNtNtNtCsfVElPQFRzD4_9fastskill3cli8commands7install15execute_install0s5_000Bf_
FN:155,_RNCNCNCNCNvNtNtNtCsfVElPQFRzD4_9fastskill3cli8commands7install15execute_install0s6_000Bf_
FN:146,_RNCNCNCNvNtNtNtCsfVElPQFRzD4_9fastskill3cli8commands7install15execute_install0s5_00Bd_
FN:155,_RNCNCNCNvNtNtNtCsfVElPQFRzD4_9fastskill3cli8commands7install15execute_install0s6_00Bd_
FN:44,_RNCNCNvNtNtNtCsfVElPQFRzD4_9fastskill3cli8commands7install15execute_install00Bb_
FN:101,_RNCNCNvNtNtNtCsfVElPQFRzD4_9fastskill3cli8commands7install15execute_install0s0_0Bb_
FN:107,_RNCNCNvNtNtNtCsfVElPQFRzD4_9fastskill3cli8commands7install15execute_install0s1_0Bb_
FN:124,_RNCNCNvNtNtNtCsfVElPQFRzD4_9fastskill3cli8commands7install15execute_install0s2_0Bb_
FN:128,_RNCNCNvNtNtNtCsfVElPQFRzD4_9fastskill3cli8commands7install15execute_install0s3_0Bb_
FN:135,_RNCNCNvNtNtNtCsfVElPQFRzD4_9fastskill3cli8commands7install15execute_install0s4_0Bb_
FN:142,_RNCNCNvNtNtNtCsfVElPQFRzD4_9fastskill3cli8commands7install15execute_install0s5_0Bb_
FN:151,_RNCNCNvNtNtNtCsfVElPQFRzD4_9fastskill3cli8commands7install15execute_install0s6_0Bb_
FN:175,_RNCNCNvNtNtNtCsfVElPQFRzD4_9fastskill3cli8commands7install15execute_install0s7_0Bb_
FN:205,_RNCNCNvNtNtNtCsfVElPQFRzD4_9fastskill3cli8commands7install15execute_install0s8_0Bb_
FN:78,_RNCNCNvNtNtNtCsfVElPQFRzD4_9fastskill3cli8commands7install15execute_install0s_0Bb_
FN:38,_RNCNvNtNtNtCsfVElPQFRzD4_9fastskill3cli8commands7install15execute_install0B9_
FN:231,_RNCNvNtNtNtCsfVElPQFRzD4_9fastskill3cli8commands7install40create_sources_manager_from_repositories0B9_
FN:324,_RNCNvNtNtNtCsfVElPQFRzD4_9fastskill3cli8commands7install40create_sources_manager_from_repositoriess0_0B9_
FN:262,_RNCNvNtNtNtCsfVElPQFRzD4_9fastskill3cli8commands7install40create_sources_manager_from_repositoriess_0B9_
FN:351,_RNvXNCNvNtNtNtNtCsfVElPQFRzD4_9fastskill3cli8commands7install5testss_32test_execute_install_no_manifest0NtB2_8DirGuardNtNtNtCsiJueO4bndGx_4core3ops4drop4Drop4drop
FN:446,_RNvXNCNvNtNtNtNtCsfVElPQFRzD4_9fastskill3cli8commands7install5testss_40test_execute_install_with_empty_manifest0NtB2_8DirGuardNtNtNtCsiJueO4bndGx_4core3ops4drop4Drop4drop
FN:396,_RNvXNCNvNtNtNtNtCsfVElPQFRzD4_9fastskill3cli8commands7install5testss_45test_execute_install_with_lock_file_not_found0NtB2_8DirGuardNtNtNtCsiJueO4bndGx_4core3ops4drop4Drop4drop
FN:38,_RNvNtNtNtCsfVElPQFRzD4_9fastskill3cli8commands7install15execute_install
FN:217,_RNvNtNtNtCsfVElPQFRzD4_9fastskill3cli8commands7install40create_sources_manager_from_repositories
FN:146,_RNCNCNCNCNvNtNtNtCs4etJKk8xmvn_9fastskill3cli8commands7install15execute_install0s5_000Bf_
FN:155,_RNCNCNCNCNvNtNtNtCs4etJKk8xmvn_9fastskill3cli8commands7install15execute_install0s6_000Bf_
FN:146,_RNCNCNCNvNtNtNtCs4etJKk8xmvn_9fastskill3cli8commands7install15execute_install0s5_00Bd_
FN:155,_RNCNCNCNvNtNtNtCs4etJKk8xmvn_9fastskill3cli8commands7install15execute_install0s6_00Bd_
FN:44,_RNCNCNvNtNtNtCs4etJKk8xmvn_9fastskill3cli8commands7install15execute_install00Bb_
FN:101,_RNCNCNvNtNtNtCs4etJKk8xmvn_9fastskill3cli8commands7install15execute_install0s0_0Bb_
FN:107,_RNCNCNvNtNtNtCs4etJKk8xmvn_9fastskill3cli8commands7install15execute_install0s1_0Bb_
FN:124,_RNCNCNvNtNtNtCs4etJKk8xmvn_9fastskill3cli8commands7install15execute_install0s2_0Bb_
FN:128,_RNCNCNvNtNtNtCs4etJKk8xmvn_9fastskill3cli8commands7install15execute_install0s3_0Bb_
FN:135,_RNCNCNvNtNtNtCs4etJKk8xmvn_9fastskill3cli8commands7install15execute_install0s4_0Bb_
FN:142,_RNCNCNvNtNtNtCs4etJKk8xmvn_9fastskill3cli8commands7install15execute_install0s5_0Bb_
FN:151,_RNCNCNvNtNtNtCs4etJKk8xmvn_9fastskill3cli8commands7install15execute_install0s6_0Bb_
FN:175,_RNCNCNvNtNtNtCs4etJKk8xmvn_9fastskill3cli8commands7install15execute_install0s7_0Bb_
FN:205,_RNCNCNvNtNtNtCs4etJKk8xmvn_9fastskill3cli8commands7install15execute_install0s8_0Bb_
FN:78,_RNCNCNvNtNtNtCs4etJKk8xmvn_9fastskill3cli8commands7install15execute_install0s_0Bb_
FN:38,_RNCNvNtNtNtCs4etJKk8xmvn_9fastskill3cli8commands7install15execute_install0B9_
FN:231,_RNCNvNtNtNtCs4etJKk8xmvn_9fastskill3cli8commands7install40create_sources_manager_from_repositories0B9_
FN:324,_RNCNvNtNtNtCs4etJKk8xmvn_9fastskill3cli8commands7install40create_sources_manager_from_repositoriess0_0B9_
FN:262,_RNCNvNtNtNtCs4etJKk8xmvn_9fastskill3cli8commands7install40create_sources_manager_from_repositoriess_0B9_
FN:38,_RNvNtNtNtCs4etJKk8xmvn_9fastskill3cli8commands7install15execute_install
FN:217,_RNvNtNtNtCs4etJKk8xmvn_9fastskill3cli8commands7install40create_sources_manager_from_repositories
FNDA:1,_RNvNtNtNtNtCsfVElPQFRzD4_9fastskill3cli8commands7install5testss_32test_execute_install_no_manifest
FNDA:1,_RNvNtNtNtNtCsfVElPQFRzD4_9fastskill3cli8commands7install5testss_40test_execute_install_with_empty_manifest
FNDA:1,_RNvNtNtNtNtCsfVElPQFRzD4_9fastskill3cli8commands7install5testss_45test_execute_install_with_lock_file_not_found
FNDA:1,_RNCNvNtNtNtNtCsfVElPQFRzD4_9fastskill3cli8commands7install5testss_32test_execute_install_no_manifest0Bb_
FNDA:1,_RNCNvNtNtNtNtCsfVElPQFRzD4_9fastskill3cli8commands7install5testss_40test_execute_install_with_empty_manifest0Bb_
FNDA:1,_RNCNvNtNtNtNtCsfVElPQFRzD4_9fastskill3cli8commands7install5testss_45test_execute_install_with_lock_file_not_found0Bb_
FNDA:0,_RNCNCNCNCNvNtNtNtCsfVElPQFRzD4_9fastskill3cli8commands7install15execute_install0s5_000Bf_
FNDA:0,_RNCNCNCNCNvNtNtNtCsfVElPQFRzD4_9fastskill3cli8commands7install15execute_install0s6_000Bf_
FNDA:0,_RNCNCNCNvNtNtNtCsfVElPQFRzD4_9fastskill3cli8commands7install15execute_install0s5_00Bd_
FNDA:0,_RNCNCNCNvNtNtNtCsfVElPQFRzD4_9fastskill3cli8commands7install15execute_install0s6_00Bd_
FNDA:0,_RNCNCNvNtNtNtCsfVElPQFRzD4_9fastskill3cli8commands7install15execute_install00Bb_
FNDA:0,_RNCNCNvNtNtNtCsfVElPQFRzD4_9fastskill3cli8commands7install15execute_install0s0_0Bb_
FNDA:0,_RNCNCNvNtNtNtCsfVElPQFRzD4_9fastskill3cli8commands7install15execute_install0s1_0Bb_
FNDA:0,_RNCNCNvNtNtNtCsfVElPQFRzD4_9fastskill3cli8commands7install15execute_install0s2_0Bb_
FNDA:0,_RNCNCNvNtNtNtCsfVElPQFRzD4_9fastskill3cli8commands7install15execute_install0s3_0Bb_
FNDA:0,_RNCNCNvNtNtNtCsfVElPQFRzD4_9fastskill3cli8commands7install15execute_install0s4_0Bb_
FNDA:0,_RNCNCNvNtNtNtCsfVElPQFRzD4_9fastskill3cli8commands7install15execute_install0s5_0Bb_
FNDA:0,_RNCNCNvNtNtNtCsfVElPQFRzD4_9fastskill3cli8commands7install15execute_install0s6_0Bb_
FNDA:0,_RNCNCNvNtNtNtCsfVElPQFRzD4_9fastskill3cli8commands7install15execute_install0s7_0Bb_
FNDA:0,_RNCNCNvNtNtNtCsfVElPQFRzD4_9fastskill3cli8commands7install15execute_install0s8_0Bb_
FNDA:0,_RNCNCNvNtNtNtCsfVElPQFRzD4_9fastskill3cli8commands7install15execute_install0s_0Bb_
FNDA:3,_RNCNvNtNtNtCsfVElPQFRzD4_9fastskill3cli8commands7install15execute_install0B9_
FNDA:0,_RNCNvNtNtNtCsfVElPQFRzD4_9fastskill3cli8commands7install40create_sources_manager_from_repositories0B9_
FNDA:0,_RNCNvNtNtNtCsfVElPQFRzD4_9fastskill3cli8commands7install40create_sources_manager_from_repositoriess0_0B9_
FNDA:0,_RNCNvNtNtNtCsfVElPQFRzD4_9fastskill3cli8commands7install40create_sources_manager_from_repositoriess_0B9_
FNDA:1,_RNvXNCNvNtNtNtNtCsfVElPQFRzD4_9fastskill3cli8commands7install5testss_32test_execute_install_no_manifest0NtB2_8DirGuardNtNtNtCsiJueO4bndGx_4core3ops4drop4Drop4drop
FNDA:1,_RNvXNCNvNtNtNtNtCsfVElPQFRzD4_9fastskill3cli8commands7install5testss_40test_execute_install_with_empty_manifest0NtB2_8DirGuardNtNtNtCsiJueO4bndGx_4core3ops4drop4Drop4drop
FNDA:1,_RNvXNCNvNtNtNtNtCsfVElPQFRzD4_9fastskill3cli8commands7install5testss_45test_execute_install_with_lock_file_not_found0NtB2_8DirGuardNtNtNtCsiJueO4bndGx_4core3ops4drop4Drop4drop
FNDA:3,_RNvNtNtNtCsfVElPQFRzD4_9fastskill3cli8commands7install15execute_install
FNDA:1,_RNvNtNtNtCsfVElPQFRzD4_9fastskill3cli8commands7install40create_sources_manager_from_repositories
FNDA:0,_RNCNCNCNCNvNtNtNtCs4etJKk8xmvn_9fastskill3cli8commands7install15execute_install0s5_000Bf_
FNDA:0,_RNCNCNCNCNvNtNtNtCs4etJKk8xmvn_9fastskill3cli8commands7install15execute_install0s6_000Bf_
FNDA:0,_RNCNCNCNvNtNtNtCs4etJKk8xmvn_9fastskill3cli8commands7install15execute_install0s5_00Bd_
FNDA:0,_RNCNCNCNvNtNtNtCs4etJKk8xmvn_9fastskill3cli8commands7install15execute_install0s6_00Bd_
FNDA:0,_RNCNCNvNtNtNtCs4etJKk8xmvn_9fastskill3cli8commands7install15execute_install00Bb_
FNDA:0,_RNCNCNvNtNtNtCs4etJKk8xmvn_9fastskill3cli8commands7install15execute_install0s0_0Bb_
FNDA:0,_RNCNCNvNtNtNtCs4etJKk8xmvn_9fastskill3cli8commands7install15execute_install0s1_0Bb_
FNDA:0,_RNCNCNvNtNtNtCs4etJKk8xmvn_9fastskill3cli8commands7install15execute_install0s2_0Bb_
FNDA:0,_RNCNCNvNtNtNtCs4etJKk8xmvn_9fastskill3cli8commands7install15execute_install0s3_0Bb_
FNDA:0,_RNCNCNvNtNtNtCs4etJKk8xmvn_9fastskill3cli8commands7install15execute_install0s4_0Bb_
FNDA:0,_RNCNCNvNtNtNtCs4etJKk8xmvn_9fastskill3cli8commands7install15execute_install0s5_0Bb_
FNDA:0,_RNCNCNvNtNtNtCs4etJKk8xmvn_9fastskill3cli8commands7install15execute_install0s6_0Bb_
FNDA:0,_RNCNCNvNtNtNtCs4etJKk8xmvn_9fastskill3cli8commands7install15execute_install0s7_0Bb_
FNDA:0,_RNCNCNvNtNtNtCs4etJKk8xmvn_9fastskill3cli8commands7install15execute_install0s8_0Bb_
FNDA:0,_RNCNCNvNtNtNtCs4etJKk8xmvn_9fastskill3cli8commands7install15execute_install0s_0Bb_
FNDA:0,_RNCNvNtNtNtCs4etJKk8xmvn_9fastskill3cli8commands7install15execute_install0B9_
FNDA:0,_RNCNvNtNtNtCs4etJKk8xmvn_9fastskill3cli8commands7install40create_sources_manager_from_repositories0B9_
FNDA:0,_RNCNvNtNtNtCs4etJKk8xmvn_9fastskill3cli8commands7install40create_sources_manager_from_repositoriess0_0B9_
FNDA:0,_RNCNvNtNtNtCs4etJKk8xmvn_9fastskill3cli8commands7install40create_sources_manager_from_repositoriess_0B9_
FNDA:0,_RNvNtNtNtCs4etJKk8xmvn_9fastskill3cli8commands7install15execute_install
FNDA:0,_RNvNtNtNtCs4etJKk8xmvn_9fastskill3cli8commands7install40create_sources_manager_from_repositories
FNF:30
FNH:12
DA:38,3
DA:39,3
DA:40,3
DA:43,3
DA:44,3
DA:45,3
DA:46,3
DA:49,3
DA:50,3
DA:52,0
DA:56,3
DA:57,1
DA:58,1
DA:59,1
DA:60,2
DA:63,2
DA:67,2
DA:68,2
DA:69,2
DA:70,2
DA:71,2
DA:75,2
DA:77,0
DA:78,0
DA:80,0
DA:81,0
DA:82,0
DA:83,0
DA:84,0
DA:85,0
DA:86,0
DA:87,0
DA:88,0
DA:91,0
DA:92,0
DA:95,2
DA:96,1
DA:100,1
DA:101,1
DA:104,1
DA:106,0
DA:107,0
DA:109,0
DA:113,0
DA:116,1
DA:117,1
DA:118,1
DA:119,1
DA:120,1
DA:121,0
DA:123,0
DA:124,0
DA:127,0
DA:128,0
DA:129,0
DA:130,0
DA:133,0
DA:134,0
DA:135,0
DA:138,0
DA:139,0
DA:141,0
DA:142,0
DA:143,0
DA:144,0
DA:145,0
DA:146,0
DA:147,0
DA:148,0
DA:150,0
DA:151,0
DA:152,0
DA:153,0
DA:154,0
DA:155,0
DA:156,0
DA:157,0
DA:158,0
DA:160,0
DA:163,0
DA:165,0
DA:166,0
DA:168,0
DA:170,0
DA:171,0
DA:174,0
DA:175,0
DA:178,0
DA:179,0
DA:180,0
DA:181,0
DA:182,0
DA:183,0
DA:184,0
DA:186,0
DA:188,0
DA:189,0
DA:190,0
DA:191,0
DA:192,0
DA:193,0
DA:194,0
DA:195,0
DA:196,0
DA:197,0
DA:198,0
DA:203,0
DA:204,0
DA:205,0
DA:208,0
DA:209,0
DA:210,0
DA:212,0
DA:213,3
DA:217,1
DA:218,1
DA:219,1
DA:222,1
DA:223,1
DA:225,1
DA:227,0
DA:229,0
DA:231,0
DA:232,0
DA:233,0
DA:234,0
DA:235,0
DA:237,0
DA:238,0
DA:241,0
DA:242,0
DA:243,0
DA:244,0
DA:245,0
DA:246,0
DA:247,0
DA:248,0
DA:250,0
DA:251,0
DA:252,0
DA:253,0
DA:254,0
DA:255,0
DA:257,0
DA:261,0
DA:262,0
DA:263,0
DA:264,0
DA:265,0
DA:266,0
DA:269,0
DA:270,0
DA:271,0
DA:272,0
DA:273,0
DA:274,0
DA:275,0
DA:276,0
DA:278,0
DA:279,0
DA:280,0
DA:281,0
DA:283,0
DA:287,0
DA:288,0
DA:290,0
DA:295,0
DA:299,0
DA:300,0
DA:301,0
DA:302,0
DA:303,0
DA:304,0
DA:305,0
DA:308,1
DA:309,1
DA:310,0
DA:313,0
DA:314,0
DA:317,0
DA:318,0
DA:319,0
DA:320,0
DA:321,0
DA:322,0
DA:324,0
DA:327,0
DA:328,1
DA:344,1
DA:345,1
DA:346,1
DA:351,1
DA:352,1
DA:353,1
DA:354,1
DA:355,1
DA:357,1
DA:359,1
DA:361,1
DA:362,1
DA:363,1
DA:364,1
DA:365,1
DA:367,1
DA:368,1
DA:369,1
DA:370,1
DA:371,1
DA:372,1
DA:373,1
DA:374,1
DA:375,1
DA:376,1
DA:377,1
DA:378,1
DA:379,1
DA:380,1
DA:381,1
DA:382,1
DA:383,1
DA:384,1
DA:385,1
DA:386,1
DA:389,1
DA:390,1
DA:391,1
DA:396,1
DA:397,1
DA:398,1
DA:399,1
DA:400,1
DA:402,1
DA:404,1
DA:407,1
DA:409,1
DA:410,1
DA:411,1
DA:412,1
DA:413,1
DA:415,1
DA:416,1
DA:417,1
DA:418,1
DA:419,1
DA:420,1
DA:421,1
DA:422,1
DA:423,1
DA:424,1
DA:425,1
DA:426,1
DA:427,1
DA:428,1
DA:429,1
DA:432,1
DA:437,1
DA:438,1
DA:441,1
DA:446,1
DA:447,1
DA:448,1
DA:449,1
DA:450,1
DA:452,1
DA:454,1
DA:457,1
DA:458,1
DA:459,1
DA:460,1
DA:462,1
DA:463,1
DA:464,1
DA:465,1
DA:466,1
DA:469,1
DA:471,1
DA:474,1
DA:475,1
BRF:0
BRH:0
LF:319
LH:142
end_of_record
SF:/home/sysuser/ws001/gofastskill/fastskill/src/bin/../cli/commands/list.rs
FN:153,_RNvNtNtNtCsfVElPQFRzD4_9fastskill3cli8commands4list14load_lock_file
FN:179,_RNvNtNtNtCsfVElPQFRzD4_9fastskill3cli8commands4list16format_list_grid
FN:128,_RNvNtNtNtCsfVElPQFRzD4_9fastskill3cli8commands4list17load_project_file
FN:105,_RNvNtNtNtCsfVElPQFRzD4_9fastskill3cli8commands4list17resolve_lock_file
FN:82,_RNvNtNtNtCsfVElPQFRzD4_9fastskill3cli8commands4list20resolve_project_file
FN:44,_RNCNCNvNtNtNtCsfVElPQFRzD4_9fastskill3cli8commands4list12execute_list00Bb_
FN:69,_RNCNCNvNtNtNtCsfVElPQFRzD4_9fastskill3cli8commands4list12execute_list0s_0Bb_
FN:31,_RNCNvNtNtNtCsfVElPQFRzD4_9fastskill3cli8commands4list12execute_list0B9_
FN:159,_RNCNvNtNtNtCsfVElPQFRzD4_9fastskill3cli8commands4list14load_lock_file0B9_
FN:167,_RNCNvNtNtNtCsfVElPQFRzD4_9fastskill3cli8commands4list14load_lock_files0_0B9_
FN:169,_RNCNvNtNtNtCsfVElPQFRzD4_9fastskill3cli8commands4list14load_lock_files1_0B9_
FN:162,_RNCNvNtNtNtCsfVElPQFRzD4_9fastskill3cli8commands4list14load_lock_files_0B9_
FN:213,_RNCNvNtNtNtCsfVElPQFRzD4_9fastskill3cli8commands4list16format_list_grid0B9_
FN:134,_RNCNvNtNtNtCsfVElPQFRzD4_9fastskill3cli8commands4list17load_project_file0B9_
FN:142,_RNCNvNtNtNtCsfVElPQFRzD4_9fastskill3cli8commands4list17load_project_files0_0B9_
FN:144,_RNCNvNtNtNtCsfVElPQFRzD4_9fastskill3cli8commands4list17load_project_files1_0B9_
FN:137,_RNCNvNtNtNtCsfVElPQFRzD4_9fastskill3cli8commands4list17load_project_files_0B9_
FN:123,_RNCNvNtNtNtCsfVElPQFRzD4_9fastskill3cli8commands4list17resolve_lock_file0B9_
FN:100,_RNCNvNtNtNtCsfVElPQFRzD4_9fastskill3cli8commands4list20resolve_project_file0B9_
FN:31,_RNvNtNtNtCsfVElPQFRzD4_9fastskill3cli8commands4list12execute_list
FN:44,_RNCNCNvNtNtNtCs4etJKk8xmvn_9fastskill3cli8commands4list12execute_list00Bb_
FN:69,_RNCNCNvNtNtNtCs4etJKk8xmvn_9fastskill3cli8commands4list12execute_list0s_0Bb_
FN:31,_RNCNvNtNtNtCs4etJKk8xmvn_9fastskill3cli8commands4list12execute_list0B9_
FN:159,_RNCNvNtNtNtCs4etJKk8xmvn_9fastskill3cli8commands4list14load_lock_file0B9_
FN:167,_RNCNvNtNtNtCs4etJKk8xmvn_9fastskill3cli8commands4list14load_lock_files0_0B9_
FN:169,_RNCNvNtNtNtCs4etJKk8xmvn_9fastskill3cli8commands4list14load_lock_files1_0B9_
FN:162,_RNCNvNtNtNtCs4etJKk8xmvn_9fastskill3cli8commands4list14load_lock_files_0B9_
FN:213,_RNCNvNtNtNtCs4etJKk8xmvn_9fastskill3cli8commands4list16format_list_grid0B9_
FN:134,_RNCNvNtNtNtCs4etJKk8xmvn_9fastskill3cli8commands4list17load_project_file0B9_
FN:142,_RNCNvNtNtNtCs4etJKk8xmvn_9fastskill3cli8commands4list17load_project_files0_0B9_
FN:144,_RNCNvNtNtNtCs4etJKk8xmvn_9fastskill3cli8commands4list17load_project_files1_0B9_
FN:137,_RNCNvNtNtNtCs4etJKk8xmvn_9fastskill3cli8commands4list17load_project_files_0B9_
FN:123,_RNCNvNtNtNtCs4etJKk8xmvn_9fastskill3cli8commands4list17resolve_lock_file0B9_
FN:100,_RNCNvNtNtNtCs4etJKk8xmvn_9fastskill3cli8commands4list20resolve_project_file0B9_
FN:31,_RNvNtNtNtCs4etJKk8xmvn_9fastskill3cli8commands4list12execute_list
FN:153,_RNvNtNtNtCs4etJKk8xmvn_9fastskill3cli8commands4list14load_lock_file
FN:179,_RNvNtNtNtCs4etJKk8xmvn_9fastskill3cli8commands4list16format_list_grid
FN:128,_RNvNtNtNtCs4etJKk8xmvn_9fastskill3cli8commands4list17load_project_file
FN:105,_RNvNtNtNtCs4etJKk8xmvn_9fastskill3cli8commands4list17resolve_lock_file
FN:82,_RNvNtNtNtCs4etJKk8xmvn_9fastskill3cli8commands4list20resolve_project_file
FNDA:0,_RNvNtNtNtCsfVElPQFRzD4_9fastskill3cli8commands4list14load_lock_file
FNDA:0,_RNvNtNtNtCsfVElPQFRzD4_9fastskill3cli8commands4list16format_list_grid
FNDA:0,_RNvNtNtNtCsfVElPQFRzD4_9fastskill3cli8commands4list17load_project_file
FNDA:0,_RNvNtNtNtCsfVElPQFRzD4_9fastskill3cli8commands4list17resolve_lock_file
FNDA:0,_RNvNtNtNtCsfVElPQFRzD4_9fastskill3cli8commands4list20resolve_project_file
FNDA:0,_RNCNCNvNtNtNtCsfVElPQFRzD4_9fastskill3cli8commands4list12execute_list00Bb_
FNDA:0,_RNCNCNvNtNtNtCsfVElPQFRzD4_9fastskill3cli8commands4list12execute_list0s_0Bb_
FNDA:0,_RNCNvNtNtNtCsfVElPQFRzD4_9fastskill3cli8commands4list12execute_list0B9_
FNDA:0,_RNCNvNtNtNtCsfVElPQFRzD4_9fastskill3cli8commands4list14load_lock_file0B9_
FNDA:0,_RNCNvNtNtNtCsfVElPQFRzD4_9fastskill3cli8commands4list14load_lock_files0_0B9_
FNDA:0,_RNCNvNtNtNtCsfVElPQFRzD4_9fastskill3cli8commands4list14load_lock_files1_0B9_
FNDA:0,_RNCNvNtNtNtCsfVElPQFRzD4_9fastskill3cli8commands4list14load_lock_files_0B9_
FNDA:0,_RNCNvNtNtNtCsfVElPQFRzD4_9fastskill3cli8commands4list16format_list_grid0B9_
FNDA:0,_RNCNvNtNtNtCsfVElPQFRzD4_9fastskill3cli8commands4list17load_project_file0B9_
FNDA:0,_RNCNvNtNtNtCsfVElPQFRzD4_9fastskill3cli8commands4list17load_project_files0_0B9_
FNDA:0,_RNCNvNtNtNtCsfVElPQFRzD4_9fastskill3cli8commands4list17load_project_files1_0B9_
FNDA:0,_RNCNvNtNtNtCsfVElPQFRzD4_9fastskill3cli8commands4list17load_project_files_0B9_
FNDA:0,_RNCNvNtNtNtCsfVElPQFRzD4_9fastskill3cli8commands4list17resolve_lock_file0B9_
FNDA:0,_RNCNvNtNtNtCsfVElPQFRzD4_9fastskill3cli8commands4list20resolve_project_file0B9_
FNDA:0,_RNvNtNtNtCsfVElPQFRzD4_9fastskill3cli8commands4list12execute_list
FNDA:0,_RNCNCNvNtNtNtCs4etJKk8xmvn_9fastskill3cli8commands4list12execute_list00Bb_
FNDA:0,_RNCNCNvNtNtNtCs4etJKk8xmvn_9fastskill3cli8commands4list12execute_list0s_0Bb_
FNDA:0,_RNCNvNtNtNtCs4etJKk8xmvn_9fastskill3cli8commands4list12execute_list0B9_
FNDA:0,_RNCNvNtNtNtCs4etJKk8xmvn_9fastskill3cli8commands4list14load_lock_file0B9_
FNDA:0,_RNCNvNtNtNtCs4etJKk8xmvn_9fastskill3cli8commands4list14load_lock_files0_0B9_
FNDA:0,_RNCNvNtNtNtCs4etJKk8xmvn_9fastskill3cli8commands4list14load_lock_files1_0B9_
FNDA:0,_RNCNvNtNtNtCs4etJKk8xmvn_9fastskill3cli8commands4list14load_lock_files_0B9_
FNDA:0,_RNCNvNtNtNtCs4etJKk8xmvn_9fastskill3cli8commands4list16format_list_grid0B9_
FNDA:0,_RNCNvNtNtNtCs4etJKk8xmvn_9fastskill3cli8commands4list17load_project_file0B9_
FNDA:0,_RNCNvNtNtNtCs4etJKk8xmvn_9fastskill3cli8commands4list17load_project_files0_0B9_
FNDA:0,_RNCNvNtNtNtCs4etJKk8xmvn_9fastskill3cli8commands4list17load_project_files1_0B9_
FNDA:0,_RNCNvNtNtNtCs4etJKk8xmvn_9fastskill3cli8commands4list17load_project_files_0B9_
FNDA:0,_RNCNvNtNtNtCs4etJKk8xmvn_9fastskill3cli8commands4list17resolve_lock_file0B9_
FNDA:0,_RNCNvNtNtNtCs4etJKk8xmvn_9fastskill3cli8commands4list20resolve_project_file0B9_
FNDA:0,_RNvNtNtNtCs4etJKk8xmvn_9fastskill3cli8commands4list12execute_list
FNDA:0,_RNvNtNtNtCs4etJKk8xmvn_9fastskill3cli8commands4list14load_lock_file
FNDA:0,_RNvNtNtNtCs4etJKk8xmvn_9fastskill3cli8commands4list16format_list_grid
FNDA:0,_RNvNtNtNtCs4etJKk8xmvn_9fastskill3cli8commands4list17load_project_file
FNDA:0,_RNvNtNtNtCs4etJKk8xmvn_9fastskill3cli8commands4list17resolve_lock_file
FNDA:0,_RNvNtNtNtCs4etJKk8xmvn_9fastskill3cli8commands4list20resolve_project_file
FNF:20
FNH:0
DA:31,0
DA:33,0
DA:34,0
DA:35,0
DA:36,0
DA:37,0
DA:39,0
DA:40,0
DA:43,0
DA:44,0
DA:45,0
DA:46,0
DA:47,0
DA:48,0
DA:49,0
DA:52,0
DA:53,0
DA:56,0
DA:57,0
DA:60,0
DA:61,0
DA:62,0
DA:65,0
DA:66,0
DA:67,0
DA:68,0
DA:69,0
DA:70,0
DA:72,0
DA:73,0
DA:75,0
DA:78,0
DA:79,0
DA:82,0
DA:84,0
DA:85,0
DA:86,0
DA:87,0
DA:88,0
DA:89,0
DA:92,0
DA:93,0
DA:94,0
DA:95,0
DA:98,0
DA:99,0
DA:100,0
DA:101,0
DA:102,0
DA:105,0
DA:107,0
DA:108,0
DA:109,0
DA:110,0
DA:111,0
DA:112,0
DA:115,0
DA:116,0
DA:117,0
DA:118,0
DA:121,0
DA:122,0
DA:123,0
DA:124,0
DA:125,0
DA:128,0
DA:129,0
DA:130,0
DA:131,0
DA:133,0
DA:134,0
DA:136,0
DA:137,0
DA:139,0
DA:142,0
DA:143,0
DA:144,0
DA:145,0
DA:147,0
DA:149,0
DA:150,0
DA:153,0
DA:154,0
DA:155,0
DA:156,0
DA:158,0
DA:159,0
DA:161,0
DA:162,0
DA:164,0
DA:167,0
DA:168,0
DA:169,0
DA:170,0
DA:171,0
DA:173,0
DA:175,0
DA:176,0
DA:179,0
DA:180,0
DA:181,0
DA:182,0
DA:183,0
DA:186,0
DA:187,0
DA:188,0
DA:190,0
DA:191,0
DA:194,0
DA:195,0
DA:196,0
DA:198,0
DA:199,0
DA:200,0
DA:201,0
DA:202,0
DA:203,0
DA:204,0
DA:205,0
DA:206,0
DA:207,0
DA:210,0
DA:211,0
DA:212,0
DA:213,0
DA:214,0
DA:215,0
DA:216,0
DA:219,0
DA:220,0
DA:221,0
DA:223,0
DA:226,0
DA:227,0
DA:229,0
DA:230,0
DA:231,0
DA:232,0
DA:233,0
DA:234,0
DA:235,0
DA:236,0
DA:238,0
DA:241,0
DA:242,0
DA:244,0
DA:246,0
DA:247,0
DA:248,0
DA:249,0
DA:252,0
DA:253,0
DA:255,0
DA:257,0
DA:258,0
DA:259,0
DA:260,0
DA:263,0
DA:264,0
DA:266,0
DA:268,0
DA:269,0
DA:270,0
DA:271,0
DA:272,0
DA:273,0
DA:274,0
DA:276,0
DA:277,0
DA:278,0
BRF:0
BRH:0
LF:185
LH:0
end_of_record
SF:/home/sysuser/ws001/gofastskill/fastskill/src/bin/../cli/commands/package.rs
FN:399,_RNCNvNtNtNtNtCsfVElPQFRzD4_9fastskill3cli8commands7package5testss_28test_execute_package_dry_run0Bb_
FN:375,_RNCNvNtNtNtNtCsfVElPQFRzD4_9fastskill3cli8commands7package5testss_37test_execute_package_empty_skills_dir0Bb_
FN:352,_RNCNvNtNtNtNtCsfVElPQFRzD4_9fastskill3cli8commands7package5testss_43test_execute_package_nonexistent_skills_dir0Bb_
FN:101,_RNCNCNvNtNtNtCsfVElPQFRzD4_9fastskill3cli8commands7package15execute_package00Bb_
FN:109,_RNCNCNvNtNtNtCsfVElPQFRzD4_9fastskill3cli8commands7package15execute_package0s0_0Bb_
FN:129,_RNCNCNvNtNtNtCsfVElPQFRzD4_9fastskill3cli8commands7package15execute_package0s1_0Bb_
FN:149,_RNCNCNvNtNtNtCsfVElPQFRzD4_9fastskill3cli8commands7package15execute_package0s2_0Bb_
FN:152,_RNCNCNvNtNtNtCsfVElPQFRzD4_9fastskill3cli8commands7package15execute_package0s3_0Bb_
FN:156,_RNCNCNvNtNtNtCsfVElPQFRzD4_9fastskill3cli8commands7package15execute_package0s4_0Bb_
FN:164,_RNCNCNvNtNtNtCsfVElPQFRzD4_9fastskill3cli8commands7package15execute_package0s5_0Bb_
FN:184,_RNCNCNvNtNtNtCsfVElPQFRzD4_9fastskill3cli8commands7package15execute_package0s6_0Bb_
FN:195,_RNCNCNvNtNtNtCsfVElPQFRzD4_9fastskill3cli8commands7package15execute_package0s7_0Bb_
FN:199,_RNCNCNvNtNtNtCsfVElPQFRzD4_9fastskill3cli8commands7package15execute_package0s8_0Bb_
FN:228,_RNCNCNvNtNtNtCsfVElPQFRzD4_9fastskill3cli8commands7package15execute_package0s9_0Bb_
FN:106,_RNCNCNvNtNtNtCsfVElPQFRzD4_9fastskill3cli8commands7package15execute_package0s_0Bb_
FN:286,_RNCNCNvNtNtNtCsfVElPQFRzD4_9fastskill3cli8commands7package24get_all_skills_recursive00Bb_
FN:332,_RNCNvNtNtNtCsfVElPQFRzD4_9fastskill3cli8commands7package14get_git_commit0B9_
FN:81,_RNCNvNtNtNtCsfVElPQFRzD4_9fastskill3cli8commands7package15execute_package0B9_
FN:259,_RNCNvNtNtNtCsfVElPQFRzD4_9fastskill3cli8commands7package22get_all_skills_shallow0B9_
FN:283,_RNCNvNtNtNtCsfVElPQFRzD4_9fastskill3cli8commands7package24get_all_skills_recursive0B9_
FN:306,_RNCNvNtNtNtCsfVElPQFRzD4_9fastskill3cli8commands7package24get_all_skills_recursives0_0B9_
FN:298,_RNCNvNtNtNtCsfVElPQFRzD4_9fastskill3cli8commands7package24get_all_skills_recursives_0B9_
FN:423,_RNvNtNtNtNtCsfVElPQFRzD4_9fastskill3cli8commands7package5testss_27test_get_all_skills_shallow
FN:399,_RNvNtNtNtNtCsfVElPQFRzD4_9fastskill3cli8commands7package5testss_28test_execute_package_dry_run
FN:450,_RNvNtNtNtNtCsfVElPQFRzD4_9fastskill3cli8commands7package5testss_29test_get_all_skills_recursive
FN:375,_RNvNtNtNtNtCsfVElPQFRzD4_9fastskill3cli8commands7package5testss_37test_execute_package_empty_skills_dir
FN:488,_RNvNtNtNtNtCsfVElPQFRzD4_9fastskill3cli8commands7package5testss_39test_get_all_skills_recursive_empty_dir
FN:352,_RNvNtNtNtNtCsfVElPQFRzD4_9fastskill3cli8commands7package5testss_43test_execute_package_nonexistent_skills_dir
FN:498,_RNvNtNtNtNtCsfVElPQFRzD4_9fastskill3cli8commands7package5testss_45test_get_all_skills_recursive_nonexistent_dir
FN:72,_RNvXNtNtNtCsfVElPQFRzD4_9fastskill3cli8commands7packageNtNtNtCs26lDL6qRPME_9fastskill4core12version_bump8BumpTypeINtNtCsiJueO4bndGx_4core7convert4FromNtB2_11BumpTypeArgE4from
FN:326,_RNvNtNtNtCsfVElPQFRzD4_9fastskill3cli8commands7package14get_git_commit
FN:81,_RNvNtNtNtCsfVElPQFRzD4_9fastskill3cli8commands7package15execute_package
FN:246,_RNvNtNtNtCsfVElPQFRzD4_9fastskill3cli8commands7package22get_all_skills_shallow
FN:270,_RNvNtNtNtCsfVElPQFRzD4_9fastskill3cli8commands7package24get_all_skills_recursive
FN:101,_RNCNCNvNtNtNtCs4etJKk8xmvn_9fastskill3cli8commands7package15execute_package00Bb_
FN:109,_RNCNCNvNtNtNtCs4etJKk8xmvn_9fastskill3cli8commands7package15execute_package0s0_0Bb_
FN:129,_RNCNCNvNtNtNtCs4etJKk8xmvn_9fastskill3cli8commands7package15execute_package0s1_0Bb_
FN:149,_RNCNCNvNtNtNtCs4etJKk8xmvn_9fastskill3cli8commands7package15execute_package0s2_0Bb_
FN:152,_RNCNCNvNtNtNtCs4etJKk8xmvn_9fastskill3cli8commands7package15execute_package0s3_0Bb_
FN:156,_RNCNCNvNtNtNtCs4etJKk8xmvn_9fastskill3cli8commands7package15execute_package0s4_0Bb_
FN:164,_RNCNCNvNtNtNtCs4etJKk8xmvn_9fastskill3cli8commands7package15execute_package0s5_0Bb_
FN:184,_RNCNCNvNtNtNtCs4etJKk8xmvn_9fastskill3cli8commands7package15execute_package0s6_0Bb_
FN:195,_RNCNCNvNtNtNtCs4etJKk8xmvn_9fastskill3cli8commands7package15execute_package0s7_0Bb_
FN:199,_RNCNCNvNtNtNtCs4etJKk8xmvn_9fastskill3cli8commands7package15execute_package0s8_0Bb_
FN:228,_RNCNCNvNtNtNtCs4etJKk8xmvn_9fastskill3cli8commands7package15execute_package0s9_0Bb_
FN:106,_RNCNCNvNtNtNtCs4etJKk8xmvn_9fastskill3cli8commands7package15execute_package0s_0Bb_
FN:286,_RNCNCNvNtNtNtCs4etJKk8xmvn_9fastskill3cli8commands7package24get_all_skills_recursive00Bb_
FN:332,_RNCNvNtNtNtCs4etJKk8xmvn_9fastskill3cli8commands7package14get_git_commit0B9_
FN:81,_RNCNvNtNtNtCs4etJKk8xmvn_9fastskill3cli8commands7package15execute_package0B9_
FN:259,_RNCNvNtNtNtCs4etJKk8xmvn_9fastskill3cli8commands7package22get_all_skills_shallow0B9_
FN:283,_RNCNvNtNtNtCs4etJKk8xmvn_9fastskill3cli8commands7package24get_all_skills_recursive0B9_
FN:306,_RNCNvNtNtNtCs4etJKk8xmvn_9fastskill3cli8commands7package24get_all_skills_recursives0_0B9_
FN:298,_RNCNvNtNtNtCs4etJKk8xmvn_9fastskill3cli8commands7package24get_all_skills_recursives_0B9_
FN:326,_RNvNtNtNtCs4etJKk8xmvn_9fastskill3cli8commands7package14get_git_commit
FN:81,_RNvNtNtNtCs4etJKk8xmvn_9fastskill3cli8commands7package15execute_package
FN:246,_RNvNtNtNtCs4etJKk8xmvn_9fastskill3cli8commands7package22get_all_skills_shallow
FN:270,_RNvNtNtNtCs4etJKk8xmvn_9fastskill3cli8commands7package24get_all_skills_recursive
FN:72,_RNvXNtNtNtCs4etJKk8xmvn_9fastskill3cli8commands7packageNtNtNtCs26lDL6qRPME_9fastskill4core12version_bump8BumpTypeINtNtCsiJueO4bndGx_4core7convert4FromNtB2_11BumpTypeArgE4from
FNDA:1,_RNCNvNtNtNtNtCsfVElPQFRzD4_9fastskill3cli8commands7package5testss_28test_execute_package_dry_run0Bb_
FNDA:1,_RNCNvNtNtNtNtCsfVElPQFRzD4_9fastskill3cli8commands7package5testss_37test_execute_package_empty_skills_dir0Bb_
FNDA:1,_RNCNvNtNtNtNtCsfVElPQFRzD4_9fastskill3cli8commands7package5testss_43test_execute_package_nonexistent_skills_dir0Bb_
FNDA:0,_RNCNCNvNtNtNtCsfVElPQFRzD4_9fastskill3cli8commands7package15execute_package00Bb_
FNDA:0,_RNCNCNvNtNtNtCsfVElPQFRzD4_9fastskill3cli8commands7package15execute_package0s0_0Bb_
FNDA:0,_RNCNCNvNtNtNtCsfVElPQFRzD4_9fastskill3cli8commands7package15execute_package0s1_0Bb_
FNDA:0,_RNCNCNvNtNtNtCsfVElPQFRzD4_9fastskill3cli8commands7package15execute_package0s2_0Bb_
FNDA:0,_RNCNCNvNtNtNtCsfVElPQFRzD4_9fastskill3cli8commands7package15execute_package0s3_0Bb_
FNDA:0,_RNCNCNvNtNtNtCsfVElPQFRzD4_9fastskill3cli8commands7package15execute_package0s4_0Bb_
FNDA:0,_RNCNCNvNtNtNtCsfVElPQFRzD4_9fastskill3cli8commands7package15execute_package0s5_0Bb_
FNDA:0,_RNCNCNvNtNtNtCsfVElPQFRzD4_9fastskill3cli8commands7package15execute_package0s6_0Bb_
FNDA:0,_RNCNCNvNtNtNtCsfVElPQFRzD4_9fastskill3cli8commands7package15execute_package0s7_0Bb_
FNDA:0,_RNCNCNvNtNtNtCsfVElPQFRzD4_9fastskill3cli8commands7package15execute_package0s8_0Bb_
FNDA:0,_RNCNCNvNtNtNtCsfVElPQFRzD4_9fastskill3cli8commands7package15execute_package0s9_0Bb_
FNDA:0,_RNCNCNvNtNtNtCsfVElPQFRzD4_9fastskill3cli8commands7package15execute_package0s_0Bb_
FNDA:0,_RNCNCNvNtNtNtCsfVElPQFRzD4_9fastskill3cli8commands7package24get_all_skills_recursive00Bb_
FNDA:0,_RNCNvNtNtNtCsfVElPQFRzD4_9fastskill3cli8commands7package14get_git_commit0B9_
FNDA:3,_RNCNvNtNtNtCsfVElPQFRzD4_9fastskill3cli8commands7package15execute_package0B9_
FNDA:3,_RNCNvNtNtNtCsfVElPQFRzD4_9fastskill3cli8commands7package22get_all_skills_shallow0B9_
FNDA:0,_RNCNvNtNtNtCsfVElPQFRzD4_9fastskill3cli8commands7package24get_all_skills_recursive0B9_
FNDA:7,_RNCNvNtNtNtCsfVElPQFRzD4_9fastskill3cli8commands7package24get_all_skills_recursives0_0B9_
FNDA:0,_RNCNvNtNtNtCsfVElPQFRzD4_9fastskill3cli8commands7package24get_all_skills_recursives_0B9_
FNDA:1,_RNvNtNtNtNtCsfVElPQFRzD4_9fastskill3cli8commands7package5testss_27test_get_all_skills_shallow
FNDA:1,_RNvNtNtNtNtCsfVElPQFRzD4_9fastskill3cli8commands7package5testss_28test_execute_package_dry_run
FNDA:1,_RNvNtNtNtNtCsfVElPQFRzD4_9fastskill3cli8commands7package5testss_29test_get_all_skills_recursive
FNDA:1,_RNvNtNtNtNtCsfVElPQFRzD4_9fastskill3cli8commands7package5testss_37test_execute_package_empty_skills_dir
FNDA:1,_RNvNtNtNtNtCsfVElPQFRzD4_9fastskill3cli8commands7package5testss_39test_get_all_skills_recursive_empty_dir
FNDA:1,_RNvNtNtNtNtCsfVElPQFRzD4_9fastskill3cli8commands7package5testss_43test_execute_package_nonexistent_skills_dir
FNDA:1,_RNvNtNtNtNtCsfVElPQFRzD4_9fastskill3cli8commands7package5testss_45test_get_all_skills_recursive_nonexistent_dir
FNDA:0,_RNvXNtNtNtCsfVElPQFRzD4_9fastskill3cli8commands7packageNtNtNtCs26lDL6qRPME_9fastskill4core12version_bump8BumpTypeINtNtCsiJueO4bndGx_4core7convert4FromNtB2_11BumpTypeArgE4from
FNDA:0,_RNvNtNtNtCsfVElPQFRzD4_9fastskill3cli8commands7package14get_git_commit
FNDA:3,_RNvNtNtNtCsfVElPQFRzD4_9fastskill3cli8commands7package15execute_package
FNDA:1,_RNvNtNtNtCsfVElPQFRzD4_9fastskill3cli8commands7package22get_all_skills_shallow
FNDA:3,_RNvNtNtNtCsfVElPQFRzD4_9fastskill3cli8commands7package24get_all_skills_recursive
FNDA:0,_RNCNCNvNtNtNtCs4etJKk8xmvn_9fastskill3cli8commands7package15execute_package00Bb_
FNDA:0,_RNCNCNvNtNtNtCs4etJKk8xmvn_9fastskill3cli8commands7package15execute_package0s0_0Bb_
FNDA:0,_RNCNCNvNtNtNtCs4etJKk8xmvn_9fastskill3cli8commands7package15execute_package0s1_0Bb_
FNDA:0,_RNCNCNvNtNtNtCs4etJKk8xmvn_9fastskill3cli8commands7package15execute_package0s2_0Bb_
FNDA:0,_RNCNCNvNtNtNtCs4etJKk8xmvn_9fastskill3cli8commands7package15execute_package0s3_0Bb_
FNDA:0,_RNCNCNvNtNtNtCs4etJKk8xmvn_9fastskill3cli8commands7package15execute_package0s4_0Bb_
FNDA:0,_RNCNCNvNtNtNtCs4etJKk8xmvn_9fastskill3cli8commands7package15execute_package0s5_0Bb_
FNDA:0,_RNCNCNvNtNtNtCs4etJKk8xmvn_9fastskill3cli8commands7package15execute_package0s6_0Bb_
FNDA:0,_RNCNCNvNtNtNtCs4etJKk8xmvn_9fastskill3cli8commands7package15execute_package0s7_0Bb_
FNDA:0,_RNCNCNvNtNtNtCs4etJKk8xmvn_9fastskill3cli8commands7package15execute_package0s8_0Bb_
FNDA:0,_RNCNCNvNtNtNtCs4etJKk8xmvn_9fastskill3cli8commands7package15execute_package0s9_0Bb_
FNDA:0,_RNCNCNvNtNtNtCs4etJKk8xmvn_9fastskill3cli8commands7package15execute_package0s_0Bb_
FNDA:0,_RNCNCNvNtNtNtCs4etJKk8xmvn_9fastskill3cli8commands7package24get_all_skills_recursive00Bb_
FNDA:0,_RNCNvNtNtNtCs4etJKk8xmvn_9fastskill3cli8commands7package14get_git_commit0B9_
FNDA:0,_RNCNvNtNtNtCs4etJKk8xmvn_9fastskill3cli8commands7package15execute_package0B9_
FNDA:0,_RNCNvNtNtNtCs4etJKk8xmvn_9fastskill3cli8commands7package22get_all_skills_shallow0B9_
FNDA:0,_RNCNvNtNtNtCs4etJKk8xmvn_9fastskill3cli8commands7package24get_all_skills_recursive0B9_
FNDA:0,_RNCNvNtNtNtCs4etJKk8xmvn_9fastskill3cli8commands7package24get_all_skills_recursives0_0B9_
FNDA:0,_RNCNvNtNtNtCs4etJKk8xmvn_9fastskill3cli8commands7package24get_all_skills_recursives_0B9_
FNDA:0,_RNvNtNtNtCs4etJKk8xmvn_9fastskill3cli8commands7package14get_git_commit
FNDA:0,_RNvNtNtNtCs4etJKk8xmvn_9fastskill3cli8commands7package15execute_package
FNDA:0,_RNvNtNtNtCs4etJKk8xmvn_9fastskill3cli8commands7package22get_all_skills_shallow
FNDA:0,_RNvNtNtNtCs4etJKk8xmvn_9fastskill3cli8commands7package24get_all_skills_recursive
FNDA:0,_RNvXNtNtNtCs4etJKk8xmvn_9fastskill3cli8commands7packageNtNtNtCs26lDL6qRPME_9fastskill4core12version_bump8BumpTypeINtNtCsiJueO4bndGx_4core7convert4FromNtB2_11BumpTypeArgE4from
FNF:34
FNH:16
DA:72,0
DA:73,0
DA:74,0
DA:75,0
DA:76,0
DA:78,0
DA:81,3
DA:82,3
DA:85,3
DA:86,1
DA:87,2
DA:89,0
DA:90,0
DA:92,0
DA:94,2
DA:95,0
DA:96,0
DA:97,0
DA:98,0
DA:99,0
DA:100,0
DA:101,0
DA:102,2
DA:104,0
DA:105,0
DA:106,0
DA:108,0
DA:109,0
DA:111,2
DA:112,2
DA:113,2
DA:116,1
DA:117,0
DA:118,0
DA:119,1
DA:121,1
DA:123,1
DA:127,1
DA:128,1
DA:129,1
DA:131,1
DA:133,1
DA:134,1
DA:136,1
DA:137,1
DA:139,1
DA:140,1
DA:141,1
DA:142,1
DA:144,1
DA:145,0
DA:148,0
DA:149,0
DA:150,0
DA:151,0
DA:152,0
DA:155,0
DA:156,0
DA:157,0
DA:158,0
DA:159,0
DA:160,0
DA:161,0
DA:164,0
DA:165,0
DA:166,0
DA:167,0
DA:168,0
DA:170,0
DA:173,0
DA:174,0
DA:178,0
DA:179,0
DA:182,0
DA:183,0
DA:184,0
DA:185,0
DA:186,0
DA:189,0
DA:190,0
DA:191,0
DA:192,0
DA:193,0
DA:195,0
DA:198,0
DA:199,0
DA:202,0
DA:205,0
DA:206,0
DA:207,0
DA:208,0
DA:209,0
DA:210,0
DA:213,0
DA:214,0
DA:216,0
DA:217,0
DA:218,0
DA:219,0
DA:220,0
DA:225,1
DA:226,0
DA:227,0
DA:228,0
DA:229,1
DA:231,1
DA:232,1
DA:234,1
DA:235,1
DA:236,1
DA:237,1
DA:239,1
DA:240,0
DA:241,0
DA:243,1
DA:244,3
DA:246,1
DA:247,1
DA:248,0
DA:249,1
DA:251,1
DA:252,1
DA:254,3
DA:255,3
DA:256,3
DA:258,3
DA:259,3
DA:260,3
DA:261,2
DA:262,2
DA:263,0
DA:264,0
DA:267,1
DA:268,1
DA:270,3
DA:271,3
DA:272,1
DA:273,2
DA:275,2
DA:276,2
DA:278,13
DA:279,2
DA:280,2
DA:281,2
DA:283,13
DA:285,0
DA:286,0
DA:288,0
DA:289,13
DA:292,13
DA:294,4
DA:295,4
DA:296,4
DA:297,4
DA:298,4
DA:299,0
DA:300,0
DA:301,0
DA:302,0
DA:303,0
DA:306,7
DA:307,7
DA:308,7
DA:310,0
DA:312,7
DA:313,4
DA:314,1
DA:315,3
DA:318,3
DA:319,3
DA:320,9
DA:323,2
DA:324,3
DA:326,0
DA:329,0
DA:330,0
DA:331,0
DA:332,0
DA:334,0
DA:335,0
DA:336,0
DA:337,0
DA:338,0
DA:340,0
DA:341,0
DA:342,0
DA:352,1
DA:353,1
DA:354,1
DA:356,1
DA:357,1
DA:358,1
DA:359,1
DA:360,1
DA:361,1
DA:362,1
DA:363,1
DA:364,1
DA:365,1
DA:366,1
DA:367,1
DA:369,1
DA:371,1
DA:372,1
DA:375,1
DA:376,1
DA:377,1
DA:378,1
DA:380,1
DA:381,1
DA:382,1
DA:383,1
DA:384,1
DA:385,1
DA:386,1
DA:387,1
DA:388,1
DA:389,1
DA:390,1
DA:391,1
DA:394,1
DA:395,1
DA:396,1
DA:399,1
DA:400,1
DA:401,1
DA:402,1
DA:404,1
DA:405,1
DA:406,1
DA:407,1
DA:408,1
DA:409,1
DA:410,1
DA:411,1
DA:412,1
DA:413,1
DA:414,1
DA:415,1
DA:418,1
DA:419,1
DA:420,1
DA:423,1
DA:424,1
DA:425,1
DA:426,1
DA:429,1
DA:430,1
DA:431,1
DA:433,1
DA:434,1
DA:435,1
DA:438,1
DA:439,1
DA:440,1
DA:442,1
DA:443,1
DA:444,1
DA:445,1
DA:446,1
DA:447,1
DA:450,1
DA:451,1
DA:452,1
DA:453,1
DA:456,1
DA:457,1
DA:458,1
DA:461,1
DA:462,1
DA:463,1
DA:465,1
DA:466,1
DA:467,1
DA:470,1
DA:471,1
DA:474,1
DA:475,1
DA:476,1
DA:478,1
DA:479,1
DA:480,1
DA:481,1
DA:482,1
DA:484,1
DA:485,1
DA:488,1
DA:489,1
DA:490,1
DA:491,1
DA:493,1
DA:494,1
DA:495,1
DA:498,1
DA:499,1
DA:500,1
DA:502,1
DA:503,1
DA:504,1
BRF:0
BRH:0
LF:329
LH:205
end_of_record
SF:/home/sysuser/ws001/gofastskill/fastskill/src/bin/../cli/commands/publish.rs
FN:431,_RNCNvNtNtNtNtCsfVElPQFRzD4_9fastskill3cli8commands7publish5testss_38test_execute_publish_invalid_file_type0Bb_
FN:407,_RNCNvNtNtNtNtCsfVElPQFRzD4_9fastskill3cli8commands7publish5testss_40test_execute_publish_empty_artifacts_dir0Bb_
FN:384,_RNCNvNtNtNtNtCsfVElPQFRzD4_9fastskill3cli8commands7publish5testss_42test_execute_publish_nonexistent_artifacts0Bb_
FN:431,_RNvNtNtNtNtCsfVElPQFRzD4_9fastskill3cli8commands7publish5testss_38test_execute_publish_invalid_file_type
FN:407,_RNvNtNtNtNtCsfVElPQFRzD4_9fastskill3cli8commands7publish5testss_40test_execute_publish_empty_artifacts_dir
FN:384,_RNvNtNtNtNtCsfVElPQFRzD4_9fastskill3cli8commands7publish5testss_42test_execute_publish_nonexistent_artifacts
FN:146,_RNvNtNtNtCsfVElPQFRzD4_9fastskill3cli8commands7publish14find_zip_files
FN:168,_RNvNtNtNtCsfVElPQFRzD4_9fastskill3cli8commands7publish14publish_to_api
FN:43,_RNvNtNtNtCsfVElPQFRzD4_9fastskill3cli8commands7publish15execute_publish
FN:121,_RNvNtNtNtCsfVElPQFRzD4_9fastskill3cli8commands7publish16collect_packages
FN:275,_RNvNtNtNtCsfVElPQFRzD4_9fastskill3cli8commands7publish23publish_to_local_folder
FN:335,_RNvNtNtNtCsfVElPQFRzD4_9fastskill3cli8commands7publish31extract_api_url_from_repository
FN:175,_RNCNCNvNtNtNtCsfVElPQFRzD4_9fastskill3cli8commands7publish14publish_to_api00Bb_
FN:194,_RNCNCNvNtNtNtCsfVElPQFRzD4_9fastskill3cli8commands7publish14publish_to_api0s0_0Bb_
FN:210,_RNCNCNvNtNtNtCsfVElPQFRzD4_9fastskill3cli8commands7publish14publish_to_api0s1_0Bb_
FN:185,_RNCNCNvNtNtNtCsfVElPQFRzD4_9fastskill3cli8commands7publish14publish_to_api0s_0Bb_
FN:59,_RNCNCNvNtNtNtCsfVElPQFRzD4_9fastskill3cli8commands7publish15execute_publish00Bb_
FN:72,_RNCNCNvNtNtNtCsfVElPQFRzD4_9fastskill3cli8commands7publish15execute_publish0s0_0Bb_
FN:105,_RNCNCNvNtNtNtCsfVElPQFRzD4_9fastskill3cli8commands7publish15execute_publish0s1_0Bb_
FN:71,_RNCNCNvNtNtNtCsfVElPQFRzD4_9fastskill3cli8commands7publish15execute_publish0s_0Bb_
FN:302,_RNCNCNvNtNtNtCsfVElPQFRzD4_9fastskill3cli8commands7publish23publish_to_local_folder00Bb_
FN:174,_RNCNvNtNtNtCsfVElPQFRzD4_9fastskill3cli8commands7publish14publish_to_api0B9_
FN:43,_RNCNvNtNtNtCsfVElPQFRzD4_9fastskill3cli8commands7publish15execute_publish0B9_
FN:131,_RNCNvNtNtNtCsfVElPQFRzD4_9fastskill3cli8commands7publish16collect_packages0B9_
FN:275,_RNCNvNtNtNtCsfVElPQFRzD4_9fastskill3cli8commands7publish23publish_to_local_folder0B9_
FN:175,_RNCNCNvNtNtNtCs4etJKk8xmvn_9fastskill3cli8commands7publish14publish_to_api00Bb_
FN:194,_RNCNCNvNtNtNtCs4etJKk8xmvn_9fastskill3cli8commands7publish14publish_to_api0s0_0Bb_
FN:210,_RNCNCNvNtNtNtCs4etJKk8xmvn_9fastskill3cli8commands7publish14publish_to_api0s1_0Bb_
FN:185,_RNCNCNvNtNtNtCs4etJKk8xmvn_9fastskill3cli8commands7publish14publish_to_api0s_0Bb_
FN:59,_RNCNCNvNtNtNtCs4etJKk8xmvn_9fastskill3cli8commands7publish15execute_publish00Bb_
FN:72,_RNCNCNvNtNtNtCs4etJKk8xmvn_9fastskill3cli8commands7publish15execute_publish0s0_0Bb_
FN:105,_RNCNCNvNtNtNtCs4etJKk8xmvn_9fastskill3cli8commands7publish15execute_publish0s1_0Bb_
FN:71,_RNCNCNvNtNtNtCs4etJKk8xmvn_9fastskill3cli8commands7publish15execute_publish0s_0Bb_
FN:302,_RNCNCNvNtNtNtCs4etJKk8xmvn_9fastskill3cli8commands7publish23publish_to_local_folder00Bb_
FN:174,_RNCNvNtNtNtCs4etJKk8xmvn_9fastskill3cli8commands7publish14publish_to_api0B9_
FN:43,_RNCNvNtNtNtCs4etJKk8xmvn_9fastskill3cli8commands7publish15execute_publish0B9_
FN:131,_RNCNvNtNtNtCs4etJKk8xmvn_9fastskill3cli8commands7publish16collect_packages0B9_
FN:275,_RNCNvNtNtNtCs4etJKk8xmvn_9fastskill3cli8commands7publish23publish_to_local_folder0B9_
FN:146,_RNvNtNtNtCs4etJKk8xmvn_9fastskill3cli8commands7publish14find_zip_files
FN:168,_RNvNtNtNtCs4etJKk8xmvn_9fastskill3cli8commands7publish14publish_to_api
FN:43,_RNvNtNtNtCs4etJKk8xmvn_9fastskill3cli8commands7publish15execute_publish
FN:121,_RNvNtNtNtCs4etJKk8xmvn_9fastskill3cli8commands7publish16collect_packages
FN:275,_RNvNtNtNtCs4etJKk8xmvn_9fastskill3cli8commands7publish23publish_to_local_folder
FN:335,_RNvNtNtNtCs4etJKk8xmvn_9fastskill3cli8commands7publish31extract_api_url_from_repository
FNDA:1,_RNCNvNtNtNtNtCsfVElPQFRzD4_9fastskill3cli8commands7publish5testss_38test_execute_publish_invalid_file_type0Bb_
FNDA:1,_RNCNvNtNtNtNtCsfVElPQFRzD4_9fastskill3cli8commands7publish5testss_40test_execute_publish_empty_artifacts_dir0Bb_
FNDA:1,_RNCNvNtNtNtNtCsfVElPQFRzD4_9fastskill3cli8commands7publish5testss_42test_execute_publish_nonexistent_artifacts0Bb_
FNDA:1,_RNvNtNtNtNtCsfVElPQFRzD4_9fastskill3cli8commands7publish5testss_38test_execute_publish_invalid_file_type
FNDA:1,_RNvNtNtNtNtCsfVElPQFRzD4_9fastskill3cli8commands7publish5testss_40test_execute_publish_empty_artifacts_dir
FNDA:1,_RNvNtNtNtNtCsfVElPQFRzD4_9fastskill3cli8commands7publish5testss_42test_execute_publish_nonexistent_artifacts
FNDA:1,_RNvNtNtNtCsfVElPQFRzD4_9fastskill3cli8commands7publish14find_zip_files
FNDA:0,_RNvNtNtNtCsfVElPQFRzD4_9fastskill3cli8commands7publish14publish_to_api
FNDA:3,_RNvNtNtNtCsfVElPQFRzD4_9fastskill3cli8commands7publish15execute_publish
FNDA:3,_RNvNtNtNtCsfVElPQFRzD4_9fastskill3cli8commands7publish16collect_packages
FNDA:0,_RNvNtNtNtCsfVElPQFRzD4_9fastskill3cli8commands7publish23publish_to_local_folder
FNDA:0,_RNvNtNtNtCsfVElPQFRzD4_9fastskill3cli8commands7publish31extract_api_url_from_repository
FNDA:0,_RNCNCNvNtNtNtCsfVElPQFRzD4_9fastskill3cli8commands7publish14publish_to_api00Bb_
FNDA:0,_RNCNCNvNtNtNtCsfVElPQFRzD4_9fastskill3cli8commands7publish14publish_to_api0s0_0Bb_
FNDA:0,_RNCNCNvNtNtNtCsfVElPQFRzD4_9fastskill3cli8commands7publish14publish_to_api0s1_0Bb_
FNDA:0,_RNCNCNvNtNtNtCsfVElPQFRzD4_9fastskill3cli8commands7publish14publish_to_api0s_0Bb_
FNDA:0,_RNCNCNvNtNtNtCsfVElPQFRzD4_9fastskill3cli8commands7publish15execute_publish00Bb_
FNDA:1,_RNCNCNvNtNtNtCsfVElPQFRzD4_9fastskill3cli8commands7publish15execute_publish0s0_0Bb_
FNDA:0,_RNCNCNvNtNtNtCsfVElPQFRzD4_9fastskill3cli8commands7publish15execute_publish0s1_0Bb_
FNDA:1,_RNCNCNvNtNtNtCsfVElPQFRzD4_9fastskill3cli8commands7publish15execute_publish0s_0Bb_
FNDA:0,_RNCNCNvNtNtNtCsfVElPQFRzD4_9fastskill3cli8commands7publish23publish_to_local_folder00Bb_
FNDA:0,_RNCNvNtNtNtCsfVElPQFRzD4_9fastskill3cli8commands7publish14publish_to_api0B9_
FNDA:3,_RNCNvNtNtNtCsfVElPQFRzD4_9fastskill3cli8commands7publish15execute_publish0B9_
FNDA:1,_RNCNvNtNtNtCsfVElPQFRzD4_9fastskill3cli8commands7publish16collect_packages0B9_
FNDA:0,_RNCNvNtNtNtCsfVElPQFRzD4_9fastskill3cli8commands7publish23publish_to_local_folder0B9_
FNDA:0,_RNCNCNvNtNtNtCs4etJKk8xmvn_9fastskill3cli8commands7publish14publish_to_api00Bb_
FNDA:0,_RNCNCNvNtNtNtCs4etJKk8xmvn_9fastskill3cli8commands7publish14publish_to_api0s0_0Bb_
FNDA:0,_RNCNCNvNtNtNtCs4etJKk8xmvn_9fastskill3cli8commands7publish14publish_to_api0s1_0Bb_
FNDA:0,_RNCNCNvNtNtNtCs4etJKk8xmvn_9fastskill3cli8commands7publish14publish_to_api0s_0Bb_
FNDA:0,_RNCNCNvNtNtNtCs4etJKk8xmvn_9fastskill3cli8commands7publish15execute_publish00Bb_
FNDA:0,_RNCNCNvNtNtNtCs4etJKk8xmvn_9fastskill3cli8commands7publish15execute_publish0s0_0Bb_
FNDA:0,_RNCNCNvNtNtNtCs4etJKk8xmvn_9fastskill3cli8commands7publish15execute_publish0s1_0Bb_
FNDA:0,_RNCNCNvNtNtNtCs4etJKk8xmvn_9fastskill3cli8commands7publish15execute_publish0s_0Bb_
FNDA:0,_RNCNCNvNtNtNtCs4etJKk8xmvn_9fastskill3cli8commands7publish23publish_to_local_folder00Bb_
FNDA:0,_RNCNvNtNtNtCs4etJKk8xmvn_9fastskill3cli8commands7publish14publish_to_api0B9_
FNDA:0,_RNCNvNtNtNtCs4etJKk8xmvn_9fastskill3cli8commands7publish15execute_publish0B9_
FNDA:0,_RNCNvNtNtNtCs4etJKk8xmvn_9fastskill3cli8commands7publish16collect_packages0B9_
FNDA:0,_RNCNvNtNtNtCs4etJKk8xmvn_9fastskill3cli8commands7publish23publish_to_local_folder0B9_
FNDA:0,_RNvNtNtNtCs4etJKk8xmvn_9fastskill3cli8commands7publish14find_zip_files
FNDA:0,_RNvNtNtNtCs4etJKk8xmvn_9fastskill3cli8commands7publish14publish_to_api
FNDA:0,_RNvNtNtNtCs4etJKk8xmvn_9fastskill3cli8commands7publish15execute_publish
FNDA:0,_RNvNtNtNtCs4etJKk8xmvn_9fastskill3cli8commands7publish16collect_packages
FNDA:0,_RNvNtNtNtCs4etJKk8xmvn_9fastskill3cli8commands7publish23publish_to_local_folder
FNDA:0,_RNvNtNtNtCs4etJKk8xmvn_9fastskill3cli8commands7publish31extract_api_url_from_repository
FNF:25
FNH:13
DA:43,3
DA:44,3
DA:47,3
DA:48,0
DA:49,0
DA:50,0
DA:51,3
DA:54,3
DA:56,0
DA:57,0
DA:59,0
DA:60,0
DA:61,0
DA:62,0
DA:63,0
DA:64,0
DA:67,0
DA:70,3
DA:71,3
DA:72,3
DA:76,3
DA:79,3
DA:81,1
DA:82,1
DA:83,1
DA:84,1
DA:85,1
DA:86,0
DA:88,0
DA:90,0
DA:94,0
DA:95,0
DA:97,0
DA:101,0
DA:103,0
DA:105,0
DA:106,0
DA:107,0
DA:108,0
DA:109,0
DA:110,0
DA:111,0
DA:114,0
DA:117,0
DA:118,3
DA:121,3
DA:122,3
DA:123,1
DA:124,1
DA:125,1
DA:126,1
DA:127,2
DA:129,2
DA:131,1
DA:132,0
DA:134,1
DA:135,1
DA:136,1
DA:137,1
DA:141,1
DA:143,3
DA:146,1
DA:147,1
DA:149,1
DA:151,1
DA:152,0
DA:153,0
DA:155,0
DA:156,0
DA:157,0
DA:158,0
DA:159,0
DA:160,0
DA:161,0
DA:164,1
DA:165,1
DA:168,0
DA:169,0
DA:170,0
DA:171,0
DA:172,0
DA:173,0
DA:174,0
DA:175,0
DA:177,0
DA:179,0
DA:182,0
DA:183,0
DA:184,0
DA:185,0
DA:186,0
DA:188,0
DA:190,0
DA:194,0
DA:195,0
DA:196,0
DA:198,0
DA:200,0
DA:201,0
DA:202,0
DA:203,0
DA:207,0
DA:208,0
DA:209,0
DA:210,0
DA:212,0
DA:214,0
DA:218,0
DA:219,0
DA:221,0
DA:222,0
DA:224,0
DA:225,0
DA:226,0
DA:227,0
DA:228,0
DA:229,0
DA:230,0
DA:231,0
DA:232,0
DA:233,0
DA:234,0
DA:235,0
DA:236,0
DA:237,0
DA:238,0
DA:239,0
DA:241,0
DA:242,0
DA:243,0
DA:244,0
DA:246,0
DA:247,0
DA:248,0
DA:249,0
DA:250,0
DA:252,0
DA:253,0
DA:255,0
DA:257,0
DA:260,0
DA:261,0
DA:262,0
DA:263,0
DA:264,0
DA:265,0
DA:266,0
DA:267,0
DA:268,0
DA:271,0
DA:272,0
DA:275,0
DA:276,0
DA:279,0
DA:280,0
DA:281,0
DA:283,0
DA:285,0
DA:287,0
DA:288,0
DA:289,0
DA:290,0
DA:291,0
DA:292,0
DA:294,0
DA:296,0
DA:299,0
DA:300,0
DA:301,0
DA:302,0
DA:303,0
DA:305,0
DA:307,0
DA:309,0
DA:310,0
DA:311,0
DA:312,0
DA:313,0
DA:317,0
DA:319,0
DA:322,0
DA:323,0
DA:325,0
DA:326,0
DA:327,0
DA:328,0
DA:331,0
DA:332,0
DA:335,0
DA:336,0
DA:339,0
DA:340,0
DA:341,0
DA:342,0
DA:343,0
DA:346,0
DA:347,0
DA:349,0
DA:350,0
DA:351,0
DA:356,0
DA:358,0
DA:359,0
DA:360,0
DA:363,0
DA:364,0
DA:365,0
DA:366,0
DA:367,0
DA:369,0
DA:370,0
DA:371,0
DA:372,0
DA:374,0
DA:384,1
DA:385,1
DA:386,1
DA:388,1
DA:389,1
DA:390,1
DA:391,1
DA:392,1
DA:393,1
DA:394,1
DA:395,1
DA:397,1
DA:398,1
DA:399,1
DA:400,1
DA:401,1
DA:402,1
DA:403,1
DA:404,1
DA:407,1
DA:408,1
DA:409,1
DA:410,1
DA:412,1
DA:413,1
DA:414,1
DA:415,1
DA:416,1
DA:417,1
DA:418,1
DA:419,1
DA:421,1
DA:422,1
DA:423,1
DA:424,1
DA:425,1
DA:426,1
DA:427,1
DA:428,1
DA:431,1
DA:432,1
DA:433,1
DA:434,1
DA:436,1
DA:437,1
DA:438,1
DA:439,1
DA:440,1
DA:441,1
DA:442,1
DA:443,1
DA:445,1
DA:446,1
DA:447,1
DA:448,1
DA:449,1
DA:450,1
DA:451,1
DA:452,1
BRF:0
BRH:0
LF:301
LH:109
end_of_record
SF:/home/sysuser/ws001/gofastskill/fastskill/src/bin/../cli/commands/read.rs
FN:20,_RNvNtNtNtCsfVElPQFRzD4_9fastskill3cli8commands4read12execute_read
FN:22,_RNCNCNvNtNtNtCsfVElPQFRzD4_9fastskill3cli8commands4read12execute_read00Bb_
FN:103,_RNCNCNvNtNtNtCsfVElPQFRzD4_9fastskill3cli8commands4read12execute_read0s0_0Bb_
FN:108,_RNCNCNvNtNtNtCsfVElPQFRzD4_9fastskill3cli8commands4read12execute_read0s1_0Bb_
FN:111,_RNCNCNvNtNtNtCsfVElPQFRzD4_9fastskill3cli8commands4read12execute_read0s2_0Bb_
FN:135,_RNCNCNvNtNtNtCsfVElPQFRzD4_9fastskill3cli8commands4read12execute_read0s3_0Bb_
FN:51,_RNCNCNvNtNtNtCsfVElPQFRzD4_9fastskill3cli8commands4read12execute_read0s_0Bb_
FN:20,_RNCNvNtNtNtCsfVElPQFRzD4_9fastskill3cli8commands4read12execute_read0B9_
FN:20,_RNvNtNtNtCs4etJKk8xmvn_9fastskill3cli8commands4read12execute_read
FN:22,_RNCNCNvNtNtNtCs4etJKk8xmvn_9fastskill3cli8commands4read12execute_read00Bb_
FN:103,_RNCNCNvNtNtNtCs4etJKk8xmvn_9fastskill3cli8commands4read12execute_read0s0_0Bb_
FN:108,_RNCNCNvNtNtNtCs4etJKk8xmvn_9fastskill3cli8commands4read12execute_read0s1_0Bb_
FN:111,_RNCNCNvNtNtNtCs4etJKk8xmvn_9fastskill3cli8commands4read12execute_read0s2_0Bb_
FN:135,_RNCNCNvNtNtNtCs4etJKk8xmvn_9fastskill3cli8commands4read12execute_read0s3_0Bb_
FN:51,_RNCNCNvNtNtNtCs4etJKk8xmvn_9fastskill3cli8commands4read12execute_read0s_0Bb_
FN:20,_RNCNvNtNtNtCs4etJKk8xmvn_9fastskill3cli8commands4read12execute_read0B9_
FNDA:0,_RNvNtNtNtCsfVElPQFRzD4_9fastskill3cli8commands4read12execute_read
FNDA:0,_RNCNCNvNtNtNtCsfVElPQFRzD4_9fastskill3cli8commands4read12execute_read00Bb_
FNDA:0,_RNCNCNvNtNtNtCsfVElPQFRzD4_9fastskill3cli8commands4read12execute_read0s0_0Bb_
FNDA:0,_RNCNCNvNtNtNtCsfVElPQFRzD4_9fastskill3cli8commands4read12execute_read0s1_0Bb_
FNDA:0,_RNCNCNvNtNtNtCsfVElPQFRzD4_9fastskill3cli8commands4read12execute_read0s2_0Bb_
FNDA:0,_RNCNCNvNtNtNtCsfVElPQFRzD4_9fastskill3cli8commands4read12execute_read0s3_0Bb_
FNDA:0,_RNCNCNvNtNtNtCsfVElPQFRzD4_9fastskill3cli8commands4read12execute_read0s_0Bb_
FNDA:0,_RNCNvNtNtNtCsfVElPQFRzD4_9fastskill3cli8commands4read12execute_read0B9_
FNDA:0,_RNvNtNtNtCs4etJKk8xmvn_9fastskill3cli8commands4read12execute_read
FNDA:0,_RNCNCNvNtNtNtCs4etJKk8xmvn_9fastskill3cli8commands4read12execute_read00Bb_
FNDA:0,_RNCNCNvNtNtNtCs4etJKk8xmvn_9fastskill3cli8commands4read12execute_read0s0_0Bb_
FNDA:0,_RNCNCNvNtNtNtCs4etJKk8xmvn_9fastskill3cli8commands4read12execute_read0s1_0Bb_
FNDA:0,_RNCNCNvNtNtNtCs4etJKk8xmvn_9fastskill3cli8commands4read12execute_read0s2_0Bb_
FNDA:0,_RNCNCNvNtNtNtCs4etJKk8xmvn_9fastskill3cli8commands4read12execute_read0s3_0Bb_
FNDA:0,_RNCNCNvNtNtNtCs4etJKk8xmvn_9fastskill3cli8commands4read12execute_read0s_0Bb_
FNDA:0,_RNCNvNtNtNtCs4etJKk8xmvn_9fastskill3cli8commands4read12execute_read0B9_
FNF:8
FNH:0
DA:20,0
DA:22,0
DA:23,0
DA:24,0
DA:25,0
DA:26,0
DA:27,0
DA:28,0
DA:29,0
DA:30,0
DA:34,0
DA:35,0
DA:36,0
DA:37,0
DA:38,0
DA:40,0
DA:43,0
DA:44,0
DA:45,0
DA:46,0
DA:47,0
DA:49,0
DA:50,0
DA:51,0
DA:52,0
DA:53,0
DA:54,0
DA:55,0
DA:56,0
DA:57,0
DA:60,0
DA:61,0
DA:62,0
DA:63,0
DA:64,0
DA:65,0
DA:66,0
DA:67,0
DA:68,0
DA:69,0
DA:70,0
DA:71,0
DA:72,0
DA:73,0
DA:74,0
DA:77,0
DA:79,0
DA:80,0
DA:81,0
DA:82,0
DA:83,0
DA:84,0
DA:85,0
DA:86,0
DA:87,0
DA:88,0
DA:89,0
DA:90,0
DA:91,0
DA:92,0
DA:95,0
DA:100,0
DA:101,0
DA:102,0
DA:103,0
DA:106,0
DA:107,0
DA:108,0
DA:111,0
DA:112,0
DA:113,0
DA:114,0
DA:117,0
DA:118,0
DA:122,0
DA:123,0
DA:124,0
DA:125,0
DA:126,0
DA:127,0
DA:128,0
DA:129,0
DA:130,0
DA:131,0
DA:132,0
DA:135,0
DA:136,0
DA:137,0
DA:138,0
DA:139,0
DA:140,0
DA:141,0
DA:142,0
DA:143,0
DA:144,0
DA:145,0
DA:146,0
DA:147,0
DA:149,0
DA:150,0
DA:154,0
DA:155,0
DA:156,0
DA:157,0
DA:158,0
DA:159,0
DA:160,0
DA:161,0
DA:162,0
DA:164,0
DA:165,0
BRF:0
BRH:0
LF:121
LH:0
end_of_record
SF:/home/sysuser/ws001/gofastskill/fastskill/src/bin/../cli/commands/registry/formatters.rs
FN:71,_RNvNtNtNtNtCsfVElPQFRzD4_9fastskill3cli8commands8registry10formatters18format_grid_output
FN:62,_RNvNtNtNtNtCsfVElPQFRzD4_9fastskill3cli8commands8registry10formatters19repo_type_to_string
FN:6,_RNvNtNtNtNtCsfVElPQFRzD4_9fastskill3cli8commands8registry10formatters22format_repository_list
FN:22,_RNvNtNtNtNtCsfVElPQFRzD4_9fastskill3cli8commands8registry10formatters25format_repository_details
FN:104,_RNCNvNtNtNtNtCsfVElPQFRzD4_9fastskill3cli8commands8registry10formatters18format_grid_output0Bb_
FN:119,_RNCNvNtNtNtNtCsfVElPQFRzD4_9fastskill3cli8commands8registry10formatters18format_grid_outputs0_0Bb_
FN:118,_RNCNvNtNtNtNtCsfVElPQFRzD4_9fastskill3cli8commands8registry10formatters18format_grid_outputs_0Bb_
FN:71,_RNvNtNtNtNtCs4etJKk8xmvn_9fastskill3cli8commands8registry10formatters18format_grid_output
FN:62,_RNvNtNtNtNtCs4etJKk8xmvn_9fastskill3cli8commands8registry10formatters19repo_type_to_string
FN:6,_RNvNtNtNtNtCs4etJKk8xmvn_9fastskill3cli8commands8registry10formatters22format_repository_list
FN:22,_RNvNtNtNtNtCs4etJKk8xmvn_9fastskill3cli8commands8registry10formatters25format_repository_details
FN:104,_RNCNvNtNtNtNtCs4etJKk8xmvn_9fastskill3cli8commands8registry10formatters18format_grid_output0Bb_
FN:119,_RNCNvNtNtNtNtCs4etJKk8xmvn_9fastskill3cli8commands8registry10formatters18format_grid_outputs0_0Bb_
FN:118,_RNCNvNtNtNtNtCs4etJKk8xmvn_9fastskill3cli8commands8registry10formatters18format_grid_outputs_0Bb_
FNDA:0,_RNvNtNtNtNtCsfVElPQFRzD4_9fastskill3cli8commands8registry10formatters18format_grid_output
FNDA:0,_RNvNtNtNtNtCsfVElPQFRzD4_9fastskill3cli8commands8registry10formatters19repo_type_to_string
FNDA:0,_RNvNtNtNtNtCsfVElPQFRzD4_9fastskill3cli8commands8registry10formatters22format_repository_list
FNDA:0,_RNvNtNtNtNtCsfVElPQFRzD4_9fastskill3cli8commands8registry10formatters25format_repository_details
FNDA:0,_RNCNvNtNtNtNtCsfVElPQFRzD4_9fastskill3cli8commands8registry10formatters18format_grid_output0Bb_
FNDA:0,_RNCNvNtNtNtNtCsfVElPQFRzD4_9fastskill3cli8commands8registry10formatters18format_grid_outputs0_0Bb_
FNDA:0,_RNCNvNtNtNtNtCsfVElPQFRzD4_9fastskill3cli8commands8registry10formatters18format_grid_outputs_0Bb_
FNDA:0,_RNvNtNtNtNtCs4etJKk8xmvn_9fastskill3cli8commands8registry10formatters18format_grid_output
FNDA:0,_RNvNtNtNtNtCs4etJKk8xmvn_9fastskill3cli8commands8registry10formatters19repo_type_to_string
FNDA:0,_RNvNtNtNtNtCs4etJKk8xmvn_9fastskill3cli8commands8registry10formatters22format_repository_list
FNDA:0,_RNvNtNtNtNtCs4etJKk8xmvn_9fastskill3cli8commands8registry10formatters25format_repository_details
FNDA:0,_RNCNvNtNtNtNtCs4etJKk8xmvn_9fastskill3cli8commands8registry10formatters18format_grid_output0Bb_
FNDA:0,_RNCNvNtNtNtNtCs4etJKk8xmvn_9fastskill3cli8commands8registry10formatters18format_grid_outputs0_0Bb_
FNDA:0,_RNCNvNtNtNtNtCs4etJKk8xmvn_9fastskill3cli8commands8registry10formatters18format_grid_outputs_0Bb_
FNF:7
FNH:0
DA:6,0
DA:7,0
DA:8,0
DA:10,0
DA:11,0
DA:12,0
DA:13,0
DA:14,0
DA:15,0
DA:16,0
DA:17,0
DA:18,0
DA:20,0
DA:22,0
DA:23,0
DA:24,0
DA:26,0
DA:27,0
DA:28,0
DA:30,0
DA:31,0
DA:32,0
DA:33,0
DA:34,0
DA:35,0
DA:36,0
DA:37,0
DA:38,0
DA:40,0
DA:41,0
DA:42,0
DA:43,0
DA:44,0
DA:45,0
DA:46,0
DA:47,0
DA:48,0
DA:51,0
DA:52,0
DA:53,0
DA:55,0
DA:56,0
DA:57,0
DA:59,0
DA:60,0
DA:62,0
DA:63,0
DA:64,0
DA:65,0
DA:66,0
DA:67,0
DA:69,0
DA:71,0
DA:72,0
DA:73,0
DA:74,0
DA:75,0
DA:76,0
DA:78,0
DA:80,0
DA:81,0
DA:82,0
DA:83,0
DA:87,0
DA:88,0
DA:89,0
DA:90,0
DA:92,0
DA:93,0
DA:94,0
DA:95,0
DA:96,0
DA:97,0
DA:98,0
DA:99,0
DA:101,0
DA:102,0
DA:103,0
DA:104,0
DA:105,0
DA:106,0
DA:107,0
DA:109,0
DA:110,0
DA:111,0
DA:113,0
DA:116,0
DA:117,0
DA:118,0
DA:119,0
DA:121,0
DA:122,0
DA:123,0
DA:124,0
DA:125,0
DA:126,0
DA:127,0
DA:128,0
DA:131,0
DA:132,0
DA:133,0
BRF:0
BRH:0
LF:104
LH:0
end_of_record
SF:/home/sysuser/ws001/gofastskill/fastskill/src/bin/../cli/commands/registry/helpers.rs
FN:7,_RNvNtNtNtNtCsfVElPQFRzD4_9fastskill3cli8commands8registry7helpers17load_repo_manager
FN:67,_RNvNtNtNtNtCsfVElPQFRzD4_9fastskill3cli8commands8registry7helpers20parse_authentication
FN:30,_RNvNtNtNtNtCsfVElPQFRzD4_9fastskill3cli8commands8registry7helpers21parse_repository_type
FN:12,_RNvNtNtNtNtCsfVElPQFRzD4_9fastskill3cli8commands8registry7helpers23resolve_repository_name
FN:43,_RNvNtNtNtNtCsfVElPQFRzD4_9fastskill3cli8commands8registry7helpers24create_repository_config
FN:7,_RNCNvNtNtNtNtCsfVElPQFRzD4_9fastskill3cli8commands8registry7helpers17load_repo_manager0Bb_
FN:76,_RNCNvNtNtNtNtCsfVElPQFRzD4_9fastskill3cli8commands8registry7helpers20parse_authentication0Bb_
FN:92,_RNCNvNtNtNtNtCsfVElPQFRzD4_9fastskill3cli8commands8registry7helpers20parse_authentications0_0Bb_
FN:97,_RNCNvNtNtNtNtCsfVElPQFRzD4_9fastskill3cli8commands8registry7helpers20parse_authentications1_0Bb_
FN:106,_RNCNvNtNtNtNtCsfVElPQFRzD4_9fastskill3cli8commands8registry7helpers20parse_authentications2_0Bb_
FN:82,_RNCNvNtNtNtNtCsfVElPQFRzD4_9fastskill3cli8commands8registry7helpers20parse_authentications_0Bb_
FN:21,_RNCNvNtNtNtNtCsfVElPQFRzD4_9fastskill3cli8commands8registry7helpers23resolve_repository_name0Bb_
FN:22,_RNCNvNtNtNtNtCsfVElPQFRzD4_9fastskill3cli8commands8registry7helpers23resolve_repository_names_0Bb_
FN:7,_RNvNtNtNtNtCs4etJKk8xmvn_9fastskill3cli8commands8registry7helpers17load_repo_manager
FN:67,_RNvNtNtNtNtCs4etJKk8xmvn_9fastskill3cli8commands8registry7helpers20parse_authentication
FN:30,_RNvNtNtNtNtCs4etJKk8xmvn_9fastskill3cli8commands8registry7helpers21parse_repository_type
FN:12,_RNvNtNtNtNtCs4etJKk8xmvn_9fastskill3cli8commands8registry7helpers23resolve_repository_name
FN:43,_RNvNtNtNtNtCs4etJKk8xmvn_9fastskill3cli8commands8registry7helpers24create_repository_config
FN:7,_RNCNvNtNtNtNtCs4etJKk8xmvn_9fastskill3cli8commands8registry7helpers17load_repo_manager0Bb_
FN:76,_RNCNvNtNtNtNtCs4etJKk8xmvn_9fastskill3cli8commands8registry7helpers20parse_authentication0Bb_
FN:92,_RNCNvNtNtNtNtCs4etJKk8xmvn_9fastskill3cli8commands8registry7helpers20parse_authentications0_0Bb_
FN:97,_RNCNvNtNtNtNtCs4etJKk8xmvn_9fastskill3cli8commands8registry7helpers20parse_authentications1_0Bb_
FN:106,_RNCNvNtNtNtNtCs4etJKk8xmvn_9fastskill3cli8commands8registry7helpers20parse_authentications2_0Bb_
FN:82,_RNCNvNtNtNtNtCs4etJKk8xmvn_9fastskill3cli8commands8registry7helpers20parse_authentications_0Bb_
FN:21,_RNCNvNtNtNtNtCs4etJKk8xmvn_9fastskill3cli8commands8registry7helpers23resolve_repository_name0Bb_
FN:22,_RNCNvNtNtNtNtCs4etJKk8xmvn_9fastskill3cli8commands8registry7helpers23resolve_repository_names_0Bb_
FNDA:1,_RNvNtNtNtNtCsfVElPQFRzD4_9fastskill3cli8commands8registry7helpers17load_repo_manager
FNDA:0,_RNvNtNtNtNtCsfVElPQFRzD4_9fastskill3cli8commands8registry7helpers20parse_authentication
FNDA:0,_RNvNtNtNtNtCsfVElPQFRzD4_9fastskill3cli8commands8registry7helpers21parse_repository_type
FNDA:0,_RNvNtNtNtNtCsfVElPQFRzD4_9fastskill3cli8commands8registry7helpers23resolve_repository_name
FNDA:0,_RNvNtNtNtNtCsfVElPQFRzD4_9fastskill3cli8commands8registry7helpers24create_repository_config
FNDA:1,_RNCNvNtNtNtNtCsfVElPQFRzD4_9fastskill3cli8commands8registry7helpers17load_repo_manager0Bb_
FNDA:0,_RNCNvNtNtNtNtCsfVElPQFRzD4_9fastskill3cli8commands8registry7helpers20parse_authentication0Bb_
FNDA:0,_RNCNvNtNtNtNtCsfVElPQFRzD4_9fastskill3cli8commands8registry7helpers20parse_authentications0_0Bb_
FNDA:0,_RNCNvNtNtNtNtCsfVElPQFRzD4_9fastskill3cli8commands8registry7helpers20parse_authentications1_0Bb_
FNDA:0,_RNCNvNtNtNtNtCsfVElPQFRzD4_9fastskill3cli8commands8registry7helpers20parse_authentications2_0Bb_
FNDA:0,_RNCNvNtNtNtNtCsfVElPQFRzD4_9fastskill3cli8commands8registry7helpers20parse_authentications_0Bb_
FNDA:0,_RNCNvNtNtNtNtCsfVElPQFRzD4_9fastskill3cli8commands8registry7helpers23resolve_repository_name0Bb_
FNDA:0,_RNCNvNtNtNtNtCsfVElPQFRzD4_9fastskill3cli8commands8registry7helpers23resolve_repository_names_0Bb_
FNDA:0,_RNvNtNtNtNtCs4etJKk8xmvn_9fastskill3cli8commands8registry7helpers17load_repo_manager
FNDA:0,_RNvNtNtNtNtCs4etJKk8xmvn_9fastskill3cli8commands8registry7helpers20parse_authentication
FNDA:0,_RNvNtNtNtNtCs4etJKk8xmvn_9fastskill3cli8commands8registry7helpers21parse_repository_type
FNDA:0,_RNvNtNtNtNtCs4etJKk8xmvn_9fastskill3cli8commands8registry7helpers23resolve_repository_name
FNDA:0,_RNvNtNtNtNtCs4etJKk8xmvn_9fastskill3cli8commands8registry7helpers24create_repository_config
FNDA:0,_RNCNvNtNtNtNtCs4etJKk8xmvn_9fastskill3cli8commands8registry7helpers17load_repo_manager0Bb_
FNDA:0,_RNCNvNtNtNtNtCs4etJKk8xmvn_9fastskill3cli8commands8registry7helpers20parse_authentication0Bb_
FNDA:0,_RNCNvNtNtNtNtCs4etJKk8xmvn_9fastskill3cli8commands8registry7helpers20parse_authentications0_0Bb_
FNDA:0,_RNCNvNtNtNtNtCs4etJKk8xmvn_9fastskill3cli8commands8registry7helpers20parse_authentications1_0Bb_
FNDA:0,_RNCNvNtNtNtNtCs4etJKk8xmvn_9fastskill3cli8commands8registry7helpers20parse_authentications2_0Bb_
FNDA:0,_RNCNvNtNtNtNtCs4etJKk8xmvn_9fastskill3cli8commands8registry7helpers20parse_authentications_0Bb_
FNDA:0,_RNCNvNtNtNtNtCs4etJKk8xmvn_9fastskill3cli8commands8registry7helpers23resolve_repository_name0Bb_
FNDA:0,_RNCNvNtNtNtNtCs4etJKk8xmvn_9fastskill3cli8commands8registry7helpers23resolve_repository_names_0Bb_
FNF:13
FNH:2
DA:7,1
DA:8,1
DA:9,1
DA:10,1
DA:12,0
DA:13,0
DA:14,0
DA:15,0
DA:16,0
DA:17,0
DA:19,0
DA:20,0
DA:21,0
DA:22,0
DA:23,0
DA:24,0
DA:25,0
DA:26,0
DA:28,0
DA:30,0
DA:31,0
DA:32,0
DA:33,0
DA:34,0
DA:35,0
DA:36,0
DA:37,0
DA:38,0
DA:39,0
DA:41,0
DA:43,0
DA:44,0
DA:45,0
DA:46,0
DA:47,0
DA:48,0
DA:49,0
DA:50,0
DA:51,0
DA:52,0
DA:53,0
DA:54,0
DA:55,0
DA:56,0
DA:57,0
DA:58,0
DA:59,0
DA:60,0
DA:61,0
DA:62,0
DA:63,0
DA:65,0
DA:67,0
DA:68,0
DA:69,0
DA:70,0
DA:71,0
DA:72,0
DA:73,0
DA:74,0
DA:75,0
DA:76,0
DA:77,0
DA:78,0
DA:79,0
DA:81,0
DA:82,0
DA:83,0
DA:84,0
DA:85,0
DA:86,0
DA:88,0
DA:91,0
DA:92,0
DA:93,0
DA:94,0
DA:95,0
DA:96,0
DA:97,0
DA:98,0
DA:99,0
DA:100,0
DA:101,0
DA:102,0
DA:103,0
DA:105,0
DA:106,0
DA:107,0
DA:108,0
DA:109,0
DA:111,0
DA:112,0
DA:113,0
DA:114,0
DA:117,0
DA:119,0
BRF:0
BRH:0
LF:109
LH:5
end_of_record
SF:/home/sysuser/ws001/gofastskill/fastskill/src/bin/../cli/commands/registry/marketplace.rs
FN:50,_RNCNCNCNCNvNtNtNtNtCsfVElPQFRzD4_9fastskill3cli8commands8registry11marketplace14execute_create0s0_000Bh_
FN:50,_RNCNCNCNvNtNtNtNtCsfVElPQFRzD4_9fastskill3cli8commands8registry11marketplace14execute_create0s0_00Bf_
FN:27,_RNCNCNvNtNtNtNtCsfVElPQFRzD4_9fastskill3cli8commands8registry11marketplace14execute_create00Bd_
FN:47,_RNCNCNvNtNtNtNtCsfVElPQFRzD4_9fastskill3cli8commands8registry11marketplace14execute_create0s0_0Bd_
FN:52,_RNCNCNvNtNtNtNtCsfVElPQFRzD4_9fastskill3cli8commands8registry11marketplace14execute_create0s1_0Bd_
FN:61,_RNCNCNvNtNtNtNtCsfVElPQFRzD4_9fastskill3cli8commands8registry11marketplace14execute_create0s2_0Bd_
FN:76,_RNCNCNvNtNtNtNtCsfVElPQFRzD4_9fastskill3cli8commands8registry11marketplace14execute_create0s3_0Bd_
FN:93,_RNCNCNvNtNtNtNtCsfVElPQFRzD4_9fastskill3cli8commands8registry11marketplace14execute_create0s4_0Bd_
FN:98,_RNCNCNvNtNtNtNtCsfVElPQFRzD4_9fastskill3cli8commands8registry11marketplace14execute_create0s5_0Bd_
FN:104,_RNCNCNvNtNtNtNtCsfVElPQFRzD4_9fastskill3cli8commands8registry11marketplace14execute_create0s6_0Bd_
FN:44,_RNCNCNvNtNtNtNtCsfVElPQFRzD4_9fastskill3cli8commands8registry11marketplace14execute_create0s_0Bd_
FN:207,_RNCNCNvNtNtNtNtCsfVElPQFRzD4_9fastskill3cli8commands8registry11marketplace22extract_skill_metadatas5_00Bd_
FN:24,_RNCNvNtNtNtNtCsfVElPQFRzD4_9fastskill3cli8commands8registry11marketplace14execute_create0Bb_
FN:172,_RNCNvNtNtNtNtCsfVElPQFRzD4_9fastskill3cli8commands8registry11marketplace22extract_skill_metadata0Bb_
FN:180,_RNCNvNtNtNtNtCsfVElPQFRzD4_9fastskill3cli8commands8registry11marketplace22extract_skill_metadatas0_0Bb_
FN:188,_RNCNvNtNtNtNtCsfVElPQFRzD4_9fastskill3cli8commands8registry11marketplace22extract_skill_metadatas1_0Bb_
FN:199,_RNCNvNtNtNtNtCsfVElPQFRzD4_9fastskill3cli8commands8registry11marketplace22extract_skill_metadatas2_0Bb_
FN:200,_RNCNvNtNtNtNtCsfVElPQFRzD4_9fastskill3cli8commands8registry11marketplace22extract_skill_metadatas3_0Bb_
FN:201,_RNCNvNtNtNtNtCsfVElPQFRzD4_9fastskill3cli8commands8registry11marketplace22extract_skill_metadatas4_0Bb_
FN:207,_RNCNvNtNtNtNtCsfVElPQFRzD4_9fastskill3cli8commands8registry11marketplace22extract_skill_metadatas5_0Bb_
FN:209,_RNCNvNtNtNtNtCsfVElPQFRzD4_9fastskill3cli8commands8registry11marketplace22extract_skill_metadatas6_0Bb_
FN:214,_RNCNvNtNtNtNtCsfVElPQFRzD4_9fastskill3cli8commands8registry11marketplace22extract_skill_metadatas7_0Bb_
FN:215,_RNCNvNtNtNtNtCsfVElPQFRzD4_9fastskill3cli8commands8registry11marketplace22extract_skill_metadatas8_0Bb_
FN:217,_RNCNvNtNtNtNtCsfVElPQFRzD4_9fastskill3cli8commands8registry11marketplace22extract_skill_metadatas9_0Bb_
FN:174,_RNCNvNtNtNtNtCsfVElPQFRzD4_9fastskill3cli8commands8registry11marketplace22extract_skill_metadatas_0Bb_
FN:123,_RNCNvNtNtNtNtCsfVElPQFRzD4_9fastskill3cli8commands8registry11marketplace25scan_directory_for_skills0Bb_
FN:129,_RNCNvNtNtNtNtCsfVElPQFRzD4_9fastskill3cli8commands8registry11marketplace25scan_directory_for_skillss0_0Bb_
FN:124,_RNCNvNtNtNtNtCsfVElPQFRzD4_9fastskill3cli8commands8registry11marketplace25scan_directory_for_skillss_0Bb_
FN:15,_RNvNtNtNtNtCsfVElPQFRzD4_9fastskill3cli8commands8registry11marketplace14execute_create
FN:150,_RNvNtNtNtNtCsfVElPQFRzD4_9fastskill3cli8commands8registry11marketplace22extract_skill_metadata
FN:118,_RNvNtNtNtNtCsfVElPQFRzD4_9fastskill3cli8commands8registry11marketplace25scan_directory_for_skills
FN:50,_RNCNCNCNCNvNtNtNtNtCs4etJKk8xmvn_9fastskill3cli8commands8registry11marketplace14execute_create0s0_000Bh_
FN:50,_RNCNCNCNvNtNtNtNtCs4etJKk8xmvn_9fastskill3cli8commands8registry11marketplace14execute_create0s0_00Bf_
FN:27,_RNCNCNvNtNtNtNtCs4etJKk8xmvn_9fastskill3cli8commands8registry11marketplace14execute_create00Bd_
FN:47,_RNCNCNvNtNtNtNtCs4etJKk8xmvn_9fastskill3cli8commands8registry11marketplace14execute_create0s0_0Bd_
FN:52,_RNCNCNvNtNtNtNtCs4etJKk8xmvn_9fastskill3cli8commands8registry11marketplace14execute_create0s1_0Bd_
FN:61,_RNCNCNvNtNtNtNtCs4etJKk8xmvn_9fastskill3cli8commands8registry11marketplace14execute_create0s2_0Bd_
FN:76,_RNCNCNvNtNtNtNtCs4etJKk8xmvn_9fastskill3cli8commands8registry11marketplace14execute_create0s3_0Bd_
FN:93,_RNCNCNvNtNtNtNtCs4etJKk8xmvn_9fastskill3cli8commands8registry11marketplace14execute_create0s4_0Bd_
FN:98,_RNCNCNvNtNtNtNtCs4etJKk8xmvn_9fastskill3cli8commands8registry11marketplace14execute_create0s5_0Bd_
FN:104,_RNCNCNvNtNtNtNtCs4etJKk8xmvn_9fastskill3cli8commands8registry11marketplace14execute_create0s6_0Bd_
FN:44,_RNCNCNvNtNtNtNtCs4etJKk8xmvn_9fastskill3cli8commands8registry11marketplace14execute_create0s_0Bd_
FN:207,_RNCNCNvNtNtNtNtCs4etJKk8xmvn_9fastskill3cli8commands8registry11marketplace22extract_skill_metadatas5_00Bd_
FN:24,_RNCNvNtNtNtNtCs4etJKk8xmvn_9fastskill3cli8commands8registry11marketplace14execute_create0Bb_
FN:172,_RNCNvNtNtNtNtCs4etJKk8xmvn_9fastskill3cli8commands8registry11marketplace22extract_skill_metadata0Bb_
FN:180,_RNCNvNtNtNtNtCs4etJKk8xmvn_9fastskill3cli8commands8registry11marketplace22extract_skill_metadatas0_0Bb_
FN:188,_RNCNvNtNtNtNtCs4etJKk8xmvn_9fastskill3cli8commands8registry11marketplace22extract_skill_metadatas1_0Bb_
FN:199,_RNCNvNtNtNtNtCs4etJKk8xmvn_9fastskill3cli8commands8registry11marketplace22extract_skill_metadatas2_0Bb_
FN:200,_RNCNvNtNtNtNtCs4etJKk8xmvn_9fastskill3cli8commands8registry11marketplace22extract_skill_metadatas3_0Bb_
FN:201,_RNCNvNtNtNtNtCs4etJKk8xmvn_9fastskill3cli8commands8registry11marketplace22extract_skill_metadatas4_0Bb_
FN:207,_RNCNvNtNtNtNtCs4etJKk8xmvn_9fastskill3cli8commands8registry11marketplace22extract_skill_metadatas5_0Bb_
FN:209,_RNCNvNtNtNtNtCs4etJKk8xmvn_9fastskill3cli8commands8registry11marketplace22extract_skill_metadatas6_0Bb_
FN:214,_RNCNvNtNtNtNtCs4etJKk8xmvn_9fastskill3cli8commands8registry11marketplace22extract_skill_metadatas7_0Bb_
FN:215,_RNCNvNtNtNtNtCs4etJKk8xmvn_9fastskill3cli8commands8registry11marketplace22extract_skill_metadatas8_0Bb_
FN:217,_RNCNvNtNtNtNtCs4etJKk8xmvn_9fastskill3cli8commands8registry11marketplace22extract_skill_metadatas9_0Bb_
FN:174,_RNCNvNtNtNtNtCs4etJKk8xmvn_9fastskill3cli8commands8registry11marketplace22extract_skill_metadatas_0Bb_
FN:123,_RNCNvNtNtNtNtCs4etJKk8xmvn_9fastskill3cli8commands8registry11marketplace25scan_directory_for_skills0Bb_
FN:129,_RNCNvNtNtNtNtCs4etJKk8xmvn_9fastskill3cli8commands8registry11marketplace25scan_directory_for_skillss0_0Bb_
FN:124,_RNCNvNtNtNtNtCs4etJKk8xmvn_9fastskill3cli8commands8registry11marketplace25scan_directory_for_skillss_0Bb_
FN:15,_RNvNtNtNtNtCs4etJKk8xmvn_9fastskill3cli8commands8registry11marketplace14execute_create
FN:150,_RNvNtNtNtNtCs4etJKk8xmvn_9fastskill3cli8commands8registry11marketplace22extract_skill_metadata
FN:118,_RNvNtNtNtNtCs4etJKk8xmvn_9fastskill3cli8commands8registry11marketplace25scan_directory_for_skills
FNDA:0,_RNCNCNCNCNvNtNtNtNtCsfVElPQFRzD4_9fastskill3cli8commands8registry11marketplace14execute_create0s0_000Bh_
FNDA:0,_RNCNCNCNvNtNtNtNtCsfVElPQFRzD4_9fastskill3cli8commands8registry11marketplace14execute_create0s0_00Bf_
FNDA:0,_RNCNCNvNtNtNtNtCsfVElPQFRzD4_9fastskill3cli8commands8registry11marketplace14execute_create00Bd_
FNDA:0,_RNCNCNvNtNtNtNtCsfVElPQFRzD4_9fastskill3cli8commands8registry11marketplace14execute_create0s0_0Bd_
FNDA:0,_RNCNCNvNtNtNtNtCsfVElPQFRzD4_9fastskill3cli8commands8registry11marketplace14execute_create0s1_0Bd_
FNDA:0,_RNCNCNvNtNtNtNtCsfVElPQFRzD4_9fastskill3cli8commands8registry11marketplace14execute_create0s2_0Bd_
FNDA:0,_RNCNCNvNtNtNtNtCsfVElPQFRzD4_9fastskill3cli8commands8registry11marketplace14execute_create0s3_0Bd_
FNDA:0,_RNCNCNvNtNtNtNtCsfVElPQFRzD4_9fastskill3cli8commands8registry11marketplace14execute_create0s4_0Bd_
FNDA:0,_RNCNCNvNtNtNtNtCsfVElPQFRzD4_9fastskill3cli8commands8registry11marketplace14execute_create0s5_0Bd_
FNDA:0,_RNCNCNvNtNtNtNtCsfVElPQFRzD4_9fastskill3cli8commands8registry11marketplace14execute_create0s6_0Bd_
FNDA:0,_RNCNCNvNtNtNtNtCsfVElPQFRzD4_9fastskill3cli8commands8registry11marketplace14execute_create0s_0Bd_
FNDA:0,_RNCNCNvNtNtNtNtCsfVElPQFRzD4_9fastskill3cli8commands8registry11marketplace22extract_skill_metadatas5_00Bd_
FNDA:0,_RNCNvNtNtNtNtCsfVElPQFRzD4_9fastskill3cli8commands8registry11marketplace14execute_create0Bb_
FNDA:0,_RNCNvNtNtNtNtCsfVElPQFRzD4_9fastskill3cli8commands8registry11marketplace22extract_skill_metadata0Bb_
FNDA:0,_RNCNvNtNtNtNtCsfVElPQFRzD4_9fastskill3cli8commands8registry11marketplace22extract_skill_metadatas0_0Bb_
FNDA:0,_RNCNvNtNtNtNtCsfVElPQFRzD4_9fastskill3cli8commands8registry11marketplace22extract_skill_metadatas1_0Bb_
FNDA:0,_RNCNvNtNtNtNtCsfVElPQFRzD4_9fastskill3cli8commands8registry11marketplace22extract_skill_metadatas2_0Bb_
FNDA:0,_RNCNvNtNtNtNtCsfVElPQFRzD4_9fastskill3cli8commands8registry11marketplace22extract_skill_metadatas3_0Bb_
FNDA:0,_RNCNvNtNtNtNtCsfVElPQFRzD4_9fastskill3cli8commands8registry11marketplace22extract_skill_metadatas4_0Bb_
FNDA:0,_RNCNvNtNtNtNtCsfVElPQFRzD4_9fastskill3cli8commands8registry11marketplace22extract_skill_metadatas5_0Bb_
FNDA:0,_RNCNvNtNtNtNtCsfVElPQFRzD4_9fastskill3cli8commands8registry11marketplace22extract_skill_metadatas6_0Bb_
FNDA:0,_RNCNvNtNtNtNtCsfVElPQFRzD4_9fastskill3cli8commands8registry11marketplace22extract_skill_metadatas7_0Bb_
FNDA:0,_RNCNvNtNtNtNtCsfVElPQFRzD4_9fastskill3cli8commands8registry11marketplace22extract_skill_metadatas8_0Bb_
FNDA:0,_RNCNvNtNtNtNtCsfVElPQFRzD4_9fastskill3cli8commands8registry11marketplace22extract_skill_metadatas9_0Bb_
FNDA:0,_RNCNvNtNtNtNtCsfVElPQFRzD4_9fastskill3cli8commands8registry11marketplace22extract_skill_metadatas_0Bb_
FNDA:0,_RNCNvNtNtNtNtCsfVElPQFRzD4_9fastskill3cli8commands8registry11marketplace25scan_directory_for_skills0Bb_
FNDA:0,_RNCNvNtNtNtNtCsfVElPQFRzD4_9fastskill3cli8commands8registry11marketplace25scan_directory_for_skillss0_0Bb_
FNDA:0,_RNCNvNtNtNtNtCsfVElPQFRzD4_9fastskill3cli8commands8registry11marketplace25scan_directory_for_skillss_0Bb_
FNDA:0,_RNvNtNtNtNtCsfVElPQFRzD4_9fastskill3cli8commands8registry11marketplace14execute_create
FNDA:0,_RNvNtNtNtNtCsfVElPQFRzD4_9fastskill3cli8commands8registry11marketplace22extract_skill_metadata
FNDA:0,_RNvNtNtNtNtCsfVElPQFRzD4_9fastskill3cli8commands8registry11marketplace25scan_directory_for_skills
FNDA:0,_RNCNCNCNCNvNtNtNtNtCs4etJKk8xmvn_9fastskill3cli8commands8registry11marketplace14execute_create0s0_000Bh_
FNDA:0,_RNCNCNCNvNtNtNtNtCs4etJKk8xmvn_9fastskill3cli8commands8registry11marketplace14execute_create0s0_00Bf_
FNDA:0,_RNCNCNvNtNtNtNtCs4etJKk8xmvn_9fastskill3cli8commands8registry11marketplace14execute_create00Bd_
FNDA:0,_RNCNCNvNtNtNtNtCs4etJKk8xmvn_9fastskill3cli8commands8registry11marketplace14execute_create0s0_0Bd_
FNDA:0,_RNCNCNvNtNtNtNtCs4etJKk8xmvn_9fastskill3cli8commands8registry11marketplace14execute_create0s1_0Bd_
FNDA:0,_RNCNCNvNtNtNtNtCs4etJKk8xmvn_9fastskill3cli8commands8registry11marketplace14execute_create0s2_0Bd_
FNDA:0,_RNCNCNvNtNtNtNtCs4etJKk8xmvn_9fastskill3cli8commands8registry11marketplace14execute_create0s3_0Bd_
FNDA:0,_RNCNCNvNtNtNtNtCs4etJKk8xmvn_9fastskill3cli8commands8registry11marketplace14execute_create0s4_0Bd_
FNDA:0,_RNCNCNvNtNtNtNtCs4etJKk8xmvn_9fastskill3cli8commands8registry11marketplace14execute_create0s5_0Bd_
FNDA:0,_RNCNCNvNtNtNtNtCs4etJKk8xmvn_9fastskill3cli8commands8registry11marketplace14execute_create0s6_0Bd_
FNDA:0,_RNCNCNvNtNtNtNtCs4etJKk8xmvn_9fastskill3cli8commands8registry11marketplace14execute_create0s_0Bd_
FNDA:0,_RNCNCNvNtNtNtNtCs4etJKk8xmvn_9fastskill3cli8commands8registry11marketplace22extract_skill_metadatas5_00Bd_
FNDA:0,_RNCNvNtNtNtNtCs4etJKk8xmvn_9fastskill3cli8commands8registry11marketplace14execute_create0Bb_
FNDA:0,_RNCNvNtNtNtNtCs4etJKk8xmvn_9fastskill3cli8commands8registry11marketplace22extract_skill_metadata0Bb_
FNDA:0,_RNCNvNtNtNtNtCs4etJKk8xmvn_9fastskill3cli8commands8registry11marketplace22extract_skill_metadatas0_0Bb_
FNDA:0,_RNCNvNtNtNtNtCs4etJKk8xmvn_9fastskill3cli8commands8registry11marketplace22extract_skill_metadatas1_0Bb_
FNDA:0,_RNCNvNtNtNtNtCs4etJKk8xmvn_9fastskill3cli8commands8registry11marketplace22extract_skill_metadatas2_0Bb_
FNDA:0,_RNCNvNtNtNtNtCs4etJKk8xmvn_9fastskill3cli8commands8registry11marketplace22extract_skill_metadatas3_0Bb_
FNDA:0,_RNCNvNtNtNtNtCs4etJKk8xmvn_9fastskill3cli8commands8registry11marketplace22extract_skill_metadatas4_0Bb_
FNDA:0,_RNCNvNtNtNtNtCs4etJKk8xmvn_9fastskill3cli8commands8registry11marketplace22extract_skill_metadatas5_0Bb_
FNDA:0,_RNCNvNtNtNtNtCs4etJKk8xmvn_9fastskill3cli8commands8registry11marketplace22extract_skill_metadatas6_0Bb_
FNDA:0,_RNCNvNtNtNtNtCs4etJKk8xmvn_9fastskill3cli8commands8registry11marketplace22extract_skill_metadatas7_0Bb_
FNDA:0,_RNCNvNtNtNtNtCs4etJKk8xmvn_9fastskill3cli8commands8registry11marketplace22extract_skill_metadatas8_0Bb_
FNDA:0,_RNCNvNtNtNtNtCs4etJKk8xmvn_9fastskill3cli8commands8registry11marketplace22extract_skill_metadatas9_0Bb_
FNDA:0,_RNCNvNtNtNtNtCs4etJKk8xmvn_9fastskill3cli8commands8registry11marketplace22extract_skill_metadatas_0Bb_
FNDA:0,_RNCNvNtNtNtNtCs4etJKk8xmvn_9fastskill3cli8commands8registry11marketplace25scan_directory_for_skills0Bb_
FNDA:0,_RNCNvNtNtNtNtCs4etJKk8xmvn_9fastskill3cli8commands8registry11marketplace25scan_directory_for_skillss0_0Bb_
FNDA:0,_RNCNvNtNtNtNtCs4etJKk8xmvn_9fastskill3cli8commands8registry11marketplace25scan_directory_for_skillss_0Bb_
FNDA:0,_RNvNtNtNtNtCs4etJKk8xmvn_9fastskill3cli8commands8registry11marketplace14execute_create
FNDA:0,_RNvNtNtNtNtCs4etJKk8xmvn_9fastskill3cli8commands8registry11marketplace22extract_skill_metadata
FNDA:0,_RNvNtNtNtNtCs4etJKk8xmvn_9fastskill3cli8commands8registry11marketplace25scan_directory_for_skills
FNF:31
FNH:0
DA:15,0
DA:16,0
DA:17,0
DA:18,0
DA:19,0
DA:20,0
DA:21,0
DA:22,0
DA:23,0
DA:24,0
DA:25,0
DA:26,0
DA:27,0
DA:29,0
DA:31,0
DA:33,0
DA:34,0
DA:35,0
DA:36,0
DA:37,0
DA:38,0
DA:40,0
DA:41,0
DA:43,0
DA:44,0
DA:46,0
DA:47,0
DA:48,0
DA:49,0
DA:50,0
DA:51,0
DA:52,0
DA:53,0
DA:54,0
DA:55,0
DA:56,0
DA:57,0
DA:59,0
DA:60,0
DA:61,0
DA:62,0
DA:64,0
DA:65,0
DA:66,0
DA:67,0
DA:68,0
DA:69,0
DA:70,0
DA:72,0
DA:73,0
DA:74,0
DA:76,0
DA:77,0
DA:80,0
DA:82,0
DA:83,0
DA:84,0
DA:85,0
DA:86,0
DA:88,0
DA:90,0
DA:93,0
DA:94,0
DA:95,0
DA:97,0
DA:98,0
DA:99,0
DA:100,0
DA:101,0
DA:103,0
DA:104,0
DA:106,0
DA:108,0
DA:109,0
DA:110,0
DA:111,0
DA:113,0
DA:115,0
DA:116,0
DA:118,0
DA:119,0
DA:121,0
DA:122,0
DA:123,0
DA:124,0
DA:126,0
DA:127,0
DA:128,0
DA:129,0
DA:131,0
DA:132,0
DA:133,0
DA:134,0
DA:136,0
DA:137,0
DA:139,0
DA:142,0
DA:147,0
DA:148,0
DA:150,0
DA:151,0
DA:152,0
DA:153,0
DA:159,0
DA:160,0
DA:162,0
DA:165,0
DA:168,0
DA:171,0
DA:172,0
DA:174,0
DA:175,0
DA:176,0
DA:178,0
DA:179,0
DA:180,0
DA:181,0
DA:182,0
DA:183,0
DA:184,0
DA:185,0
DA:187,0
DA:188,0
DA:189,0
DA:190,0
DA:191,0
DA:192,0
DA:193,0
DA:195,0
DA:197,0
DA:198,0
DA:199,0
DA:200,0
DA:201,0
DA:203,0
DA:204,0
DA:205,0
DA:206,0
DA:207,0
DA:209,0
DA:212,0
DA:213,0
DA:214,0
DA:215,0
DA:217,0
DA:219,0
DA:220,0
DA:221,0
DA:223,0
DA:224,0
DA:225,0
DA:226,0
DA:227,0
DA:228,0
DA:229,0
DA:230,0
DA:231,0
BRF:0
BRH:0
LF:191
LH:0
end_of_record
SF:/home/sysuser/ws001/gofastskill/fastskill/src/bin/../cli/commands/registry/mod.rs
FN:76,_RNCNvNtNtNtCsfVElPQFRzD4_9fastskill3cli8commands8registry16execute_registry0B9_
FN:116,_RNCNvNtNtNtNtCsfVElPQFRzD4_9fastskill3cli8commands8registry5testss_28test_execute_registry_search0Bb_
FN:76,_RNvNtNtNtCsfVElPQFRzD4_9fastskill3cli8commands8registry16execute_registry
FN:116,_RNvNtNtNtNtCsfVElPQFRzD4_9fastskill3cli8commands8registry5testss_28test_execute_registry_search
FN:76,_RNvNtNtNtCs4etJKk8xmvn_9fastskill3cli8commands8registry16execute_registry
FN:76,_RNCNvNtNtNtCs4etJKk8xmvn_9fastskill3cli8commands8registry16execute_registry0B9_
FNDA:1,_RNCNvNtNtNtCsfVElPQFRzD4_9fastskill3cli8commands8registry16execute_registry0B9_
FNDA:1,_RNCNvNtNtNtNtCsfVElPQFRzD4_9fastskill3cli8commands8registry5testss_28test_execute_registry_search0Bb_
FNDA:1,_RNvNtNtNtCsfVElPQFRzD4_9fastskill3cli8commands8registry16execute_registry
FNDA:1,_RNvNtNtNtNtCsfVElPQFRzD4_9fastskill3cli8commands8registry5testss_28test_execute_registry_search
FNDA:0,_RNvNtNtNtCs4etJKk8xmvn_9fastskill3cli8commands8registry16execute_registry
FNDA:0,_RNCNvNtNtNtCs4etJKk8xmvn_9fastskill3cli8commands8registry16execute_registry0B9_
FNF:4
FNH:4
DA:76,1
DA:77,1
DA:79,0
DA:80,0
DA:81,0
DA:82,0
DA:83,0
DA:84,0
DA:86,0
DA:87,0
DA:88,0
DA:89,0
DA:90,0
DA:91,0
DA:92,0
DA:93,0
DA:94,0
DA:97,0
DA:98,0
DA:99,0
DA:101,0
DA:102,0
DA:103,0
DA:104,1
DA:105,1
DA:108,1
DA:116,1
DA:119,1
DA:120,1
DA:121,1
DA:122,1
DA:123,1
DA:124,1
DA:126,1
DA:128,1
DA:129,1
BRF:0
BRH:0
LF:39
LH:18
end_of_record
SF:/home/sysuser/ws001/gofastskill/fastskill/src/bin/../cli/commands/registry/repo_ops.rs
FN:55,_RNCNCNvNtNtNtNtCsfVElPQFRzD4_9fastskill3cli8commands8registry8repo_ops11execute_add00Bd_
FN:58,_RNCNCNvNtNtNtNtCsfVElPQFRzD4_9fastskill3cli8commands8registry8repo_ops11execute_add0s_0Bd_
FN:161,_RNCNCNvNtNtNtNtCsfVElPQFRzD4_9fastskill3cli8commands8registry8repo_ops12execute_test00Bd_
FN:69,_RNCNCNvNtNtNtNtCsfVElPQFRzD4_9fastskill3cli8commands8registry8repo_ops14execute_remove00Bd_
FN:72,_RNCNCNvNtNtNtNtCsfVElPQFRzD4_9fastskill3cli8commands8registry8repo_ops14execute_remove0s_0Bd_
FN:110,_RNCNCNvNtNtNtNtCsfVElPQFRzD4_9fastskill3cli8commands8registry8repo_ops14execute_update00Bd_
FN:147,_RNCNCNvNtNtNtNtCsfVElPQFRzD4_9fastskill3cli8commands8registry8repo_ops14execute_update0s0_0Bd_
FN:150,_RNCNCNvNtNtNtNtCsfVElPQFRzD4_9fastskill3cli8commands8registry8repo_ops14execute_update0s1_0Bd_
FN:134,_RNCNCNvNtNtNtNtCsfVElPQFRzD4_9fastskill3cli8commands8registry8repo_ops14execute_update0s_0Bd_
FN:16,_RNCNCNvNtNtNtNtCsfVElPQFRzD4_9fastskill3cli8commands8registry8repo_ops22execute_list_with_json00Bd_
FN:88,_RNCNCNvNtNtNtNtCsfVElPQFRzD4_9fastskill3cli8commands8registry8repo_ops22execute_show_with_json00Bd_
FN:92,_RNCNCNvNtNtNtNtCsfVElPQFRzD4_9fastskill3cli8commands8registry8repo_ops22execute_show_with_json0s_0Bd_
FN:35,_RNCNvNtNtNtNtCsfVElPQFRzD4_9fastskill3cli8commands8registry8repo_ops11execute_add0Bb_
FN:6,_RNCNvNtNtNtNtCsfVElPQFRzD4_9fastskill3cli8commands8registry8repo_ops12execute_list0Bb_
FN:79,_RNCNvNtNtNtNtCsfVElPQFRzD4_9fastskill3cli8commands8registry8repo_ops12execute_show0Bb_
FN:156,_RNCNvNtNtNtNtCsfVElPQFRzD4_9fastskill3cli8commands8registry8repo_ops12execute_test0Bb_
FN:64,_RNCNvNtNtNtNtCsfVElPQFRzD4_9fastskill3cli8commands8registry8repo_ops14execute_remove0Bb_
FN:105,_RNCNvNtNtNtNtCsfVElPQFRzD4_9fastskill3cli8commands8registry8repo_ops14execute_update0Bb_
FN:198,_RNCNvNtNtNtNtCsfVElPQFRzD4_9fastskill3cli8commands8registry8repo_ops15execute_refresh0Bb_
FN:10,_RNCNvNtNtNtNtCsfVElPQFRzD4_9fastskill3cli8commands8registry8repo_ops22execute_list_with_json0Bb_
FN:83,_RNCNvNtNtNtNtCsfVElPQFRzD4_9fastskill3cli8commands8registry8repo_ops22execute_show_with_json0Bb_
FN:24,_RNvNtNtNtNtCsfVElPQFRzD4_9fastskill3cli8commands8registry8repo_ops11execute_add
FN:156,_RNvNtNtNtNtCsfVElPQFRzD4_9fastskill3cli8commands8registry8repo_ops12execute_test
FN:64,_RNvNtNtNtNtCsfVElPQFRzD4_9fastskill3cli8commands8registry8repo_ops14execute_remove
FN:101,_RNvNtNtNtNtCsfVElPQFRzD4_9fastskill3cli8commands8registry8repo_ops14execute_update
FN:198,_RNvNtNtNtNtCsfVElPQFRzD4_9fastskill3cli8commands8registry8repo_ops15execute_refresh
FN:10,_RNvNtNtNtNtCsfVElPQFRzD4_9fastskill3cli8commands8registry8repo_ops22execute_list_with_json
FN:83,_RNvNtNtNtNtCsfVElPQFRzD4_9fastskill3cli8commands8registry8repo_ops22execute_show_with_json
FN:6,_RNvNtNtNtNtCsfVElPQFRzD4_9fastskill3cli8commands8registry8repo_ops12execute_list
FN:79,_RNvNtNtNtNtCsfVElPQFRzD4_9fastskill3cli8commands8registry8repo_ops12execute_show
FN:6,_RNvNtNtNtNtCs4etJKk8xmvn_9fastskill3cli8commands8registry8repo_ops12execute_list
FN:79,_RNvNtNtNtNtCs4etJKk8xmvn_9fastskill3cli8commands8registry8repo_ops12execute_show
FN:24,_RNvNtNtNtNtCs4etJKk8xmvn_9fastskill3cli8commands8registry8repo_ops11execute_add
FN:156,_RNvNtNtNtNtCs4etJKk8xmvn_9fastskill3cli8commands8registry8repo_ops12execute_test
FN:64,_RNvNtNtNtNtCs4etJKk8xmvn_9fastskill3cli8commands8registry8repo_ops14execute_remove
FN:101,_RNvNtNtNtNtCs4etJKk8xmvn_9fastskill3cli8commands8registry8repo_ops14execute_update
FN:198,_RNvNtNtNtNtCs4etJKk8xmvn_9fastskill3cli8commands8registry8repo_ops15execute_refresh
FN:10,_RNvNtNtNtNtCs4etJKk8xmvn_9fastskill3cli8commands8registry8repo_ops22execute_list_with_json
FN:83,_RNvNtNtNtNtCs4etJKk8xmvn_9fastskill3cli8commands8registry8repo_ops22execute_show_with_json
FN:55,_RNCNCNvNtNtNtNtCs4etJKk8xmvn_9fastskill3cli8commands8registry8repo_ops11execute_add00Bd_
FN:58,_RNCNCNvNtNtNtNtCs4etJKk8xmvn_9fastskill3cli8commands8registry8repo_ops11execute_add0s_0Bd_
FN:161,_RNCNCNvNtNtNtNtCs4etJKk8xmvn_9fastskill3cli8commands8registry8repo_ops12execute_test00Bd_
FN:69,_RNCNCNvNtNtNtNtCs4etJKk8xmvn_9fastskill3cli8commands8registry8repo_ops14execute_remove00Bd_
FN:72,_RNCNCNvNtNtNtNtCs4etJKk8xmvn_9fastskill3cli8commands8registry8repo_ops14execute_remove0s_0Bd_
FN:110,_RNCNCNvNtNtNtNtCs4etJKk8xmvn_9fastskill3cli8commands8registry8repo_ops14execute_update00Bd_
FN:147,_RNCNCNvNtNtNtNtCs4etJKk8xmvn_9fastskill3cli8commands8registry8repo_ops14execute_update0s0_0Bd_
FN:150,_RNCNCNvNtNtNtNtCs4etJKk8xmvn_9fastskill3cli8commands8registry8repo_ops14execute_update0s1_0Bd_
FN:134,_RNCNCNvNtNtNtNtCs4etJKk8xmvn_9fastskill3cli8commands8registry8repo_ops14execute_update0s_0Bd_
FN:16,_RNCNCNvNtNtNtNtCs4etJKk8xmvn_9fastskill3cli8commands8registry8repo_ops22execute_list_with_json00Bd_
FN:88,_RNCNCNvNtNtNtNtCs4etJKk8xmvn_9fastskill3cli8commands8registry8repo_ops22execute_show_with_json00Bd_
FN:92,_RNCNCNvNtNtNtNtCs4etJKk8xmvn_9fastskill3cli8commands8registry8repo_ops22execute_show_with_json0s_0Bd_
FN:35,_RNCNvNtNtNtNtCs4etJKk8xmvn_9fastskill3cli8commands8registry8repo_ops11execute_add0Bb_
FN:6,_RNCNvNtNtNtNtCs4etJKk8xmvn_9fastskill3cli8commands8registry8repo_ops12execute_list0Bb_
FN:79,_RNCNvNtNtNtNtCs4etJKk8xmvn_9fastskill3cli8commands8registry8repo_ops12execute_show0Bb_
FN:156,_RNCNvNtNtNtNtCs4etJKk8xmvn_9fastskill3cli8commands8registry8repo_ops12execute_test0Bb_
FN:64,_RNCNvNtNtNtNtCs4etJKk8xmvn_9fastskill3cli8commands8registry8repo_ops14execute_remove0Bb_
FN:105,_RNCNvNtNtNtNtCs4etJKk8xmvn_9fastskill3cli8commands8registry8repo_ops14execute_update0Bb_
FN:198,_RNCNvNtNtNtNtCs4etJKk8xmvn_9fastskill3cli8commands8registry8repo_ops15execute_refresh0Bb_
FN:10,_RNCNvNtNtNtNtCs4etJKk8xmvn_9fastskill3cli8commands8registry8repo_ops22execute_list_with_json0Bb_
FN:83,_RNCNvNtNtNtNtCs4etJKk8xmvn_9fastskill3cli8commands8registry8repo_ops22execute_show_with_json0Bb_
FNDA:0,_RNCNCNvNtNtNtNtCsfVElPQFRzD4_9fastskill3cli8commands8registry8repo_ops11execute_add00Bd_
FNDA:0,_RNCNCNvNtNtNtNtCsfVElPQFRzD4_9fastskill3cli8commands8registry8repo_ops11execute_add0s_0Bd_
FNDA:0,_RNCNCNvNtNtNtNtCsfVElPQFRzD4_9fastskill3cli8commands8registry8repo_ops12execute_test00Bd_
FNDA:0,_RNCNCNvNtNtNtNtCsfVElPQFRzD4_9fastskill3cli8commands8registry8repo_ops14execute_remove00Bd_
FNDA:0,_RNCNCNvNtNtNtNtCsfVElPQFRzD4_9fastskill3cli8commands8registry8repo_ops14execute_remove0s_0Bd_
FNDA:0,_RNCNCNvNtNtNtNtCsfVElPQFRzD4_9fastskill3cli8commands8registry8repo_ops14execute_update00Bd_
FNDA:0,_RNCNCNvNtNtNtNtCsfVElPQFRzD4_9fastskill3cli8commands8registry8repo_ops14execute_update0s0_0Bd_
FNDA:0,_RNCNCNvNtNtNtNtCsfVElPQFRzD4_9fastskill3cli8commands8registry8repo_ops14execute_update0s1_0Bd_
FNDA:0,_RNCNCNvNtNtNtNtCsfVElPQFRzD4_9fastskill3cli8commands8registry8repo_ops14execute_update0s_0Bd_
FNDA:0,_RNCNCNvNtNtNtNtCsfVElPQFRzD4_9fastskill3cli8commands8registry8repo_ops22execute_list_with_json00Bd_
FNDA:0,_RNCNCNvNtNtNtNtCsfVElPQFRzD4_9fastskill3cli8commands8registry8repo_ops22execute_show_with_json00Bd_
FNDA:0,_RNCNCNvNtNtNtNtCsfVElPQFRzD4_9fastskill3cli8commands8registry8repo_ops22execute_show_with_json0s_0Bd_
FNDA:0,_RNCNvNtNtNtNtCsfVElPQFRzD4_9fastskill3cli8commands8registry8repo_ops11execute_add0Bb_
FNDA:0,_RNCNvNtNtNtNtCsfVElPQFRzD4_9fastskill3cli8commands8registry8repo_ops12execute_list0Bb_
FNDA:0,_RNCNvNtNtNtNtCsfVElPQFRzD4_9fastskill3cli8commands8registry8repo_ops12execute_show0Bb_
FNDA:0,_RNCNvNtNtNtNtCsfVElPQFRzD4_9fastskill3cli8commands8registry8repo_ops12execute_test0Bb_
FNDA:0,_RNCNvNtNtNtNtCsfVElPQFRzD4_9fastskill3cli8commands8registry8repo_ops14execute_remove0Bb_
FNDA:0,_RNCNvNtNtNtNtCsfVElPQFRzD4_9fastskill3cli8commands8registry8repo_ops14execute_update0Bb_
FNDA:0,_RNCNvNtNtNtNtCsfVElPQFRzD4_9fastskill3cli8commands8registry8repo_ops15execute_refresh0Bb_
FNDA:0,_RNCNvNtNtNtNtCsfVElPQFRzD4_9fastskill3cli8commands8registry8repo_ops22execute_list_with_json0Bb_
FNDA:0,_RNCNvNtNtNtNtCsfVElPQFRzD4_9fastskill3cli8commands8registry8repo_ops22execute_show_with_json0Bb_
FNDA:0,_RNvNtNtNtNtCsfVElPQFRzD4_9fastskill3cli8commands8registry8repo_ops11execute_add
FNDA:0,_RNvNtNtNtNtCsfVElPQFRzD4_9fastskill3cli8commands8registry8repo_ops12execute_test
FNDA:0,_RNvNtNtNtNtCsfVElPQFRzD4_9fastskill3cli8commands8registry8repo_ops14execute_remove
FNDA:0,_RNvNtNtNtNtCsfVElPQFRzD4_9fastskill3cli8commands8registry8repo_ops14execute_update
FNDA:0,_RNvNtNtNtNtCsfVElPQFRzD4_9fastskill3cli8commands8registry8repo_ops15execute_refresh
FNDA:0,_RNvNtNtNtNtCsfVElPQFRzD4_9fastskill3cli8commands8registry8repo_ops22execute_list_with_json
FNDA:0,_RNvNtNtNtNtCsfVElPQFRzD4_9fastskill3cli8commands8registry8repo_ops22execute_show_with_json
FNDA:0,_RNvNtNtNtNtCsfVElPQFRzD4_9fastskill3cli8commands8registry8repo_ops12execute_list
FNDA:0,_RNvNtNtNtNtCsfVElPQFRzD4_9fastskill3cli8commands8registry8repo_ops12execute_show
FNDA:0,_RNvNtNtNtNtCs4etJKk8xmvn_9fastskill3cli8commands8registry8repo_ops12execute_list
FNDA:0,_RNvNtNtNtNtCs4etJKk8xmvn_9fastskill3cli8commands8registry8repo_ops12execute_show
FNDA:0,_RNvNtNtNtNtCs4etJKk8xmvn_9fastskill3cli8commands8registry8repo_ops11execute_add
FNDA:0,_RNvNtNtNtNtCs4etJKk8xmvn_9fastskill3cli8commands8registry8repo_ops12execute_test
FNDA:0,_RNvNtNtNtNtCs4etJKk8xmvn_9fastskill3cli8commands8registry8repo_ops14execute_remove
FNDA:0,_RNvNtNtNtNtCs4etJKk8xmvn_9fastskill3cli8commands8registry8repo_ops14execute_update
FNDA:0,_RNvNtNtNtNtCs4etJKk8xmvn_9fastskill3cli8commands8registry8repo_ops15execute_refresh
FNDA:0,_RNvNtNtNtNtCs4etJKk8xmvn_9fastskill3cli8commands8registry8repo_ops22execute_list_with_json
FNDA:0,_RNvNtNtNtNtCs4etJKk8xmvn_9fastskill3cli8commands8registry8repo_ops22execute_show_with_json
FNDA:0,_RNCNCNvNtNtNtNtCs4etJKk8xmvn_9fastskill3cli8commands8registry8repo_ops11execute_add00Bd_
FNDA:0,_RNCNCNvNtNtNtNtCs4etJKk8xmvn_9fastskill3cli8commands8registry8repo_ops11execute_add0s_0Bd_
FNDA:0,_RNCNCNvNtNtNtNtCs4etJKk8xmvn_9fastskill3cli8commands8registry8repo_ops12execute_test00Bd_
FNDA:0,_RNCNCNvNtNtNtNtCs4etJKk8xmvn_9fastskill3cli8commands8registry8repo_ops14execute_remove00Bd_
FNDA:0,_RNCNCNvNtNtNtNtCs4etJKk8xmvn_9fastskill3cli8commands8registry8repo_ops14execute_remove0s_0Bd_
FNDA:0,_RNCNCNvNtNtNtNtCs4etJKk8xmvn_9fastskill3cli8commands8registry8repo_ops14execute_update00Bd_
FNDA:0,_RNCNCNvNtNtNtNtCs4etJKk8xmvn_9fastskill3cli8commands8registry8repo_ops14execute_update0s0_0Bd_
FNDA:0,_RNCNCNvNtNtNtNtCs4etJKk8xmvn_9fastskill3cli8commands8registry8repo_ops14execute_update0s1_0Bd_
FNDA:0,_RNCNCNvNtNtNtNtCs4etJKk8xmvn_9fastskill3cli8commands8registry8repo_ops14execute_update0s_0Bd_
FNDA:0,_RNCNCNvNtNtNtNtCs4etJKk8xmvn_9fastskill3cli8commands8registry8repo_ops22execute_list_with_json00Bd_
FNDA:0,_RNCNCNvNtNtNtNtCs4etJKk8xmvn_9fastskill3cli8commands8registry8repo_ops22execute_show_with_json00Bd_
FNDA:0,_RNCNCNvNtNtNtNtCs4etJKk8xmvn_9fastskill3cli8commands8registry8repo_ops22execute_show_with_json0s_0Bd_
FNDA:0,_RNCNvNtNtNtNtCs4etJKk8xmvn_9fastskill3cli8commands8registry8repo_ops11execute_add0Bb_
FNDA:0,_RNCNvNtNtNtNtCs4etJKk8xmvn_9fastskill3cli8commands8registry8repo_ops12execute_list0Bb_
FNDA:0,_RNCNvNtNtNtNtCs4etJKk8xmvn_9fastskill3cli8commands8registry8repo_ops12execute_show0Bb_
FNDA:0,_RNCNvNtNtNtNtCs4etJKk8xmvn_9fastskill3cli8commands8registry8repo_ops12execute_test0Bb_
FNDA:0,_RNCNvNtNtNtNtCs4etJKk8xmvn_9fastskill3cli8commands8registry8repo_ops14execute_remove0Bb_
FNDA:0,_RNCNvNtNtNtNtCs4etJKk8xmvn_9fastskill3cli8commands8registry8repo_ops14execute_update0Bb_
FNDA:0,_RNCNvNtNtNtNtCs4etJKk8xmvn_9fastskill3cli8commands8registry8repo_ops15execute_refresh0Bb_
FNDA:0,_RNCNvNtNtNtNtCs4etJKk8xmvn_9fastskill3cli8commands8registry8repo_ops22execute_list_with_json0Bb_
FNDA:0,_RNCNvNtNtNtNtCs4etJKk8xmvn_9fastskill3cli8commands8registry8repo_ops22execute_show_with_json0Bb_
FNF:30
FNH:0
DA:6,0
DA:7,0
DA:8,0
DA:10,0
DA:11,0
DA:12,0
DA:14,0
DA:15,0
DA:16,0
DA:17,0
DA:18,0
DA:19,0
DA:20,0
DA:21,0
DA:22,0
DA:24,0
DA:25,0
DA:26,0
DA:27,0
DA:28,0
DA:29,0
DA:30,0
DA:31,0
DA:32,0
DA:33,0
DA:34,0
DA:35,0
DA:36,0
DA:38,0
DA:39,0
DA:40,0
DA:41,0
DA:42,0
DA:44,0
DA:45,0
DA:46,0
DA:47,0
DA:48,0
DA:49,0
DA:50,0
DA:51,0
DA:53,0
DA:54,0
DA:55,0
DA:56,0
DA:57,0
DA:58,0
DA:60,0
DA:61,0
DA:62,0
DA:64,0
DA:65,0
DA:67,0
DA:68,0
DA:69,0
DA:70,0
DA:71,0
DA:72,0
DA:74,0
DA:75,0
DA:76,0
DA:79,0
DA:80,0
DA:81,0
DA:83,0
DA:84,0
DA:86,0
DA:87,0
DA:88,0
DA:90,0
DA:91,0
DA:92,0
DA:93,0
DA:94,0
DA:95,0
DA:96,0
DA:98,0
DA:99,0
DA:101,0
DA:102,0
DA:103,0
DA:104,0
DA:105,0
DA:106,0
DA:108,0
DA:109,0
DA:110,0
DA:111,0
DA:113,0
DA:114,0
DA:116,0
DA:118,0
DA:119,0
DA:120,0
DA:121,0
DA:122,0
DA:123,0
DA:124,0
DA:127,0
DA:130,0
DA:132,0
DA:133,0
DA:134,0
DA:136,0
DA:137,0
DA:138,0
DA:139,0
DA:140,0
DA:141,0
DA:142,0
DA:143,0
DA:145,0
DA:146,0
DA:147,0
DA:148,0
DA:149,0
DA:150,0
DA:152,0
DA:153,0
DA:154,0
DA:156,0
DA:157,0
DA:159,0
DA:160,0
DA:161,0
DA:163,0
DA:165,0
DA:168,0
DA:169,0
DA:170,0
DA:171,0
DA:172,0
DA:173,0
DA:174,0
DA:175,0
DA:176,0
DA:177,0
DA:178,0
DA:179,0
DA:180,0
DA:181,0
DA:182,0
DA:183,0
DA:184,0
DA:187,0
DA:188,0
DA:189,0
DA:190,0
DA:191,0
DA:195,0
DA:196,0
DA:198,0
DA:199,0
DA:200,0
DA:201,0
DA:202,0
DA:203,0
DA:204,0
DA:205,0
DA:206,0
DA:207,0
DA:208,0
BRF:0
BRH:0
LF:183
LH:0
end_of_record
SF:/home/sysuser/ws001/gofastskill/fastskill/src/bin/../cli/commands/registry/skill_ops.rs
FN:205,_RNCNCNvNtNtNtNtCsfVElPQFRzD4_9fastskill3cli8commands8registry9skill_ops14execute_search00Bd_
FN:171,_RNCNCNvNtNtNtNtCsfVElPQFRzD4_9fastskill3cli8commands8registry9skill_ops16execute_versions00Bd_
FN:128,_RNCNCNvNtNtNtNtCsfVElPQFRzD4_9fastskill3cli8commands8registry9skill_ops18execute_show_skill00Bd_
FN:36,_RNCNCNvNtNtNtNtCsfVElPQFRzD4_9fastskill3cli8commands8registry9skill_ops19execute_list_skills00Bd_
FN:81,_RNCNCNvNtNtNtNtCsfVElPQFRzD4_9fastskill3cli8commands8registry9skill_ops19execute_list_skills0s0_0Bd_
FN:92,_RNCNCNvNtNtNtNtCsfVElPQFRzD4_9fastskill3cli8commands8registry9skill_ops19execute_list_skills0s1_0Bd_
FN:103,_RNCNCNvNtNtNtNtCsfVElPQFRzD4_9fastskill3cli8commands8registry9skill_ops19execute_list_skills0s2_0Bd_
FN:53,_RNCNCNvNtNtNtNtCsfVElPQFRzD4_9fastskill3cli8commands8registry9skill_ops19execute_list_skills0s_0Bd_
FN:194,_RNCNvNtNtNtNtCsfVElPQFRzD4_9fastskill3cli8commands8registry9skill_ops14execute_search0Bb_
FN:155,_RNCNvNtNtNtNtCsfVElPQFRzD4_9fastskill3cli8commands8registry9skill_ops16execute_versions0Bb_
FN:115,_RNCNvNtNtNtNtCsfVElPQFRzD4_9fastskill3cli8commands8registry9skill_ops18execute_show_skill0Bb_
FN:13,_RNCNvNtNtNtNtCsfVElPQFRzD4_9fastskill3cli8commands8registry9skill_ops19execute_list_skills0Bb_
FN:194,_RNvNtNtNtNtCsfVElPQFRzD4_9fastskill3cli8commands8registry9skill_ops14execute_search
FN:155,_RNvNtNtNtNtCsfVElPQFRzD4_9fastskill3cli8commands8registry9skill_ops16execute_versions
FN:115,_RNvNtNtNtNtCsfVElPQFRzD4_9fastskill3cli8commands8registry9skill_ops18execute_show_skill
FN:6,_RNvNtNtNtNtCsfVElPQFRzD4_9fastskill3cli8commands8registry9skill_ops19execute_list_skills
FN:194,_RNvNtNtNtNtCs4etJKk8xmvn_9fastskill3cli8commands8registry9skill_ops14execute_search
FN:155,_RNvNtNtNtNtCs4etJKk8xmvn_9fastskill3cli8commands8registry9skill_ops16execute_versions
FN:115,_RNvNtNtNtNtCs4etJKk8xmvn_9fastskill3cli8commands8registry9skill_ops18execute_show_skill
FN:6,_RNvNtNtNtNtCs4etJKk8xmvn_9fastskill3cli8commands8registry9skill_ops19execute_list_skills
FN:205,_RNCNCNvNtNtNtNtCs4etJKk8xmvn_9fastskill3cli8commands8registry9skill_ops14execute_search00Bd_
FN:171,_RNCNCNvNtNtNtNtCs4etJKk8xmvn_9fastskill3cli8commands8registry9skill_ops16execute_versions00Bd_
FN:128,_RNCNCNvNtNtNtNtCs4etJKk8xmvn_9fastskill3cli8commands8registry9skill_ops18execute_show_skill00Bd_
FN:36,_RNCNCNvNtNtNtNtCs4etJKk8xmvn_9fastskill3cli8commands8registry9skill_ops19execute_list_skills00Bd_
FN:81,_RNCNCNvNtNtNtNtCs4etJKk8xmvn_9fastskill3cli8commands8registry9skill_ops19execute_list_skills0s0_0Bd_
FN:92,_RNCNCNvNtNtNtNtCs4etJKk8xmvn_9fastskill3cli8commands8registry9skill_ops19execute_list_skills0s1_0Bd_
FN:103,_RNCNCNvNtNtNtNtCs4etJKk8xmvn_9fastskill3cli8commands8registry9skill_ops19execute_list_skills0s2_0Bd_
FN:53,_RNCNCNvNtNtNtNtCs4etJKk8xmvn_9fastskill3cli8commands8registry9skill_ops19execute_list_skills0s_0Bd_
FN:194,_RNCNvNtNtNtNtCs4etJKk8xmvn_9fastskill3cli8commands8registry9skill_ops14execute_search0Bb_
FN:155,_RNCNvNtNtNtNtCs4etJKk8xmvn_9fastskill3cli8commands8registry9skill_ops16execute_versions0Bb_
FN:115,_RNCNvNtNtNtNtCs4etJKk8xmvn_9fastskill3cli8commands8registry9skill_ops18execute_show_skill0Bb_
FN:13,_RNCNvNtNtNtNtCs4etJKk8xmvn_9fastskill3cli8commands8registry9skill_ops19execute_list_skills0Bb_
FNDA:0,_RNCNCNvNtNtNtNtCsfVElPQFRzD4_9fastskill3cli8commands8registry9skill_ops14execute_search00Bd_
FNDA:0,_RNCNCNvNtNtNtNtCsfVElPQFRzD4_9fastskill3cli8commands8registry9skill_ops16execute_versions00Bd_
FNDA:0,_RNCNCNvNtNtNtNtCsfVElPQFRzD4_9fastskill3cli8commands8registry9skill_ops18execute_show_skill00Bd_
FNDA:0,_RNCNCNvNtNtNtNtCsfVElPQFRzD4_9fastskill3cli8commands8registry9skill_ops19execute_list_skills00Bd_
FNDA:0,_RNCNCNvNtNtNtNtCsfVElPQFRzD4_9fastskill3cli8commands8registry9skill_ops19execute_list_skills0s0_0Bd_
FNDA:0,_RNCNCNvNtNtNtNtCsfVElPQFRzD4_9fastskill3cli8commands8registry9skill_ops19execute_list_skills0s1_0Bd_
FNDA:0,_RNCNCNvNtNtNtNtCsfVElPQFRzD4_9fastskill3cli8commands8registry9skill_ops19execute_list_skills0s2_0Bd_
FNDA:0,_RNCNCNvNtNtNtNtCsfVElPQFRzD4_9fastskill3cli8commands8registry9skill_ops19execute_list_skills0s_0Bd_
FNDA:1,_RNCNvNtNtNtNtCsfVElPQFRzD4_9fastskill3cli8commands8registry9skill_ops14execute_search0Bb_
FNDA:0,_RNCNvNtNtNtNtCsfVElPQFRzD4_9fastskill3cli8commands8registry9skill_ops16execute_versions0Bb_
FNDA:0,_RNCNvNtNtNtNtCsfVElPQFRzD4_9fastskill3cli8commands8registry9skill_ops18execute_show_skill0Bb_
FNDA:0,_RNCNvNtNtNtNtCsfVElPQFRzD4_9fastskill3cli8commands8registry9skill_ops19execute_list_skills0Bb_
FNDA:1,_RNvNtNtNtNtCsfVElPQFRzD4_9fastskill3cli8commands8registry9skill_ops14execute_search
FNDA:0,_RNvNtNtNtNtCsfVElPQFRzD4_9fastskill3cli8commands8registry9skill_ops16execute_versions
FNDA:0,_RNvNtNtNtNtCsfVElPQFRzD4_9fastskill3cli8commands8registry9skill_ops18execute_show_skill
FNDA:0,_RNvNtNtNtNtCsfVElPQFRzD4_9fastskill3cli8commands8registry9skill_ops19execute_list_skills
FNDA:0,_RNvNtNtNtNtCs4etJKk8xmvn_9fastskill3cli8commands8registry9skill_ops14execute_search
FNDA:0,_RNvNtNtNtNtCs4etJKk8xmvn_9fastskill3cli8commands8registry9skill_ops16execute_versions
FNDA:0,_RNvNtNtNtNtCs4etJKk8xmvn_9fastskill3cli8commands8registry9skill_ops18execute_show_skill
FNDA:0,_RNvNtNtNtNtCs4etJKk8xmvn_9fastskill3cli8commands8registry9skill_ops19execute_list_skills
FNDA:0,_RNCNCNvNtNtNtNtCs4etJKk8xmvn_9fastskill3cli8commands8registry9skill_ops14execute_search00Bd_
FNDA:0,_RNCNCNvNtNtNtNtCs4etJKk8xmvn_9fastskill3cli8commands8registry9skill_ops16execute_versions00Bd_
FNDA:0,_RNCNCNvNtNtNtNtCs4etJKk8xmvn_9fastskill3cli8commands8registry9skill_ops18execute_show_skill00Bd_
FNDA:0,_RNCNCNvNtNtNtNtCs4etJKk8xmvn_9fastskill3cli8commands8registry9skill_ops19execute_list_skills00Bd_
FNDA:0,_RNCNCNvNtNtNtNtCs4etJKk8xmvn_9fastskill3cli8commands8registry9skill_ops19execute_list_skills0s0_0Bd_
FNDA:0,_RNCNCNvNtNtNtNtCs4etJKk8xmvn_9fastskill3cli8commands8registry9skill_ops19execute_list_skills0s1_0Bd_
FNDA:0,_RNCNCNvNtNtNtNtCs4etJKk8xmvn_9fastskill3cli8commands8registry9skill_ops19execute_list_skills0s2_0Bd_
FNDA:0,_RNCNCNvNtNtNtNtCs4etJKk8xmvn_9fastskill3cli8commands8registry9skill_ops19execute_list_skills0s_0Bd_
FNDA:0,_RNCNvNtNtNtNtCs4etJKk8xmvn_9fastskill3cli8commands8registry9skill_ops14execute_search0Bb_
FNDA:0,_RNCNvNtNtNtNtCs4etJKk8xmvn_9fastskill3cli8commands8registry9skill_ops16execute_versions0Bb_
FNDA:0,_RNCNvNtNtNtNtCs4etJKk8xmvn_9fastskill3cli8commands8registry9skill_ops18execute_show_skill0Bb_
FNDA:0,_RNCNvNtNtNtNtCs4etJKk8xmvn_9fastskill3cli8commands8registry9skill_ops19execute_list_skills0Bb_
FNF:16
FNH:2
DA:6,0
DA:7,0
DA:8,0
DA:9,0
DA:10,0
DA:11,0
DA:12,0
DA:13,0
DA:14,0
DA:15,0
DA:16,0
DA:17,0
DA:18,0
DA:20,0
DA:21,0
DA:22,0
DA:23,0
DA:24,0
DA:25,0
DA:26,0
DA:27,0
DA:28,0
DA:29,0
DA:30,0
DA:31,0
DA:32,0
DA:33,0
DA:34,0
DA:35,0
DA:36,0
DA:38,0
DA:39,0
DA:40,0
DA:41,0
DA:42,0
DA:43,0
DA:44,0
DA:45,0
DA:47,0
DA:49,0
DA:51,0
DA:52,0
DA:53,0
DA:55,0
DA:56,0
DA:57,0
DA:58,0
DA:59,0
DA:60,0
DA:61,0
DA:62,0
DA:64,0
DA:65,0
DA:66,0
DA:69,0
DA:70,0
DA:71,0
DA:75,0
DA:77,0
DA:80,0
DA:81,0
DA:83,0
DA:84,0
DA:85,0
DA:86,0
DA:87,0
DA:89,0
DA:90,0
DA:91,0
DA:92,0
DA:94,0
DA:95,0
DA:96,0
DA:97,0
DA:99,0
DA:100,0
DA:101,0
DA:102,0
DA:103,0
DA:104,0
DA:106,0
DA:107,0
DA:109,0
DA:112,0
DA:113,0
DA:115,0
DA:116,0
DA:118,0
DA:120,0
DA:122,0
DA:125,0
DA:126,0
DA:127,0
DA:128,0
DA:130,0
DA:131,0
DA:132,0
DA:133,0
DA:134,0
DA:135,0
DA:136,0
DA:137,0
DA:138,0
DA:139,0
DA:141,0
DA:142,0
DA:143,0
DA:144,0
DA:145,0
DA:146,0
DA:147,0
DA:148,0
DA:152,0
DA:153,0
DA:155,0
DA:156,0
DA:158,0
DA:160,0
DA:162,0
DA:163,0
DA:164,0
DA:165,0
DA:168,0
DA:169,0
DA:170,0
DA:171,0
DA:173,0
DA:174,0
DA:175,0
DA:176,0
DA:178,0
DA:180,0
DA:181,0
DA:183,0
DA:184,0
DA:185,0
DA:186,0
DA:187,0
DA:189,0
DA:191,0
DA:194,1
DA:195,1
DA:197,1
DA:199,1
DA:202,1
DA:203,0
DA:204,0
DA:205,0
DA:207,1
DA:210,1
DA:212,1
DA:213,0
DA:214,0
DA:215,0
DA:216,0
DA:217,0
DA:219,0
DA:223,1
DA:224,1
DA:225,1
DA:226,0
DA:227,0
DA:228,0
DA:229,0
DA:232,1
DA:233,1
BRF:0
BRH:0
LF:178
LH:14
end_of_record
SF:/home/sysuser/ws001/gofastskill/fastskill/src/bin/../cli/commands/reindex.rs
FN:326,_RNCNvNtNtNtNtCsfVElPQFRzD4_9fastskill3cli8commands7reindex5testss_37test_execute_reindex_empty_skills_dir0Bb_
FN:297,_RNCNvNtNtNtNtCsfVElPQFRzD4_9fastskill3cli8commands7reindex5testss_43test_execute_reindex_nonexistent_skills_dir0Bb_
FN:270,_RNCNvNtNtNtNtCsfVElPQFRzD4_9fastskill3cli8commands7reindex5testss_45test_execute_reindex_without_embedding_config0Bb_
FN:34,_RNCNCNvNtNtNtCsfVElPQFRzD4_9fastskill3cli8commands7reindex15execute_reindex00Bb_
FN:82,_RNCNCNvNtNtNtCsfVElPQFRzD4_9fastskill3cli8commands7reindex15execute_reindex0s0_0Bb_
FN:62,_RNCNCNvNtNtNtCsfVElPQFRzD4_9fastskill3cli8commands7reindex15execute_reindex0s_0Bb_
FN:170,_RNCNCNvNtNtNtCsfVElPQFRzD4_9fastskill3cli8commands7reindex18process_skill_file00Bb_
FN:174,_RNCNCNvNtNtNtCsfVElPQFRzD4_9fastskill3cli8commands7reindex18process_skill_file0s0_0Bb_
FN:197,_RNCNCNvNtNtNtCsfVElPQFRzD4_9fastskill3cli8commands7reindex18process_skill_file0s1_0Bb_
FN:202,_RNCNCNvNtNtNtCsfVElPQFRzD4_9fastskill3cli8commands7reindex18process_skill_file0s2_0Bb_
FN:212,_RNCNCNvNtNtNtCsfVElPQFRzD4_9fastskill3cli8commands7reindex18process_skill_file0s3_0Bb_
FN:221,_RNCNCNvNtNtNtCsfVElPQFRzD4_9fastskill3cli8commands7reindex18process_skill_file0s4_0Bb_
FN:238,_RNCNCNvNtNtNtCsfVElPQFRzD4_9fastskill3cli8commands7reindex18process_skill_file0s5_0Bb_
FN:173,_RNCNCNvNtNtNtCsfVElPQFRzD4_9fastskill3cli8commands7reindex18process_skill_file0s_0Bb_
FN:32,_RNCNvNtNtNtCsfVElPQFRzD4_9fastskill3cli8commands7reindex15execute_reindex0B9_
FN:151,_RNCNvNtNtNtCsfVElPQFRzD4_9fastskill3cli8commands7reindex16find_skill_files0B9_
FN:153,_RNCNvNtNtNtCsfVElPQFRzD4_9fastskill3cli8commands7reindex16find_skill_filess0_0B9_
FN:152,_RNCNvNtNtNtCsfVElPQFRzD4_9fastskill3cli8commands7reindex16find_skill_filess_0B9_
FN:167,_RNCNvNtNtNtCsfVElPQFRzD4_9fastskill3cli8commands7reindex18process_skill_file0B9_
FN:247,_RNCNvNtNtNtCsfVElPQFRzD4_9fastskill3cli8commands7reindex19calculate_file_hash0B9_
FN:32,_RNvNtNtNtCsfVElPQFRzD4_9fastskill3cli8commands7reindex15execute_reindex
FN:138,_RNvNtNtNtCsfVElPQFRzD4_9fastskill3cli8commands7reindex16find_skill_files
FN:162,_RNvNtNtNtCsfVElPQFRzD4_9fastskill3cli8commands7reindex18process_skill_file
FN:246,_RNvNtNtNtCsfVElPQFRzD4_9fastskill3cli8commands7reindex19calculate_file_hash
FN:326,_RNvNtNtNtNtCsfVElPQFRzD4_9fastskill3cli8commands7reindex5testss_37test_execute_reindex_empty_skills_dir
FN:297,_RNvNtNtNtNtCsfVElPQFRzD4_9fastskill3cli8commands7reindex5testss_43test_execute_reindex_nonexistent_skills_dir
FN:270,_RNvNtNtNtNtCsfVElPQFRzD4_9fastskill3cli8commands7reindex5testss_45test_execute_reindex_without_embedding_config
FN:34,_RNCNCNvNtNtNtCs4etJKk8xmvn_9fastskill3cli8commands7reindex15execute_reindex00Bb_
FN:82,_RNCNCNvNtNtNtCs4etJKk8xmvn_9fastskill3cli8commands7reindex15execute_reindex0s0_0Bb_
FN:62,_RNCNCNvNtNtNtCs4etJKk8xmvn_9fastskill3cli8commands7reindex15execute_reindex0s_0Bb_
FN:170,_RNCNCNvNtNtNtCs4etJKk8xmvn_9fastskill3cli8commands7reindex18process_skill_file00Bb_
FN:174,_RNCNCNvNtNtNtCs4etJKk8xmvn_9fastskill3cli8commands7reindex18process_skill_file0s0_0Bb_
FN:197,_RNCNCNvNtNtNtCs4etJKk8xmvn_9fastskill3cli8commands7reindex18process_skill_file0s1_0Bb_
FN:202,_RNCNCNvNtNtNtCs4etJKk8xmvn_9fastskill3cli8commands7reindex18process_skill_file0s2_0Bb_
FN:212,_RNCNCNvNtNtNtCs4etJKk8xmvn_9fastskill3cli8commands7reindex18process_skill_file0s3_0Bb_
FN:221,_RNCNCNvNtNtNtCs4etJKk8xmvn_9fastskill3cli8commands7reindex18process_skill_file0s4_0Bb_
FN:238,_RNCNCNvNtNtNtCs4etJKk8xmvn_9fastskill3cli8commands7reindex18process_skill_file0s5_0Bb_
FN:173,_RNCNCNvNtNtNtCs4etJKk8xmvn_9fastskill3cli8commands7reindex18process_skill_file0s_0Bb_
FN:32,_RNCNvNtNtNtCs4etJKk8xmvn_9fastskill3cli8commands7reindex15execute_reindex0B9_
FN:151,_RNCNvNtNtNtCs4etJKk8xmvn_9fastskill3cli8commands7reindex16find_skill_files0B9_
FN:153,_RNCNvNtNtNtCs4etJKk8xmvn_9fastskill3cli8commands7reindex16find_skill_filess0_0B9_
FN:152,_RNCNvNtNtNtCs4etJKk8xmvn_9fastskill3cli8commands7reindex16find_skill_filess_0B9_
FN:167,_RNCNvNtNtNtCs4etJKk8xmvn_9fastskill3cli8commands7reindex18process_skill_file0B9_
FN:247,_RNCNvNtNtNtCs4etJKk8xmvn_9fastskill3cli8commands7reindex19calculate_file_hash0B9_
FN:32,_RNvNtNtNtCs4etJKk8xmvn_9fastskill3cli8commands7reindex15execute_reindex
FN:138,_RNvNtNtNtCs4etJKk8xmvn_9fastskill3cli8commands7reindex16find_skill_files
FN:162,_RNvNtNtNtCs4etJKk8xmvn_9fastskill3cli8commands7reindex18process_skill_file
FN:246,_RNvNtNtNtCs4etJKk8xmvn_9fastskill3cli8commands7reindex19calculate_file_hash
FNDA:1,_RNCNvNtNtNtNtCsfVElPQFRzD4_9fastskill3cli8commands7reindex5testss_37test_execute_reindex_empty_skills_dir0Bb_
FNDA:1,_RNCNvNtNtNtNtCsfVElPQFRzD4_9fastskill3cli8commands7reindex5testss_43test_execute_reindex_nonexistent_skills_dir0Bb_
FNDA:1,_RNCNvNtNtNtNtCsfVElPQFRzD4_9fastskill3cli8commands7reindex5testss_45test_execute_reindex_without_embedding_config0Bb_
FNDA:1,_RNCNCNvNtNtNtCsfVElPQFRzD4_9fastskill3cli8commands7reindex15execute_reindex00Bb_
FNDA:0,_RNCNCNvNtNtNtCsfVElPQFRzD4_9fastskill3cli8commands7reindex15execute_reindex0s0_0Bb_
FNDA:0,_RNCNCNvNtNtNtCsfVElPQFRzD4_9fastskill3cli8commands7reindex15execute_reindex0s_0Bb_
FNDA:0,_RNCNCNvNtNtNtCsfVElPQFRzD4_9fastskill3cli8commands7reindex18process_skill_file00Bb_
FNDA:0,_RNCNCNvNtNtNtCsfVElPQFRzD4_9fastskill3cli8commands7reindex18process_skill_file0s0_0Bb_
FNDA:0,_RNCNCNvNtNtNtCsfVElPQFRzD4_9fastskill3cli8commands7reindex18process_skill_file0s1_0Bb_
FNDA:0,_RNCNCNvNtNtNtCsfVElPQFRzD4_9fastskill3cli8commands7reindex18process_skill_file0s2_0Bb_
FNDA:0,_RNCNCNvNtNtNtCsfVElPQFRzD4_9fastskill3cli8commands7reindex18process_skill_file0s3_0Bb_
FNDA:0,_RNCNCNvNtNtNtCsfVElPQFRzD4_9fastskill3cli8commands7reindex18process_skill_file0s4_0Bb_
FNDA:0,_RNCNCNvNtNtNtCsfVElPQFRzD4_9fastskill3cli8commands7reindex18process_skill_file0s5_0Bb_
FNDA:0,_RNCNCNvNtNtNtCsfVElPQFRzD4_9fastskill3cli8commands7reindex18process_skill_file0s_0Bb_
FNDA:3,_RNCNvNtNtNtCsfVElPQFRzD4_9fastskill3cli8commands7reindex15execute_reindex0B9_
FNDA:0,_RNCNvNtNtNtCsfVElPQFRzD4_9fastskill3cli8commands7reindex16find_skill_files0B9_
FNDA:0,_RNCNvNtNtNtCsfVElPQFRzD4_9fastskill3cli8commands7reindex16find_skill_filess0_0B9_
FNDA:0,_RNCNvNtNtNtCsfVElPQFRzD4_9fastskill3cli8commands7reindex16find_skill_filess_0B9_
FNDA:0,_RNCNvNtNtNtCsfVElPQFRzD4_9fastskill3cli8commands7reindex18process_skill_file0B9_
FNDA:0,_RNCNvNtNtNtCsfVElPQFRzD4_9fastskill3cli8commands7reindex19calculate_file_hash0B9_
FNDA:3,_RNvNtNtNtCsfVElPQFRzD4_9fastskill3cli8commands7reindex15execute_reindex
FNDA:0,_RNvNtNtNtCsfVElPQFRzD4_9fastskill3cli8commands7reindex16find_skill_files
FNDA:0,_RNvNtNtNtCsfVElPQFRzD4_9fastskill3cli8commands7reindex18process_skill_file
FNDA:0,_RNvNtNtNtCsfVElPQFRzD4_9fastskill3cli8commands7reindex19calculate_file_hash
FNDA:1,_RNvNtNtNtNtCsfVElPQFRzD4_9fastskill3cli8commands7reindex5testss_37test_execute_reindex_empty_skills_dir
FNDA:1,_RNvNtNtNtNtCsfVElPQFRzD4_9fastskill3cli8commands7reindex5testss_43test_execute_reindex_nonexistent_skills_dir
FNDA:1,_RNvNtNtNtNtCsfVElPQFRzD4_9fastskill3cli8commands7reindex5testss_45test_execute_reindex_without_embedding_config
FNDA:0,_RNCNCNvNtNtNtCs4etJKk8xmvn_9fastskill3cli8commands7reindex15execute_reindex00Bb_
FNDA:0,_RNCNCNvNtNtNtCs4etJKk8xmvn_9fastskill3cli8commands7reindex15execute_reindex0s0_0Bb_
FNDA:0,_RNCNCNvNtNtNtCs4etJKk8xmvn_9fastskill3cli8commands7reindex15execute_reindex0s_0Bb_
FNDA:0,_RNCNCNvNtNtNtCs4etJKk8xmvn_9fastskill3cli8commands7reindex18process_skill_file00Bb_
FNDA:0,_RNCNCNvNtNtNtCs4etJKk8xmvn_9fastskill3cli8commands7reindex18process_skill_file0s0_0Bb_
FNDA:0,_RNCNCNvNtNtNtCs4etJKk8xmvn_9fastskill3cli8commands7reindex18process_skill_file0s1_0Bb_
FNDA:0,_RNCNCNvNtNtNtCs4etJKk8xmvn_9fastskill3cli8commands7reindex18process_skill_file0s2_0Bb_
FNDA:0,_RNCNCNvNtNtNtCs4etJKk8xmvn_9fastskill3cli8commands7reindex18process_skill_file0s3_0Bb_
FNDA:0,_RNCNCNvNtNtNtCs4etJKk8xmvn_9fastskill3cli8commands7reindex18process_skill_file0s4_0Bb_
FNDA:0,_RNCNCNvNtNtNtCs4etJKk8xmvn_9fastskill3cli8commands7reindex18process_skill_file0s5_0Bb_
FNDA:0,_RNCNCNvNtNtNtCs4etJKk8xmvn_9fastskill3cli8commands7reindex18process_skill_file0s_0Bb_
FNDA:0,_RNCNvNtNtNtCs4etJKk8xmvn_9fastskill3cli8commands7reindex15execute_reindex0B9_
FNDA:0,_RNCNvNtNtNtCs4etJKk8xmvn_9fastskill3cli8commands7reindex16find_skill_files0B9_
FNDA:0,_RNCNvNtNtNtCs4etJKk8xmvn_9fastskill3cli8commands7reindex16find_skill_filess0_0B9_
FNDA:0,_RNCNvNtNtNtCs4etJKk8xmvn_9fastskill3cli8commands7reindex16find_skill_filess_0B9_
FNDA:0,_RNCNvNtNtNtCs4etJKk8xmvn_9fastskill3cli8commands7reindex18process_skill_file0B9_
FNDA:0,_RNCNvNtNtNtCs4etJKk8xmvn_9fastskill3cli8commands7reindex19calculate_file_hash0B9_
FNDA:0,_RNvNtNtNtCs4etJKk8xmvn_9fastskill3cli8commands7reindex15execute_reindex
FNDA:0,_RNvNtNtNtCs4etJKk8xmvn_9fastskill3cli8commands7reindex16find_skill_files
FNDA:0,_RNvNtNtNtCs4etJKk8xmvn_9fastskill3cli8commands7reindex18process_skill_file
FNDA:0,_RNvNtNtNtCs4etJKk8xmvn_9fastskill3cli8commands7reindex19calculate_file_hash
FNF:27
FNH:9
DA:32,3
DA:34,3
DA:35,1
DA:36,1
DA:37,1
DA:38,0
DA:39,0
DA:40,1
DA:41,1
DA:42,1
DA:45,2
DA:48,0
DA:49,0
DA:50,0
DA:54,0
DA:55,0
DA:56,0
DA:60,0
DA:61,0
DA:62,0
DA:64,0
DA:66,0
DA:70,0
DA:71,0
DA:74,0
DA:75,0
DA:77,0
DA:78,0
DA:79,0
DA:80,0
DA:82,0
DA:84,0
DA:85,0
DA:87,0
DA:88,0
DA:89,0
DA:92,0
DA:93,0
DA:94,0
DA:95,0
DA:96,0
DA:97,0
DA:98,0
DA:99,0
DA:101,0
DA:105,0
DA:106,0
DA:108,0
DA:109,0
DA:110,0
DA:111,0
DA:112,0
DA:113,0
DA:115,0
DA:116,0
DA:117,0
DA:122,0
DA:127,0
DA:128,0
DA:129,0
DA:130,0
DA:131,0
DA:133,0
DA:135,3
DA:138,0
DA:139,0
DA:141,0
DA:142,0
DA:143,0
DA:144,0
DA:145,0
DA:146,0
DA:149,0
DA:150,0
DA:151,0
DA:152,0
DA:153,0
DA:154,0
DA:155,0
DA:156,0
DA:158,0
DA:159,0
DA:162,0
DA:163,0
DA:164,0
DA:165,0
DA:166,0
DA:167,0
DA:168,0
DA:169,0
DA:170,0
DA:171,0
DA:172,0
DA:173,0
DA:174,0
DA:175,0
DA:176,0
DA:177,0
DA:178,0
DA:179,0
DA:182,0
DA:185,0
DA:186,0
DA:187,0
DA:189,0
DA:190,0
DA:191,0
DA:192,0
DA:194,0
DA:197,0
DA:198,0
DA:199,0
DA:202,0
DA:203,0
DA:204,0
DA:205,0
DA:206,0
DA:207,0
DA:208,0
DA:211,0
DA:212,0
DA:215,0
DA:218,0
DA:219,0
DA:220,0
DA:221,0
DA:222,0
DA:223,0
DA:224,0
DA:225,0
DA:226,0
DA:229,0
DA:230,0
DA:231,0
DA:232,0
DA:233,0
DA:234,0
DA:235,0
DA:236,0
DA:237,0
DA:238,0
DA:239,0
DA:240,0
DA:242,0
DA:243,0
DA:246,0
DA:247,0
DA:248,0
DA:249,0
DA:250,0
DA:251,0
DA:252,0
DA:253,0
DA:255,0
DA:256,0
DA:257,0
DA:259,0
DA:260,0
DA:270,1
DA:271,1
DA:272,1
DA:273,1
DA:274,1
DA:275,1
DA:276,1
DA:278,1
DA:279,1
DA:281,1
DA:282,1
DA:283,1
DA:284,1
DA:285,1
DA:287,1
DA:288,1
DA:289,1
DA:290,1
DA:291,1
DA:292,1
DA:293,1
DA:294,1
DA:297,1
DA:298,1
DA:299,1
DA:300,1
DA:301,1
DA:302,1
DA:303,1
DA:304,1
DA:305,1
DA:306,1
DA:307,1
DA:309,1
DA:310,1
DA:312,1
DA:313,1
DA:314,1
DA:315,1
DA:316,1
DA:317,1
DA:319,1
DA:322,1
DA:323,1
DA:326,1
DA:327,1
DA:328,1
DA:329,1
DA:330,1
DA:331,1
DA:332,1
DA:333,1
DA:334,1
DA:335,1
DA:336,1
DA:338,1
DA:339,1
DA:341,1
DA:342,1
DA:343,1
DA:344,1
DA:345,1
DA:349,1
DA:351,1
DA:352,1
BRF:0
BRH:0
LF:255
LH:85
end_of_record
SF:/home/sysuser/ws001/gofastskill/fastskill/src/bin/../cli/commands/remove.rs
FN:27,_RNvNtNtNtCsfVElPQFRzD4_9fastskill3cli8commands6remove14execute_remove
FN:199,_RNvNtNtNtNtCsfVElPQFRzD4_9fastskill3cli8commands6remove5testss_30test_execute_remove_empty_args
FN:224,_RNvNtNtNtNtCsfVElPQFRzD4_9fastskill3cli8commands6remove5testss_36test_execute_remove_invalid_skill_id
FN:249,_RNvNtNtNtNtCsfVElPQFRzD4_9fastskill3cli8commands6remove5testss_37test_execute_remove_nonexistent_skill
FN:199,_RNCNvNtNtNtNtCsfVElPQFRzD4_9fastskill3cli8commands6remove5testss_30test_execute_remove_empty_args0Bb_
FN:224,_RNCNvNtNtNtNtCsfVElPQFRzD4_9fastskill3cli8commands6remove5testss_36test_execute_remove_invalid_skill_id0Bb_
FN:249,_RNCNvNtNtNtNtCsfVElPQFRzD4_9fastskill3cli8commands6remove5testss_37test_execute_remove_nonexistent_skill0Bb_
FN:36,_RNCNCNvNtNtNtCsfVElPQFRzD4_9fastskill3cli8commands6remove14execute_remove00Bb_
FN:47,_RNCNCNvNtNtNtCsfVElPQFRzD4_9fastskill3cli8commands6remove14execute_remove0s0_0Bb_
FN:92,_RNCNCNvNtNtNtCsfVElPQFRzD4_9fastskill3cli8commands6remove14execute_remove0s1_0Bb_
FN:108,_RNCNCNvNtNtNtCsfVElPQFRzD4_9fastskill3cli8commands6remove14execute_remove0s2_0Bb_
FN:148,_RNCNCNvNtNtNtCsfVElPQFRzD4_9fastskill3cli8commands6remove14execute_remove0s3_0Bb_
FN:159,_RNCNCNvNtNtNtCsfVElPQFRzD4_9fastskill3cli8commands6remove14execute_remove0s4_0Bb_
FN:163,_RNCNCNvNtNtNtCsfVElPQFRzD4_9fastskill3cli8commands6remove14execute_remove0s5_0Bb_
FN:172,_RNCNCNvNtNtNtCsfVElPQFRzD4_9fastskill3cli8commands6remove14execute_remove0s6_0Bb_
FN:175,_RNCNCNvNtNtNtCsfVElPQFRzD4_9fastskill3cli8commands6remove14execute_remove0s7_0Bb_
FN:43,_RNCNCNvNtNtNtCsfVElPQFRzD4_9fastskill3cli8commands6remove14execute_remove0s_0Bb_
FN:27,_RNCNvNtNtNtCsfVElPQFRzD4_9fastskill3cli8commands6remove14execute_remove0B9_
FN:27,_RNvNtNtNtCs4etJKk8xmvn_9fastskill3cli8commands6remove14execute_remove
FN:36,_RNCNCNvNtNtNtCs4etJKk8xmvn_9fastskill3cli8commands6remove14execute_remove00Bb_
FN:47,_RNCNCNvNtNtNtCs4etJKk8xmvn_9fastskill3cli8commands6remove14execute_remove0s0_0Bb_
FN:92,_RNCNCNvNtNtNtCs4etJKk8xmvn_9fastskill3cli8commands6remove14execute_remove0s1_0Bb_
FN:108,_RNCNCNvNtNtNtCs4etJKk8xmvn_9fastskill3cli8commands6remove14execute_remove0s2_0Bb_
FN:148,_RNCNCNvNtNtNtCs4etJKk8xmvn_9fastskill3cli8commands6remove14execute_remove0s3_0Bb_
FN:159,_RNCNCNvNtNtNtCs4etJKk8xmvn_9fastskill3cli8commands6remove14execute_remove0s4_0Bb_
FN:163,_RNCNCNvNtNtNtCs4etJKk8xmvn_9fastskill3cli8commands6remove14execute_remove0s5_0Bb_
FN:172,_RNCNCNvNtNtNtCs4etJKk8xmvn_9fastskill3cli8commands6remove14execute_remove0s6_0Bb_
FN:175,_RNCNCNvNtNtNtCs4etJKk8xmvn_9fastskill3cli8commands6remove14execute_remove0s7_0Bb_
FN:43,_RNCNCNvNtNtNtCs4etJKk8xmvn_9fastskill3cli8commands6remove14execute_remove0s_0Bb_
FN:27,_RNCNvNtNtNtCs4etJKk8xmvn_9fastskill3cli8commands6remove14execute_remove0B9_
FNDA:3,_RNvNtNtNtCsfVElPQFRzD4_9fastskill3cli8commands6remove14execute_remove
FNDA:1,_RNvNtNtNtNtCsfVElPQFRzD4_9fastskill3cli8commands6remove5testss_30test_execute_remove_empty_args
FNDA:1,_RNvNtNtNtNtCsfVElPQFRzD4_9fastskill3cli8commands6remove5testss_36test_execute_remove_invalid_skill_id
FNDA:1,_RNvNtNtNtNtCsfVElPQFRzD4_9fastskill3cli8commands6remove5testss_37test_execute_remove_nonexistent_skill
FNDA:1,_RNCNvNtNtNtNtCsfVElPQFRzD4_9fastskill3cli8commands6remove5testss_30test_execute_remove_empty_args0Bb_
FNDA:1,_RNCNvNtNtNtNtCsfVElPQFRzD4_9fastskill3cli8commands6remove5testss_36test_execute_remove_invalid_skill_id0Bb_
FNDA:1,_RNCNvNtNtNtNtCsfVElPQFRzD4_9fastskill3cli8commands6remove5testss_37test_execute_remove_nonexistent_skill0Bb_
FNDA:2,_RNCNCNvNtNtNtCsfVElPQFRzD4_9fastskill3cli8commands6remove14execute_remove00Bb_
FNDA:0,_RNCNCNvNtNtNtCsfVElPQFRzD4_9fastskill3cli8commands6remove14execute_remove0s0_0Bb_
FNDA:0,_RNCNCNvNtNtNtCsfVElPQFRzD4_9fastskill3cli8commands6remove14execute_remove0s1_0Bb_
FNDA:0,_RNCNCNvNtNtNtCsfVElPQFRzD4_9fastskill3cli8commands6remove14execute_remove0s2_0Bb_
FNDA:0,_RNCNCNvNtNtNtCsfVElPQFRzD4_9fastskill3cli8commands6remove14execute_remove0s3_0Bb_
FNDA:0,_RNCNCNvNtNtNtCsfVElPQFRzD4_9fastskill3cli8commands6remove14execute_remove0s4_0Bb_
FNDA:0,_RNCNCNvNtNtNtCsfVElPQFRzD4_9fastskill3cli8commands6remove14execute_remove0s5_0Bb_
FNDA:0,_RNCNCNvNtNtNtCsfVElPQFRzD4_9fastskill3cli8commands6remove14execute_remove0s6_0Bb_
FNDA:0,_RNCNCNvNtNtNtCsfVElPQFRzD4_9fastskill3cli8commands6remove14execute_remove0s7_0Bb_
FNDA:0,_RNCNCNvNtNtNtCsfVElPQFRzD4_9fastskill3cli8commands6remove14execute_remove0s_0Bb_
FNDA:3,_RNCNvNtNtNtCsfVElPQFRzD4_9fastskill3cli8commands6remove14execute_remove0B9_
FNDA:0,_RNvNtNtNtCs4etJKk8xmvn_9fastskill3cli8commands6remove14execute_remove
FNDA:0,_RNCNCNvNtNtNtCs4etJKk8xmvn_9fastskill3cli8commands6remove14execute_remove00Bb_
FNDA:0,_RNCNCNvNtNtNtCs4etJKk8xmvn_9fastskill3cli8commands6remove14execute_remove0s0_0Bb_
FNDA:0,_RNCNCNvNtNtNtCs4etJKk8xmvn_9fastskill3cli8commands6remove14execute_remove0s1_0Bb_
FNDA:0,_RNCNCNvNtNtNtCs4etJKk8xmvn_9fastskill3cli8commands6remove14execute_remove0s2_0Bb_
FNDA:0,_RNCNCNvNtNtNtCs4etJKk8xmvn_9fastskill3cli8commands6remove14execute_remove0s3_0Bb_
FNDA:0,_RNCNCNvNtNtNtCs4etJKk8xmvn_9fastskill3cli8commands6remove14execute_remove0s4_0Bb_
FNDA:0,_RNCNCNvNtNtNtCs4etJKk8xmvn_9fastskill3cli8commands6remove14execute_remove0s5_0Bb_
FNDA:0,_RNCNCNvNtNtNtCs4etJKk8xmvn_9fastskill3cli8commands6remove14execute_remove0s6_0Bb_
FNDA:0,_RNCNCNvNtNtNtCs4etJKk8xmvn_9fastskill3cli8commands6remove14execute_remove0s7_0Bb_
FNDA:0,_RNCNCNvNtNtNtCs4etJKk8xmvn_9fastskill3cli8commands6remove14execute_remove0s_0Bb_
FNDA:0,_RNCNvNtNtNtCs4etJKk8xmvn_9fastskill3cli8commands6remove14execute_remove0B9_
FNF:18
FNH:9
DA:27,3
DA:28,3
DA:29,1
DA:30,2
DA:33,2
DA:34,2
DA:35,2
DA:36,2
DA:39,0
DA:40,0
DA:41,0
DA:42,0
DA:43,0
DA:44,0
DA:47,0
DA:48,0
DA:49,0
DA:50,0
DA:51,0
DA:53,0
DA:54,0
DA:55,0
DA:56,0
DA:57,0
DA:58,0
DA:59,0
DA:60,0
DA:61,0
DA:62,0
DA:64,0
DA:65,0
DA:68,0
DA:69,0
DA:70,0
DA:74,0
DA:75,0
DA:76,0
DA:78,0
DA:80,0
DA:81,0
DA:84,0
DA:85,0
DA:86,0
DA:87,0
DA:88,0
DA:89,0
DA:90,0
DA:91,0
DA:92,0
DA:94,0
DA:95,0
DA:97,0
DA:98,0
DA:99,0
DA:100,0
DA:101,0
DA:102,0
DA:105,0
DA:106,0
DA:107,0
DA:108,0
DA:110,0
DA:111,0
DA:112,0
DA:113,0
DA:115,0
DA:116,0
DA:117,0
DA:118,0
DA:119,0
DA:120,0
DA:121,0
DA:122,0
DA:123,0
DA:129,0
DA:130,0
DA:132,0
DA:133,0
DA:134,0
DA:135,0
DA:136,0
DA:137,0
DA:138,0
DA:139,0
DA:140,0
DA:141,0
DA:142,0
DA:144,0
DA:145,0
DA:147,0
DA:148,0
DA:149,0
DA:150,0
DA:151,0
DA:152,0
DA:153,0
DA:154,0
DA:155,0
DA:158,0
DA:159,0
DA:162,0
DA:163,0
DA:164,0
DA:165,0
DA:166,0
DA:168,0
DA:170,0
DA:171,0
DA:172,0
DA:173,0
DA:174,0
DA:175,0
DA:176,0
DA:178,0
DA:179,0
DA:182,0
DA:183,0
DA:184,0
DA:185,0
DA:186,0
DA:187,0
DA:188,0
DA:189,3
DA:199,1
DA:200,1
DA:201,1
DA:202,1
DA:203,1
DA:204,1
DA:206,1
DA:207,1
DA:209,1
DA:210,1
DA:211,1
DA:212,1
DA:214,1
DA:215,1
DA:216,1
DA:217,1
DA:218,1
DA:219,1
DA:220,1
DA:221,1
DA:224,1
DA:225,1
DA:226,1
DA:227,1
DA:228,1
DA:229,1
DA:231,1
DA:232,1
DA:234,1
DA:235,1
DA:236,1
DA:237,1
DA:239,1
DA:240,1
DA:241,1
DA:242,1
DA:243,1
DA:244,1
DA:245,1
DA:246,1
DA:249,1
DA:250,1
DA:251,1
DA:252,1
DA:253,1
DA:254,1
DA:256,1
DA:257,1
DA:259,1
DA:260,1
DA:261,1
DA:262,1
DA:265,1
DA:266,1
DA:267,1
BRF:0
BRH:0
LF:200
LH:74
end_of_record
SF:/home/sysuser/ws001/gofastskill/fastskill/src/bin/../cli/commands/search.rs
FN:327,_RNCNvNtNtNtNtCsfVElPQFRzD4_9fastskill3cli8commands6search5testss_30test_execute_search_with_query0Bb_
FN:299,_RNCNvNtNtNtNtCsfVElPQFRzD4_9fastskill3cli8commands6search5testss_31test_execute_search_empty_query0Bb_
FN:355,_RNCNvNtNtNtNtCsfVElPQFRzD4_9fastskill3cli8commands6search5testss_44test_execute_search_without_embedding_config0Bb_
FN:40,_RNCNCNvNtNtNtCsfVElPQFRzD4_9fastskill3cli8commands6search14execute_search00Bb_
FN:45,_RNCNCNvNtNtNtCsfVElPQFRzD4_9fastskill3cli8commands6search14execute_search0s_0Bb_
FN:211,_RNCNCNvNtNtNtCsfVElPQFRzD4_9fastskill3cli8commands6search24perform_embedding_search00Bb_
FN:236,_RNCNCNvNtNtNtCsfVElPQFRzD4_9fastskill3cli8commands6search24perform_embedding_search0s0_0Bb_
FN:242,_RNCNCNvNtNtNtCsfVElPQFRzD4_9fastskill3cli8commands6search24perform_embedding_search0s1_0Bb_
FN:223,_RNCNCNvNtNtNtCsfVElPQFRzD4_9fastskill3cli8commands6search24perform_embedding_search0s_0Bb_
FN:25,_RNCNvNtNtNtCsfVElPQFRzD4_9fastskill3cli8commands6search14execute_search0B9_
FN:209,_RNCNvNtNtNtCsfVElPQFRzD4_9fastskill3cli8commands6search24perform_embedding_search0B9_
FN:282,_RNvNtNtNtCsfVElPQFRzD4_9fastskill3cli8commands6search10escape_xml
FN:25,_RNvNtNtNtCsfVElPQFRzD4_9fastskill3cli8commands6search14execute_search
FN:83,_RNvNtNtNtCsfVElPQFRzD4_9fastskill3cli8commands6search14to_json_result
FN:248,_RNvNtNtNtCsfVElPQFRzD4_9fastskill3cli8commands6search21format_results_as_xml
FN:97,_RNvNtNtNtCsfVElPQFRzD4_9fastskill3cli8commands6search23format_results_as_table
FN:205,_RNvNtNtNtCsfVElPQFRzD4_9fastskill3cli8commands6search24perform_embedding_search
FN:327,_RNvNtNtNtNtCsfVElPQFRzD4_9fastskill3cli8commands6search5testss_30test_execute_search_with_query
FN:299,_RNvNtNtNtNtCsfVElPQFRzD4_9fastskill3cli8commands6search5testss_31test_execute_search_empty_query
FN:355,_RNvNtNtNtNtCsfVElPQFRzD4_9fastskill3cli8commands6search5testss_44test_execute_search_without_embedding_config
FN:282,_RNvNtNtNtCs4etJKk8xmvn_9fastskill3cli8commands6search10escape_xml
FN:25,_RNvNtNtNtCs4etJKk8xmvn_9fastskill3cli8commands6search14execute_search
FN:83,_RNvNtNtNtCs4etJKk8xmvn_9fastskill3cli8commands6search14to_json_result
FN:248,_RNvNtNtNtCs4etJKk8xmvn_9fastskill3cli8commands6search21format_results_as_xml
FN:97,_RNvNtNtNtCs4etJKk8xmvn_9fastskill3cli8commands6search23format_results_as_table
FN:205,_RNvNtNtNtCs4etJKk8xmvn_9fastskill3cli8commands6search24perform_embedding_search
FN:40,_RNCNCNvNtNtNtCs4etJKk8xmvn_9fastskill3cli8commands6search14execute_search00Bb_
FN:45,_RNCNCNvNtNtNtCs4etJKk8xmvn_9fastskill3cli8commands6search14execute_search0s_0Bb_
FN:211,_RNCNCNvNtNtNtCs4etJKk8xmvn_9fastskill3cli8commands6search24perform_embedding_search00Bb_
FN:236,_RNCNCNvNtNtNtCs4etJKk8xmvn_9fastskill3cli8commands6search24perform_embedding_search0s0_0Bb_
FN:242,_RNCNCNvNtNtNtCs4etJKk8xmvn_9fastskill3cli8commands6search24perform_embedding_search0s1_0Bb_
FN:223,_RNCNCNvNtNtNtCs4etJKk8xmvn_9fastskill3cli8commands6search24perform_embedding_search0s_0Bb_
FN:25,_RNCNvNtNtNtCs4etJKk8xmvn_9fastskill3cli8commands6search14execute_search0B9_
FN:209,_RNCNvNtNtNtCs4etJKk8xmvn_9fastskill3cli8commands6search24perform_embedding_search0B9_
FNDA:1,_RNCNvNtNtNtNtCsfVElPQFRzD4_9fastskill3cli8commands6search5testss_30test_execute_search_with_query0Bb_
FNDA:1,_RNCNvNtNtNtNtCsfVElPQFRzD4_9fastskill3cli8commands6search5testss_31test_execute_search_empty_query0Bb_
FNDA:1,_RNCNvNtNtNtNtCsfVElPQFRzD4_9fastskill3cli8commands6search5testss_44test_execute_search_without_embedding_config0Bb_
FNDA:0,_RNCNCNvNtNtNtCsfVElPQFRzD4_9fastskill3cli8commands6search14execute_search00Bb_
FNDA:0,_RNCNCNvNtNtNtCsfVElPQFRzD4_9fastskill3cli8commands6search14execute_search0s_0Bb_
FNDA:1,_RNCNCNvNtNtNtCsfVElPQFRzD4_9fastskill3cli8commands6search24perform_embedding_search00Bb_
FNDA:0,_RNCNCNvNtNtNtCsfVElPQFRzD4_9fastskill3cli8commands6search24perform_embedding_search0s0_0Bb_
FNDA:0,_RNCNCNvNtNtNtCsfVElPQFRzD4_9fastskill3cli8commands6search24perform_embedding_search0s1_0Bb_
FNDA:0,_RNCNCNvNtNtNtCsfVElPQFRzD4_9fastskill3cli8commands6search24perform_embedding_search0s_0Bb_
FNDA:3,_RNCNvNtNtNtCsfVElPQFRzD4_9fastskill3cli8commands6search14execute_search0B9_
FNDA:3,_RNCNvNtNtNtCsfVElPQFRzD4_9fastskill3cli8commands6search24perform_embedding_search0B9_
FNDA:0,_RNvNtNtNtCsfVElPQFRzD4_9fastskill3cli8commands6search10escape_xml
FNDA:3,_RNvNtNtNtCsfVElPQFRzD4_9fastskill3cli8commands6search14execute_search
FNDA:0,_RNvNtNtNtCsfVElPQFRzD4_9fastskill3cli8commands6search14to_json_result
FNDA:0,_RNvNtNtNtCsfVElPQFRzD4_9fastskill3cli8commands6search21format_results_as_xml
FNDA:0,_RNvNtNtNtCsfVElPQFRzD4_9fastskill3cli8commands6search23format_results_as_table
FNDA:3,_RNvNtNtNtCsfVElPQFRzD4_9fastskill3cli8commands6search24perform_embedding_search
FNDA:1,_RNvNtNtNtNtCsfVElPQFRzD4_9fastskill3cli8commands6search5testss_30test_execute_search_with_query
FNDA:1,_RNvNtNtNtNtCsfVElPQFRzD4_9fastskill3cli8commands6search5testss_31test_execute_search_empty_query
FNDA:1,_RNvNtNtNtNtCsfVElPQFRzD4_9fastskill3cli8commands6search5testss_44test_execute_search_without_embedding_config
FNDA:0,_RNvNtNtNtCs4etJKk8xmvn_9fastskill3cli8commands6search10escape_xml
FNDA:0,_RNvNtNtNtCs4etJKk8xmvn_9fastskill3cli8commands6search14execute_search
FNDA:0,_RNvNtNtNtCs4etJKk8xmvn_9fastskill3cli8commands6search14to_json_result
FNDA:0,_RNvNtNtNtCs4etJKk8xmvn_9fastskill3cli8commands6search21format_results_as_xml
FNDA:0,_RNvNtNtNtCs4etJKk8xmvn_9fastskill3cli8commands6search23format_results_as_table
FNDA:0,_RNvNtNtNtCs4etJKk8xmvn_9fastskill3cli8commands6search24perform_embedding_search
FNDA:0,_RNCNCNvNtNtNtCs4etJKk8xmvn_9fastskill3cli8commands6search14execute_search00Bb_
FNDA:0,_RNCNCNvNtNtNtCs4etJKk8xmvn_9fastskill3cli8commands6search14execute_search0s_0Bb_
FNDA:0,_RNCNCNvNtNtNtCs4etJKk8xmvn_9fastskill3cli8commands6search24perform_embedding_search00Bb_
FNDA:0,_RNCNCNvNtNtNtCs4etJKk8xmvn_9fastskill3cli8commands6search24perform_embedding_search0s0_0Bb_
FNDA:0,_RNCNCNvNtNtNtCs4etJKk8xmvn_9fastskill3cli8commands6search24perform_embedding_search0s1_0Bb_
FNDA:0,_RNCNCNvNtNtNtCs4etJKk8xmvn_9fastskill3cli8commands6search24perform_embedding_search0s_0Bb_
FNDA:0,_RNCNvNtNtNtCs4etJKk8xmvn_9fastskill3cli8commands6search14execute_search0B9_
FNDA:0,_RNCNvNtNtNtCs4etJKk8xmvn_9fastskill3cli8commands6search24perform_embedding_search0B9_
FNF:20
FNH:11
DA:25,3
DA:27,3
DA:29,0
DA:30,0
DA:31,0
DA:32,0
DA:35,0
DA:36,0
DA:38,0
DA:39,0
DA:40,0
DA:41,0
DA:43,0
DA:44,0
DA:45,0
DA:46,0
DA:48,0
DA:49,0
DA:50,0
DA:51,0
DA:52,0
DA:53,0
DA:54,0
DA:55,0
DA:56,0
DA:59,0
DA:60,3
DA:83,0
DA:84,0
DA:85,0
DA:86,0
DA:87,0
DA:88,0
DA:89,0
DA:90,0
DA:91,0
DA:92,0
DA:93,0
DA:94,0
DA:97,0
DA:98,0
DA:99,0
DA:100,0
DA:102,0
DA:105,0
DA:106,0
DA:107,0
DA:108,0
DA:110,0
DA:111,0
DA:112,0
DA:113,0
DA:114,0
DA:115,0
DA:116,0
DA:117,0
DA:119,0
DA:122,0
DA:125,0
DA:126,0
DA:130,0
DA:132,0
DA:133,0
DA:134,0
DA:135,0
DA:140,0
DA:141,0
DA:142,0
DA:143,0
DA:150,0
DA:151,0
DA:154,0
DA:155,0
DA:156,0
DA:157,0
DA:159,0
DA:162,0
DA:163,0
DA:164,0
DA:165,0
DA:167,0
DA:170,0
DA:173,0
DA:176,0
DA:181,0
DA:187,0
DA:188,0
DA:192,0
DA:194,0
DA:195,0
DA:196,0
DA:197,0
DA:199,0
DA:201,0
DA:202,0
DA:205,3
DA:206,3
DA:207,3
DA:208,3
DA:209,3
DA:210,3
DA:211,3
DA:212,1
DA:213,1
DA:214,1
DA:215,0
DA:216,0
DA:217,1
DA:218,1
DA:219,1
DA:221,2
DA:222,2
DA:223,2
DA:226,2
DA:229,0
DA:230,0
DA:233,0
DA:234,0
DA:235,0
DA:236,0
DA:239,0
DA:240,0
DA:241,0
DA:242,0
DA:244,0
DA:245,3
DA:248,0
DA:249,0
DA:251,0
DA:252,0
DA:253,0
DA:254,0
DA:255,0
DA:256,0
DA:257,0
DA:258,0
DA:259,0
DA:260,0
DA:261,0
DA:262,0
DA:263,0
DA:264,0
DA:265,0
DA:266,0
DA:267,0
DA:268,0
DA:269,0
DA:270,0
DA:271,0
DA:272,0
DA:273,0
DA:274,0
DA:277,0
DA:278,0
DA:279,0
DA:282,0
DA:283,0
DA:284,0
DA:285,0
DA:286,0
DA:287,0
DA:288,0
DA:289,0
DA:299,1
DA:300,1
DA:301,1
DA:302,1
DA:303,1
DA:304,1
DA:305,1
DA:306,1
DA:307,1
DA:308,1
DA:309,1
DA:311,1
DA:312,1
DA:314,1
DA:315,1
DA:316,1
DA:317,1
DA:318,1
DA:321,1
DA:323,1
DA:324,1
DA:327,1
DA:328,1
DA:329,1
DA:330,1
DA:331,1
DA:332,1
DA:333,1
DA:334,1
DA:335,1
DA:336,1
DA:337,1
DA:339,1
DA:340,1
DA:342,1
DA:343,1
DA:344,1
DA:345,1
DA:346,1
DA:349,1
DA:351,1
DA:352,1
DA:355,1
DA:356,1
DA:357,1
DA:358,1
DA:359,1
DA:360,1
DA:361,1
DA:363,1
DA:364,1
DA:366,1
DA:367,1
DA:368,1
DA:369,1
DA:370,1
DA:372,1
DA:373,1
DA:374,1
DA:375,1
DA:376,1
DA:377,1
DA:378,1
DA:379,1
BRF:0
BRH:0
LF:244
LH:96
end_of_record
SF:/home/sysuser/ws001/gofastskill/fastskill/src/bin/../cli/commands/serve.rs
FN:125,_RNCNvNtNtNtNtCsfVElPQFRzD4_9fastskill3cli8commands5serve5testss_35test_execute_serve_with_custom_port0Bb_
FN:77,_RNCNvNtNtNtNtCsfVElPQFRzD4_9fastskill3cli8commands5serve5testss_36test_execute_serve_with_default_args0Bb_
FN:103,_RNCNvNtNtNtNtCsfVElPQFRzD4_9fastskill3cli8commands5serve5testss_40test_execute_serve_with_registry_enabled0Bb_
FN:64,_RNCNCNvNtNtNtCsfVElPQFRzD4_9fastskill3cli8commands5serve13execute_serve00Bb_
FN:37,_RNCNvNtNtNtCsfVElPQFRzD4_9fastskill3cli8commands5serve13execute_serve0B9_
FN:125,_RNvNtNtNtNtCsfVElPQFRzD4_9fastskill3cli8commands5serve5testss_35test_execute_serve_with_custom_port
FN:77,_RNvNtNtNtNtCsfVElPQFRzD4_9fastskill3cli8commands5serve5testss_36test_execute_serve_with_default_args
FN:103,_RNvNtNtNtNtCsfVElPQFRzD4_9fastskill3cli8commands5serve5testss_40test_execute_serve_with_registry_enabled
FN:34,_RNvNtNtNtCsfVElPQFRzD4_9fastskill3cli8commands5serve13execute_serve
FN:64,_RNCNCNvNtNtNtCs4etJKk8xmvn_9fastskill3cli8commands5serve13execute_serve00Bb_
FN:37,_RNCNvNtNtNtCs4etJKk8xmvn_9fastskill3cli8commands5serve13execute_serve0B9_
FN:34,_RNvNtNtNtCs4etJKk8xmvn_9fastskill3cli8commands5serve13execute_serve
FNDA:1,_RNCNvNtNtNtNtCsfVElPQFRzD4_9fastskill3cli8commands5serve5testss_35test_execute_serve_with_custom_port0Bb_
FNDA:1,_RNCNvNtNtNtNtCsfVElPQFRzD4_9fastskill3cli8commands5serve5testss_36test_execute_serve_with_default_args0Bb_
FNDA:1,_RNCNvNtNtNtNtCsfVElPQFRzD4_9fastskill3cli8commands5serve5testss_40test_execute_serve_with_registry_enabled0Bb_
FNDA:0,_RNCNCNvNtNtNtCsfVElPQFRzD4_9fastskill3cli8commands5serve13execute_serve00Bb_
FNDA:0,_RNCNvNtNtNtCsfVElPQFRzD4_9fastskill3cli8commands5serve13execute_serve0B9_
FNDA:1,_RNvNtNtNtNtCsfVElPQFRzD4_9fastskill3cli8commands5serve5testss_35test_execute_serve_with_custom_port
FNDA:1,_RNvNtNtNtNtCsfVElPQFRzD4_9fastskill3cli8commands5serve5testss_36test_execute_serve_with_default_args
FNDA:1,_RNvNtNtNtNtCsfVElPQFRzD4_9fastskill3cli8commands5serve5testss_40test_execute_serve_with_registry_enabled
FNDA:0,_RNvNtNtNtCsfVElPQFRzD4_9fastskill3cli8commands5serve13execute_serve
FNDA:0,_RNCNCNvNtNtNtCs4etJKk8xmvn_9fastskill3cli8commands5serve13execute_serve00Bb_
FNDA:0,_RNCNvNtNtNtCs4etJKk8xmvn_9fastskill3cli8commands5serve13execute_serve0B9_
FNDA:0,_RNvNtNtNtCs4etJKk8xmvn_9fastskill3cli8commands5serve13execute_serve
FNF:9
FNH:6
DA:34,0
DA:35,0
DA:36,0
DA:37,0
DA:38,0
DA:44,0
DA:45,0
DA:46,0
DA:47,0
DA:48,0
DA:49,0
DA:52,0
DA:53,0
DA:54,0
DA:55,0
DA:56,0
DA:57,0
DA:61,0
DA:62,0
DA:63,0
DA:64,0
DA:66,0
DA:67,0
DA:77,1
DA:78,1
DA:79,1
DA:80,1
DA:81,1
DA:82,1
DA:84,1
DA:85,1
DA:87,1
DA:88,1
DA:89,1
DA:90,1
DA:91,1
DA:92,1
DA:93,1
DA:100,1
DA:103,1
DA:104,1
DA:105,1
DA:106,1
DA:107,1
DA:108,1
DA:110,1
DA:111,1
DA:113,1
DA:114,1
DA:115,1
DA:116,1
DA:117,1
DA:118,1
DA:119,1
DA:122,1
DA:125,1
DA:126,1
DA:127,1
DA:128,1
DA:129,1
DA:130,1
DA:132,1
DA:133,1
DA:135,1
DA:136,1
DA:137,1
DA:138,1
DA:139,1
DA:140,1
DA:141,1
DA:144,1
BRF:0
BRH:0
LF:97
LH:72
end_of_record
SF:/home/sysuser/ws001/gofastskill/fastskill/src/bin/../cli/commands/show.rs
FN:148,_RNvNtNtNtNtCsfVElPQFRzD4_9fastskill3cli8commands4show5testss_39test_execute_show_with_invalid_skill_id
FN:130,_RNvNtNtNtNtCsfVElPQFRzD4_9fastskill3cli8commands4show5testss_42test_execute_show_no_skill_id_no_lock_file
FN:165,_RNvNtNtNtNtCsfVElPQFRzD4_9fastskill3cli8commands4show5testss_43test_execute_show_with_nonexistent_skill_id
FN:40,_RNCNCNvNtNtNtCsfVElPQFRzD4_9fastskill3cli8commands4show12execute_show00Bb_
FN:72,_RNCNCNvNtNtNtCsfVElPQFRzD4_9fastskill3cli8commands4show12execute_show0s0_0Bb_
FN:43,_RNCNCNvNtNtNtCsfVElPQFRzD4_9fastskill3cli8commands4show12execute_show0s_0Bb_
FN:27,_RNCNvNtNtNtCsfVElPQFRzD4_9fastskill3cli8commands4show12execute_show0B9_
FN:27,_RNvNtNtNtCsfVElPQFRzD4_9fastskill3cli8commands4show12execute_show
FN:110,_RNvNtNtNtCsfVElPQFRzD4_9fastskill3cli8commands4show19print_skill_details
FN:148,_RNCNvNtNtNtNtCsfVElPQFRzD4_9fastskill3cli8commands4show5testss_39test_execute_show_with_invalid_skill_id0Bb_
FN:130,_RNCNvNtNtNtNtCsfVElPQFRzD4_9fastskill3cli8commands4show5testss_42test_execute_show_no_skill_id_no_lock_file0Bb_
FN:165,_RNCNvNtNtNtNtCsfVElPQFRzD4_9fastskill3cli8commands4show5testss_43test_execute_show_with_nonexistent_skill_id0Bb_
FN:40,_RNCNCNvNtNtNtCs4etJKk8xmvn_9fastskill3cli8commands4show12execute_show00Bb_
FN:72,_RNCNCNvNtNtNtCs4etJKk8xmvn_9fastskill3cli8commands4show12execute_show0s0_0Bb_
FN:43,_RNCNCNvNtNtNtCs4etJKk8xmvn_9fastskill3cli8commands4show12execute_show0s_0Bb_
FN:27,_RNCNvNtNtNtCs4etJKk8xmvn_9fastskill3cli8commands4show12execute_show0B9_
FN:27,_RNvNtNtNtCs4etJKk8xmvn_9fastskill3cli8commands4show12execute_show
FN:110,_RNvNtNtNtCs4etJKk8xmvn_9fastskill3cli8commands4show19print_skill_details
FNDA:1,_RNvNtNtNtNtCsfVElPQFRzD4_9fastskill3cli8commands4show5testss_39test_execute_show_with_invalid_skill_id
FNDA:1,_RNvNtNtNtNtCsfVElPQFRzD4_9fastskill3cli8commands4show5testss_42test_execute_show_no_skill_id_no_lock_file
FNDA:1,_RNvNtNtNtNtCsfVElPQFRzD4_9fastskill3cli8commands4show5testss_43test_execute_show_with_nonexistent_skill_id
FNDA:0,_RNCNCNvNtNtNtCsfVElPQFRzD4_9fastskill3cli8commands4show12execute_show00Bb_
FNDA:1,_RNCNCNvNtNtNtCsfVElPQFRzD4_9fastskill3cli8commands4show12execute_show0s0_0Bb_
FNDA:0,_RNCNCNvNtNtNtCsfVElPQFRzD4_9fastskill3cli8commands4show12execute_show0s_0Bb_
FNDA:3,_RNCNvNtNtNtCsfVElPQFRzD4_9fastskill3cli8commands4show12execute_show0B9_
FNDA:3,_RNvNtNtNtCsfVElPQFRzD4_9fastskill3cli8commands4show12execute_show
FNDA:0,_RNvNtNtNtCsfVElPQFRzD4_9fastskill3cli8commands4show19print_skill_details
FNDA:1,_RNCNvNtNtNtNtCsfVElPQFRzD4_9fastskill3cli8commands4show5testss_39test_execute_show_with_invalid_skill_id0Bb_
FNDA:1,_RNCNvNtNtNtNtCsfVElPQFRzD4_9fastskill3cli8commands4show5testss_42test_execute_show_no_skill_id_no_lock_file0Bb_
FNDA:1,_RNCNvNtNtNtNtCsfVElPQFRzD4_9fastskill3cli8commands4show5testss_43test_execute_show_with_nonexistent_skill_id0Bb_
FNDA:0,_RNCNCNvNtNtNtCs4etJKk8xmvn_9fastskill3cli8commands4show12execute_show00Bb_
FNDA:0,_RNCNCNvNtNtNtCs4etJKk8xmvn_9fastskill3cli8commands4show12execute_show0s0_0Bb_
FNDA:0,_RNCNCNvNtNtNtCs4etJKk8xmvn_9fastskill3cli8commands4show12execute_show0s_0Bb_
FNDA:0,_RNCNvNtNtNtCs4etJKk8xmvn_9fastskill3cli8commands4show12execute_show0B9_
FNDA:0,_RNvNtNtNtCs4etJKk8xmvn_9fastskill3cli8commands4show12execute_show
FNDA:0,_RNvNtNtNtCs4etJKk8xmvn_9fastskill3cli8commands4show19print_skill_details
FNF:12
FNH:9
DA:27,3
DA:28,3
DA:29,3
DA:32,3
DA:33,1
DA:34,1
DA:35,1
DA:36,1
DA:38,1
DA:39,0
DA:40,0
DA:42,0
DA:43,0
DA:44,0
DA:45,0
DA:46,0
DA:47,0
DA:48,0
DA:50,0
DA:53,0
DA:54,0
DA:55,0
DA:56,0
DA:57,0
DA:58,0
DA:59,0
DA:65,1
DA:66,1
DA:67,1
DA:68,1
DA:69,1
DA:71,1
DA:72,1
DA:73,1
DA:74,1
DA:75,0
DA:76,0
DA:77,0
DA:78,0
DA:79,0
DA:81,0
DA:82,0
DA:83,0
DA:84,0
DA:85,0
DA:86,0
DA:87,0
DA:88,0
DA:89,0
DA:90,0
DA:92,0
DA:95,0
DA:96,0
DA:97,0
DA:98,0
DA:99,0
DA:100,0
DA:101,0
DA:102,0
DA:103,0
DA:107,0
DA:108,3
DA:110,0
DA:111,0
DA:112,0
DA:113,0
DA:114,0
DA:115,0
DA:116,0
DA:117,0
DA:118,0
DA:119,0
DA:120,0
DA:121,0
DA:130,1
DA:131,1
DA:132,1
DA:134,1
DA:135,1
DA:136,1
DA:137,1
DA:140,1
DA:142,1
DA:144,1
DA:145,1
DA:148,1
DA:149,1
DA:150,1
DA:152,1
DA:153,1
DA:154,1
DA:155,1
DA:157,1
DA:159,1
DA:161,1
DA:162,1
DA:165,1
DA:166,1
DA:167,1
DA:168,1
DA:170,1
DA:171,1
DA:172,1
DA:173,1
DA:175,1
DA:177,1
DA:178,1
DA:179,0
DA:180,0
DA:181,0
DA:182,0
DA:183,0
DA:188,1
DA:190,1
DA:191,1
DA:196,0
DA:197,0
DA:198,0
DA:199,0
DA:201,0
DA:205,1
DA:206,1
DA:207,1
DA:208,1
DA:209,1
BRF:0
BRH:0
LF:138
LH:71
end_of_record
SF:/home/sysuser/ws001/gofastskill/fastskill/src/bin/../cli/commands/sources.rs
FN:124,_RNCNvNtNtNtCsfVElPQFRzD4_9fastskill3cli8commands7sources15execute_sources0B9_
FN:124,_RNvNtNtNtCsfVElPQFRzD4_9fastskill3cli8commands7sources15execute_sources
FN:124,_RNvNtNtNtCs4etJKk8xmvn_9fastskill3cli8commands7sources15execute_sources
FN:124,_RNCNvNtNtNtCs4etJKk8xmvn_9fastskill3cli8commands7sources15execute_sources0B9_
FNDA:0,_RNCNvNtNtNtCsfVElPQFRzD4_9fastskill3cli8commands7sources15execute_sources0B9_
FNDA:0,_RNvNtNtNtCsfVElPQFRzD4_9fastskill3cli8commands7sources15execute_sources
FNDA:0,_RNvNtNtNtCs4etJKk8xmvn_9fastskill3cli8commands7sources15execute_sources
FNDA:0,_RNCNvNtNtNtCs4etJKk8xmvn_9fastskill3cli8commands7sources15execute_sources0B9_
FNF:2
FNH:0
DA:124,0
DA:125,0
DA:126,0
DA:128,0
DA:131,0
DA:132,0
DA:133,0
DA:134,0
DA:135,0
DA:136,0
DA:137,0
DA:138,0
DA:139,0
DA:140,0
DA:142,0
DA:143,0
DA:144,0
DA:145,0
DA:146,0
DA:147,0
DA:148,0
DA:149,0
DA:150,0
DA:151,0
DA:152,0
DA:153,0
DA:154,0
DA:156,0
DA:157,0
DA:158,0
DA:161,0
DA:162,0
DA:163,0
DA:164,0
DA:165,0
DA:166,0
DA:168,0
DA:169,0
DA:170,0
DA:171,0
DA:172,0
DA:173,0
DA:174,0
DA:175,0
DA:177,0
DA:178,0
DA:179,0
DA:180,0
DA:181,0
DA:182,0
DA:183,0
DA:184,0
DA:185,0
DA:186,0
DA:187,0
DA:190,0
BRF:0
BRH:0
LF:57
LH:0
end_of_record
SF:/home/sysuser/ws001/gofastskill/fastskill/src/bin/../cli/commands/update.rs
FN:491,_RNvNtNtNtNtCsfVElPQFRzD4_9fastskill3cli8commands6update5testss_30test_execute_update_check_mode
FN:357,_RNvNtNtNtNtCsfVElPQFRzD4_9fastskill3cli8commands6update5testss_31test_execute_update_no_manifest
FN:393,_RNvNtNtNtNtCsfVElPQFRzD4_9fastskill3cli8commands6update5testss_36test_execute_update_invalid_strategy
FN:505,_RNvXNCNvNtNtNtNtCsfVElPQFRzD4_9fastskill3cli8commands6update5testss_30test_execute_update_check_mode0NtB2_8DirGuardNtNtNtCsiJueO4bndGx_4core3ops4drop4Drop4drop
FN:364,_RNvXNCNvNtNtNtNtCsfVElPQFRzD4_9fastskill3cli8commands6update5testss_31test_execute_update_no_manifest0NtB2_8DirGuardNtNtNtCsiJueO4bndGx_4core3ops4drop4Drop4drop
FN:449,_RNvXNCNvNtNtNtNtCsfVElPQFRzD4_9fastskill3cli8commands6update5testss_36test_execute_update_invalid_strategy0NtB2_8DirGuardNtNtNtCsiJueO4bndGx_4core3ops4drop4Drop4drop
FN:51,_RNvNtNtNtCsfVElPQFRzD4_9fastskill3cli8commands6update14execute_update
FN:231,_RNvNtNtNtCsfVElPQFRzD4_9fastskill3cli8commands6update40create_sources_manager_from_repositories
FN:491,_RNCNvNtNtNtNtCsfVElPQFRzD4_9fastskill3cli8commands6update5testss_30test_execute_update_check_mode0Bb_
FN:357,_RNCNvNtNtNtNtCsfVElPQFRzD4_9fastskill3cli8commands6update5testss_31test_execute_update_no_manifest0Bb_
FN:393,_RNCNvNtNtNtNtCsfVElPQFRzD4_9fastskill3cli8commands6update5testss_36test_execute_update_invalid_strategy0Bb_
FN:57,_RNCNCNvNtNtNtCsfVElPQFRzD4_9fastskill3cli8commands6update14execute_update00Bb_
FN:75,_RNCNCNvNtNtNtCsfVElPQFRzD4_9fastskill3cli8commands6update14execute_update0s0_0Bb_
FN:80,_RNCNCNvNtNtNtCsfVElPQFRzD4_9fastskill3cli8commands6update14execute_update0s1_0Bb_
FN:84,_RNCNCNvNtNtNtCsfVElPQFRzD4_9fastskill3cli8commands6update14execute_update0s2_0Bb_
FN:125,_RNCNCNvNtNtNtCsfVElPQFRzD4_9fastskill3cli8commands6update14execute_update0s3_0Bb_
FN:145,_RNCNCNvNtNtNtCsfVElPQFRzD4_9fastskill3cli8commands6update14execute_update0s4_0Bb_
FN:150,_RNCNCNvNtNtNtCsfVElPQFRzD4_9fastskill3cli8commands6update14execute_update0s5_0Bb_
FN:200,_RNCNCNvNtNtNtCsfVElPQFRzD4_9fastskill3cli8commands6update14execute_update0s6_0Bb_
FN:206,_RNCNCNvNtNtNtCsfVElPQFRzD4_9fastskill3cli8commands6update14execute_update0s7_0Bb_
FN:69,_RNCNCNvNtNtNtCsfVElPQFRzD4_9fastskill3cli8commands6update14execute_update0s_0Bb_
FN:51,_RNCNvNtNtNtCsfVElPQFRzD4_9fastskill3cli8commands6update14execute_update0B9_
FN:245,_RNCNvNtNtNtCsfVElPQFRzD4_9fastskill3cli8commands6update40create_sources_manager_from_repositories0B9_
FN:338,_RNCNvNtNtNtCsfVElPQFRzD4_9fastskill3cli8commands6update40create_sources_manager_from_repositoriess0_0B9_
FN:276,_RNCNvNtNtNtCsfVElPQFRzD4_9fastskill3cli8commands6update40create_sources_manager_from_repositoriess_0B9_
FN:51,_RNvNtNtNtCs4etJKk8xmvn_9fastskill3cli8commands6update14execute_update
FN:231,_RNvNtNtNtCs4etJKk8xmvn_9fastskill3cli8commands6update40create_sources_manager_from_repositories
FN:57,_RNCNCNvNtNtNtCs4etJKk8xmvn_9fastskill3cli8commands6update14execute_update00Bb_
FN:75,_RNCNCNvNtNtNtCs4etJKk8xmvn_9fastskill3cli8commands6update14execute_update0s0_0Bb_
FN:80,_RNCNCNvNtNtNtCs4etJKk8xmvn_9fastskill3cli8commands6update14execute_update0s1_0Bb_
FN:84,_RNCNCNvNtNtNtCs4etJKk8xmvn_9fastskill3cli8commands6update14execute_update0s2_0Bb_
FN:125,_RNCNCNvNtNtNtCs4etJKk8xmvn_9fastskill3cli8commands6update14execute_update0s3_0Bb_
FN:145,_RNCNCNvNtNtNtCs4etJKk8xmvn_9fastskill3cli8commands6update14execute_update0s4_0Bb_
FN:150,_RNCNCNvNtNtNtCs4etJKk8xmvn_9fastskill3cli8commands6update14execute_update0s5_0Bb_
FN:200,_RNCNCNvNtNtNtCs4etJKk8xmvn_9fastskill3cli8commands6update14execute_update0s6_0Bb_
FN:206,_RNCNCNvNtNtNtCs4etJKk8xmvn_9fastskill3cli8commands6update14execute_update0s7_0Bb_
FN:69,_RNCNCNvNtNtNtCs4etJKk8xmvn_9fastskill3cli8commands6update14execute_update0s_0Bb_
FN:51,_RNCNvNtNtNtCs4etJKk8xmvn_9fastskill3cli8commands6update14execute_update0B9_
FN:245,_RNCNvNtNtNtCs4etJKk8xmvn_9fastskill3cli8commands6update40create_sources_manager_from_repositories0B9_
FN:338,_RNCNvNtNtNtCs4etJKk8xmvn_9fastskill3cli8commands6update40create_sources_manager_from_repositoriess0_0B9_
FN:276,_RNCNvNtNtNtCs4etJKk8xmvn_9fastskill3cli8commands6update40create_sources_manager_from_repositoriess_0B9_
FNDA:1,_RNvNtNtNtNtCsfVElPQFRzD4_9fastskill3cli8commands6update5testss_30test_execute_update_check_mode
FNDA:1,_RNvNtNtNtNtCsfVElPQFRzD4_9fastskill3cli8commands6update5testss_31test_execute_update_no_manifest
FNDA:1,_RNvNtNtNtNtCsfVElPQFRzD4_9fastskill3cli8commands6update5testss_36test_execute_update_invalid_strategy
FNDA:1,_RNvXNCNvNtNtNtNtCsfVElPQFRzD4_9fastskill3cli8commands6update5testss_30test_execute_update_check_mode0NtB2_8DirGuardNtNtNtCsiJueO4bndGx_4core3ops4drop4Drop4drop
FNDA:1,_RNvXNCNvNtNtNtNtCsfVElPQFRzD4_9fastskill3cli8commands6update5testss_31test_execute_update_no_manifest0NtB2_8DirGuardNtNtNtCsiJueO4bndGx_4core3ops4drop4Drop4drop
FNDA:1,_RNvXNCNvNtNtNtNtCsfVElPQFRzD4_9fastskill3cli8commands6update5testss_36test_execute_update_invalid_strategy0NtB2_8DirGuardNtNtNtCsiJueO4bndGx_4core3ops4drop4Drop4drop
FNDA:3,_RNvNtNtNtCsfVElPQFRzD4_9fastskill3cli8commands6update14execute_update
FNDA:0,_RNvNtNtNtCsfVElPQFRzD4_9fastskill3cli8commands6update40create_sources_manager_from_repositories
FNDA:1,_RNCNvNtNtNtNtCsfVElPQFRzD4_9fastskill3cli8commands6update5testss_30test_execute_update_check_mode0Bb_
FNDA:1,_RNCNvNtNtNtNtCsfVElPQFRzD4_9fastskill3cli8commands6update5testss_31test_execute_update_no_manifest0Bb_
FNDA:1,_RNCNvNtNtNtNtCsfVElPQFRzD4_9fastskill3cli8commands6update5testss_36test_execute_update_invalid_strategy0Bb_
FNDA:0,_RNCNCNvNtNtNtCsfVElPQFRzD4_9fastskill3cli8commands6update14execute_update00Bb_
FNDA:0,_RNCNCNvNtNtNtCsfVElPQFRzD4_9fastskill3cli8commands6update14execute_update0s0_0Bb_
FNDA:0,_RNCNCNvNtNtNtCsfVElPQFRzD4_9fastskill3cli8commands6update14execute_update0s1_0Bb_
FNDA:0,_RNCNCNvNtNtNtCsfVElPQFRzD4_9fastskill3cli8commands6update14execute_update0s2_0Bb_
FNDA:0,_RNCNCNvNtNtNtCsfVElPQFRzD4_9fastskill3cli8commands6update14execute_update0s3_0Bb_
FNDA:0,_RNCNCNvNtNtNtCsfVElPQFRzD4_9fastskill3cli8commands6update14execute_update0s4_0Bb_
FNDA:0,_RNCNCNvNtNtNtCsfVElPQFRzD4_9fastskill3cli8commands6update14execute_update0s5_0Bb_
FNDA:0,_RNCNCNvNtNtNtCsfVElPQFRzD4_9fastskill3cli8commands6update14execute_update0s6_0Bb_
FNDA:0,_RNCNCNvNtNtNtCsfVElPQFRzD4_9fastskill3cli8commands6update14execute_update0s7_0Bb_
FNDA:0,_RNCNCNvNtNtNtCsfVElPQFRzD4_9fastskill3cli8commands6update14execute_update0s_0Bb_
FNDA:3,_RNCNvNtNtNtCsfVElPQFRzD4_9fastskill3cli8commands6update14execute_update0B9_
FNDA:0,_RNCNvNtNtNtCsfVElPQFRzD4_9fastskill3cli8commands6update40create_sources_manager_from_repositories0B9_
FNDA:0,_RNCNvNtNtNtCsfVElPQFRzD4_9fastskill3cli8commands6update40create_sources_manager_from_repositoriess0_0B9_
FNDA:0,_RNCNvNtNtNtCsfVElPQFRzD4_9fastskill3cli8commands6update40create_sources_manager_from_repositoriess_0B9_
FNDA:0,_RNvNtNtNtCs4etJKk8xmvn_9fastskill3cli8commands6update14execute_update
FNDA:0,_RNvNtNtNtCs4etJKk8xmvn_9fastskill3cli8commands6update40create_sources_manager_from_repositories
FNDA:0,_RNCNCNvNtNtNtCs4etJKk8xmvn_9fastskill3cli8commands6update14execute_update00Bb_
FNDA:0,_RNCNCNvNtNtNtCs4etJKk8xmvn_9fastskill3cli8commands6update14execute_update0s0_0Bb_
FNDA:0,_RNCNCNvNtNtNtCs4etJKk8xmvn_9fastskill3cli8commands6update14execute_update0s1_0Bb_
FNDA:0,_RNCNCNvNtNtNtCs4etJKk8xmvn_9fastskill3cli8commands6update14execute_update0s2_0Bb_
FNDA:0,_RNCNCNvNtNtNtCs4etJKk8xmvn_9fastskill3cli8commands6update14execute_update0s3_0Bb_
FNDA:0,_RNCNCNvNtNtNtCs4etJKk8xmvn_9fastskill3cli8commands6update14execute_update0s4_0Bb_
FNDA:0,_RNCNCNvNtNtNtCs4etJKk8xmvn_9fastskill3cli8commands6update14execute_update0s5_0Bb_
FNDA:0,_RNCNCNvNtNtNtCs4etJKk8xmvn_9fastskill3cli8commands6update14execute_update0s6_0Bb_
FNDA:0,_RNCNCNvNtNtNtCs4etJKk8xmvn_9fastskill3cli8commands6update14execute_update0s7_0Bb_
FNDA:0,_RNCNCNvNtNtNtCs4etJKk8xmvn_9fastskill3cli8commands6update14execute_update0s_0Bb_
FNDA:0,_RNCNvNtNtNtCs4etJKk8xmvn_9fastskill3cli8commands6update14execute_update0B9_
FNDA:0,_RNCNvNtNtNtCs4etJKk8xmvn_9fastskill3cli8commands6update40create_sources_manager_from_repositories0B9_
FNDA:0,_RNCNvNtNtNtCs4etJKk8xmvn_9fastskill3cli8commands6update40create_sources_manager_from_repositoriess0_0B9_
FNDA:0,_RNCNvNtNtNtCs4etJKk8xmvn_9fastskill3cli8commands6update40create_sources_manager_from_repositoriess_0B9_
FNF:25
FNH:11
DA:51,3
DA:52,3
DA:53,3
DA:56,3
DA:57,3
DA:58,3
DA:59,3
DA:61,3
DA:62,2
DA:63,2
DA:64,2
DA:65,2
DA:66,1
DA:68,1
DA:69,1
DA:72,1
DA:73,1
DA:74,1
DA:75,1
DA:78,1
DA:79,1
DA:80,1
DA:83,1
DA:84,0
DA:85,1
DA:87,1
DA:88,0
DA:89,0
DA:90,1
DA:93,1
DA:94,1
DA:95,1
DA:96,1
DA:97,1
DA:99,1
DA:100,0
DA:102,1
DA:103,1
DA:104,1
DA:105,1
DA:111,0
DA:112,0
DA:114,0
DA:118,0
DA:119,0
DA:121,0
DA:123,0
DA:124,0
DA:125,0
DA:127,0
DA:128,0
DA:129,0
DA:133,0
DA:134,0
DA:137,0
DA:139,0
DA:140,0
DA:141,0
DA:142,0
DA:143,0
DA:144,0
DA:145,0
DA:147,0
DA:148,0
DA:149,0
DA:150,0
DA:152,0
DA:153,0
DA:154,0
DA:155,0
DA:156,0
DA:157,0
DA:158,0
DA:159,0
DA:160,0
DA:161,0
DA:164,0
DA:165,0
DA:166,0
DA:167,0
DA:169,0
DA:170,0
DA:171,0
DA:172,0
DA:173,0
DA:174,0
DA:175,0
DA:176,0
DA:180,0
DA:181,0
DA:182,0
DA:183,0
DA:184,0
DA:187,0
DA:188,0
DA:191,0
DA:194,0
DA:195,0
DA:196,0
DA:197,0
DA:198,0
DA:199,0
DA:200,0
DA:202,0
DA:204,0
DA:205,0
DA:206,0
DA:207,0
DA:208,0
DA:210,0
DA:211,0
DA:212,0
DA:213,0
DA:214,0
DA:215,0
DA:219,0
DA:220,0
DA:222,0
DA:224,0
DA:226,0
DA:227,3
DA:231,0
DA:232,0
DA:233,0
DA:236,0
DA:237,0
DA:239,0
DA:241,0
DA:243,0
DA:245,0
DA:246,0
DA:247,0
DA:248,0
DA:249,0
DA:251,0
DA:252,0
DA:255,0
DA:256,0
DA:257,0
DA:258,0
DA:259,0
DA:260,0
DA:261,0
DA:262,0
DA:264,0
DA:265,0
DA:266,0
DA:267,0
DA:268,0
DA:269,0
DA:271,0
DA:275,0
DA:276,0
DA:277,0
DA:278,0
DA:279,0
DA:280,0
DA:283,0
DA:284,0
DA:285,0
DA:286,0
DA:287,0
DA:288,0
DA:289,0
DA:290,0
DA:292,0
DA:293,0
DA:294,0
DA:295,0
DA:297,0
DA:301,0
DA:302,0
DA:304,0
DA:309,0
DA:313,0
DA:314,0
DA:315,0
DA:316,0
DA:317,0
DA:318,0
DA:319,0
DA:322,0
DA:323,0
DA:324,0
DA:327,0
DA:328,0
DA:331,0
DA:332,0
DA:333,0
DA:334,0
DA:335,0
DA:336,0
DA:338,0
DA:341,0
DA:342,0
DA:357,1
DA:358,1
DA:359,1
DA:364,1
DA:365,1
DA:366,1
DA:367,1
DA:368,1
DA:370,1
DA:372,1
DA:374,1
DA:375,1
DA:376,1
DA:377,1
DA:378,1
DA:379,1
DA:380,1
DA:381,1
DA:383,1
DA:384,1
DA:385,1
DA:386,1
DA:387,1
DA:388,1
DA:389,1
DA:390,1
DA:393,1
DA:394,1
DA:397,1
DA:398,0
DA:401,1
DA:407,1
DA:408,1
DA:411,1
DA:412,1
DA:417,1
DA:421,1
DA:430,1
DA:432,1
DA:435,1
DA:436,1
DA:438,0
DA:440,1
DA:441,1
DA:443,0
DA:449,1
DA:450,1
DA:451,1
DA:453,1
DA:456,1
DA:457,0
DA:458,1
DA:460,1
DA:461,1
DA:462,1
DA:463,1
DA:464,1
DA:465,1
DA:466,1
DA:467,1
DA:469,1
DA:471,1
DA:472,1
DA:473,1
DA:474,1
DA:475,1
DA:476,1
DA:477,1
DA:478,1
DA:479,1
DA:480,1
DA:481,1
DA:482,1
DA:483,1
DA:484,1
DA:485,1
DA:486,1
DA:487,1
DA:488,1
DA:491,1
DA:496,1
DA:497,1
DA:500,1
DA:505,1
DA:506,1
DA:507,0
DA:508,1
DA:509,1
DA:511,1
DA:513,1
DA:516,1
DA:517,1
DA:519,1
DA:520,1
DA:521,1
DA:522,1
DA:523,1
DA:524,1
DA:525,1
DA:526,1
DA:529,1
DA:531,1
DA:534,1
DA:535,1
BRF:0
BRH:0
LF:328
LH:146
end_of_record
SF:/home/sysuser/ws001/gofastskill/fastskill/src/bin/../cli/commands/version.rs
FN:10,_RNvNtNtNtCsfVElPQFRzD4_9fastskill3cli8commands7version15execute_version
FN:10,_RNCNvNtNtNtCsfVElPQFRzD4_9fastskill3cli8commands7version15execute_version0B9_
FN:10,_RNCNvNtNtNtCs4etJKk8xmvn_9fastskill3cli8commands7version15execute_version0B9_
FN:10,_RNvNtNtNtCs4etJKk8xmvn_9fastskill3cli8commands7version15execute_version
FNDA:0,_RNvNtNtNtCsfVElPQFRzD4_9fastskill3cli8commands7version15execute_version
FNDA:0,_RNCNvNtNtNtCsfVElPQFRzD4_9fastskill3cli8commands7version15execute_version0B9_
FNDA:0,_RNCNvNtNtNtCs4etJKk8xmvn_9fastskill3cli8commands7version15execute_version0B9_
FNDA:0,_RNvNtNtNtCs4etJKk8xmvn_9fastskill3cli8commands7version15execute_version
FNF:2
FNH:0
DA:10,0
DA:11,0
DA:12,0
DA:13,0
BRF:0
BRH:0
LF:5
LH:0
end_of_record
SF:/home/sysuser/ws001/gofastskill/fastskill/src/bin/../cli/config.rs
FN:107,_RNCNCNvNtNtCsfVElPQFRzD4_9fastskill3cli6config29convert_repository_definition00B9_
FN:197,_RNCNvNtNtCsfVElPQFRzD4_9fastskill3cli6config21create_service_configs_0B7_
FN:105,_RNCNvNtNtCsfVElPQFRzD4_9fastskill3cli6config29convert_repository_definition0B7_
FN:35,_RNCNvNtNtCsfVElPQFRzD4_9fastskill3cli6config30load_repositories_from_project0B7_
FN:44,_RNCNvNtNtCsfVElPQFRzD4_9fastskill3cli6config30load_repositories_from_projects_0B7_
FN:128,_RNCNvNtNtCsfVElPQFRzD4_9fastskill3cli6config32resolve_skills_storage_directory0B7_
FN:183,_RNvNtNtCsfVElPQFRzD4_9fastskill3cli6config21create_service_config
FN:13,_RNvNtNtCsfVElPQFRzD4_9fastskill3cli6config22walk_up_for_skills_dir
FN:69,_RNvNtNtCsfVElPQFRzD4_9fastskill3cli6config29convert_repository_definition
FN:33,_RNvNtNtCsfVElPQFRzD4_9fastskill3cli6config30load_repositories_from_project
FN:126,_RNvNtNtCsfVElPQFRzD4_9fastskill3cli6config32resolve_skills_storage_directory
FN:183,_RNvNtNtCs4etJKk8xmvn_9fastskill3cli6config21create_service_config
FN:13,_RNvNtNtCs4etJKk8xmvn_9fastskill3cli6config22walk_up_for_skills_dir
FN:69,_RNvNtNtCs4etJKk8xmvn_9fastskill3cli6config29convert_repository_definition
FN:33,_RNvNtNtCs4etJKk8xmvn_9fastskill3cli6config30load_repositories_from_project
FN:126,_RNvNtNtCs4etJKk8xmvn_9fastskill3cli6config32resolve_skills_storage_directory
FN:107,_RNCNCNvNtNtCs4etJKk8xmvn_9fastskill3cli6config29convert_repository_definition00B9_
FN:197,_RNCNvNtNtCs4etJKk8xmvn_9fastskill3cli6config21create_service_configs_0B7_
FN:105,_RNCNvNtNtCs4etJKk8xmvn_9fastskill3cli6config29convert_repository_definition0B7_
FN:35,_RNCNvNtNtCs4etJKk8xmvn_9fastskill3cli6config30load_repositories_from_project0B7_
FN:44,_RNCNvNtNtCs4etJKk8xmvn_9fastskill3cli6config30load_repositories_from_projects_0B7_
FN:128,_RNCNvNtNtCs4etJKk8xmvn_9fastskill3cli6config32resolve_skills_storage_directory0B7_
FNDA:0,_RNCNCNvNtNtCsfVElPQFRzD4_9fastskill3cli6config29convert_repository_definition00B9_
FNDA:0,_RNCNvNtNtCsfVElPQFRzD4_9fastskill3cli6config21create_service_configs_0B7_
FNDA:0,_RNCNvNtNtCsfVElPQFRzD4_9fastskill3cli6config29convert_repository_definition0B7_
FNDA:1,_RNCNvNtNtCsfVElPQFRzD4_9fastskill3cli6config30load_repositories_from_project0B7_
FNDA:0,_RNCNvNtNtCsfVElPQFRzD4_9fastskill3cli6config30load_repositories_from_projects_0B7_
FNDA:2,_RNCNvNtNtCsfVElPQFRzD4_9fastskill3cli6config32resolve_skills_storage_directory0B7_
FNDA:3,_RNvNtNtCsfVElPQFRzD4_9fastskill3cli6config21create_service_config
FNDA:6,_RNvNtNtCsfVElPQFRzD4_9fastskill3cli6config22walk_up_for_skills_dir
FNDA:0,_RNvNtNtCsfVElPQFRzD4_9fastskill3cli6config29convert_repository_definition
FNDA:3,_RNvNtNtCsfVElPQFRzD4_9fastskill3cli6config30load_repositories_from_project
FNDA:8,_RNvNtNtCsfVElPQFRzD4_9fastskill3cli6config32resolve_skills_storage_directory
FNDA:0,_RNvNtNtCs4etJKk8xmvn_9fastskill3cli6config21create_service_config
FNDA:0,_RNvNtNtCs4etJKk8xmvn_9fastskill3cli6config22walk_up_for_skills_dir
FNDA:0,_RNvNtNtCs4etJKk8xmvn_9fastskill3cli6config29convert_repository_definition
FNDA:0,_RNvNtNtCs4etJKk8xmvn_9fastskill3cli6config30load_repositories_from_project
FNDA:0,_RNvNtNtCs4etJKk8xmvn_9fastskill3cli6config32resolve_skills_storage_directory
FNDA:0,_RNCNCNvNtNtCs4etJKk8xmvn_9fastskill3cli6config29convert_repository_definition00B9_
FNDA:0,_RNCNvNtNtCs4etJKk8xmvn_9fastskill3cli6config21create_service_configs_0B7_
FNDA:0,_RNCNvNtNtCs4etJKk8xmvn_9fastskill3cli6config29convert_repository_definition0B7_
FNDA:0,_RNCNvNtNtCs4etJKk8xmvn_9fastskill3cli6config30load_repositories_from_project0B7_
FNDA:0,_RNCNvNtNtCs4etJKk8xmvn_9fastskill3cli6config30load_repositories_from_projects_0B7_
FNDA:0,_RNCNvNtNtCs4etJKk8xmvn_9fastskill3cli6config32resolve_skills_storage_directory0B7_
FNF:11
FNH:6
DA:13,6
DA:14,6
DA:17,14
DA:18,14
DA:19,2
DA:20,12
DA:23,12
DA:24,4
DA:25,8
DA:28,4
DA:29,6
DA:33,3
DA:34,3
DA:35,3
DA:38,2
DA:39,2
DA:40,2
DA:41,0
DA:42,0
DA:44,0
DA:45,0
DA:46,0
DA:47,0
DA:48,0
DA:49,0
DA:50,0
DA:53,0
DA:54,0
DA:55,0
DA:56,0
DA:57,0
DA:60,0
DA:61,0
DA:62,0
DA:63,0
DA:64,0
DA:65,3
DA:69,0
DA:70,0
DA:71,0
DA:75,0
DA:76,0
DA:77,0
DA:78,0
DA:79,0
DA:83,0
DA:84,0
DA:85,0
DA:87,0
DA:88,0
DA:89,0
DA:90,0
DA:91,0
DA:92,0
DA:94,0
DA:95,0
DA:97,0
DA:98,0
DA:99,0
DA:100,0
DA:105,0
DA:107,0
DA:109,0
DA:111,0
DA:112,0
DA:113,0
DA:114,0
DA:115,0
DA:116,0
DA:117,0
DA:118,0
DA:119,0
DA:126,8
DA:127,8
DA:128,8
DA:131,6
DA:132,6
DA:133,0
DA:134,0
DA:135,0
DA:136,0
DA:137,0
DA:138,0
DA:141,0
DA:142,0
DA:143,0
DA:144,0
DA:148,0
DA:149,0
DA:151,0
DA:153,0
DA:154,0
DA:157,0
DA:159,0
DA:161,0
DA:162,0
DA:163,0
DA:164,0
DA:165,6
DA:168,6
DA:169,2
DA:171,0
DA:173,2
DA:174,4
DA:177,4
DA:178,4
DA:179,4
DA:180,8
DA:183,3
DA:184,3
DA:185,3
DA:186,3
DA:188,3
DA:191,3
DA:194,3
DA:195,3
DA:196,3
DA:197,0
DA:198,0
DA:199,0
DA:200,0
DA:203,3
DA:204,3
DA:205,0
DA:206,0
DA:207,0
DA:208,0
DA:210,0
DA:211,0
DA:212,0
DA:213,0
DA:214,0
DA:215,0
DA:216,0
DA:217,0
DA:218,0
DA:219,0
DA:220,0
DA:222,0
DA:225,3
DA:229,3
DA:232,3
DA:234,3
DA:235,3
DA:236,3
DA:237,3
DA:238,3
DA:239,3
DA:240,3
DA:241,3
DA:242,3
BRF:0
BRH:0
LF:157
LH:57
end_of_record
SF:/home/sysuser/ws001/gofastskill/fastskill/src/bin/../cli/config_file.rs
FN:35,_RNCNvNtNtCsfVElPQFRzD4_9fastskill3cli11config_file11load_config0B7_
FN:81,_RNCNvNtNtCsfVElPQFRzD4_9fastskill3cli11config_file18get_openai_api_key0B7_
FN:49,_RNCNvNtNtCsfVElPQFRzD4_9fastskill3cli11config_file30load_config_from_skill_project0B7_
FN:63,_RNCNvNtNtCsfVElPQFRzD4_9fastskill3cli11config_file30load_config_from_skill_projects0_0B7_
FN:33,_RNvNtNtCsfVElPQFRzD4_9fastskill3cli11config_file11load_config
FN:79,_RNvNtNtCsfVElPQFRzD4_9fastskill3cli11config_file18get_openai_api_key
FN:85,_RNvNtNtCsfVElPQFRzD4_9fastskill3cli11config_file23get_config_search_paths
FN:41,_RNvNtNtCsfVElPQFRzD4_9fastskill3cli11config_file30load_config_from_skill_project
FN:35,_RNCNvNtNtCs4etJKk8xmvn_9fastskill3cli11config_file11load_config0B7_
FN:81,_RNCNvNtNtCs4etJKk8xmvn_9fastskill3cli11config_file18get_openai_api_key0B7_
FN:49,_RNCNvNtNtCs4etJKk8xmvn_9fastskill3cli11config_file30load_config_from_skill_project0B7_
FN:63,_RNCNvNtNtCs4etJKk8xmvn_9fastskill3cli11config_file30load_config_from_skill_projects0_0B7_
FN:33,_RNvNtNtCs4etJKk8xmvn_9fastskill3cli11config_file11load_config
FN:79,_RNvNtNtCs4etJKk8xmvn_9fastskill3cli11config_file18get_openai_api_key
FN:85,_RNvNtNtCs4etJKk8xmvn_9fastskill3cli11config_file23get_config_search_paths
FN:41,_RNvNtNtCs4etJKk8xmvn_9fastskill3cli11config_file30load_config_from_skill_project
FNDA:0,_RNCNvNtNtCsfVElPQFRzD4_9fastskill3cli11config_file11load_config0B7_
FNDA:4,_RNCNvNtNtCsfVElPQFRzD4_9fastskill3cli11config_file18get_openai_api_key0B7_
FNDA:0,_RNCNvNtNtCsfVElPQFRzD4_9fastskill3cli11config_file30load_config_from_skill_project0B7_
FNDA:0,_RNCNvNtNtCsfVElPQFRzD4_9fastskill3cli11config_file30load_config_from_skill_projects0_0B7_
FNDA:3,_RNvNtNtCsfVElPQFRzD4_9fastskill3cli11config_file11load_config
FNDA:4,_RNvNtNtCsfVElPQFRzD4_9fastskill3cli11config_file18get_openai_api_key
FNDA:2,_RNvNtNtCsfVElPQFRzD4_9fastskill3cli11config_file23get_config_search_paths
FNDA:3,_RNvNtNtCsfVElPQFRzD4_9fastskill3cli11config_file30load_config_from_skill_project
FNDA:0,_RNCNvNtNtCs4etJKk8xmvn_9fastskill3cli11config_file11load_config0B7_
FNDA:0,_RNCNvNtNtCs4etJKk8xmvn_9fastskill3cli11config_file18get_openai_api_key0B7_
FNDA:0,_RNCNvNtNtCs4etJKk8xmvn_9fastskill3cli11config_file30load_config_from_skill_project0B7_
FNDA:0,_RNCNvNtNtCs4etJKk8xmvn_9fastskill3cli11config_file30load_config_from_skill_projects0_0B7_
FNDA:0,_RNvNtNtCs4etJKk8xmvn_9fastskill3cli11config_file11load_config
FNDA:0,_RNvNtNtCs4etJKk8xmvn_9fastskill3cli11config_file18get_openai_api_key
FNDA:0,_RNvNtNtCs4etJKk8xmvn_9fastskill3cli11config_file23get_config_search_paths
FNDA:0,_RNvNtNtCs4etJKk8xmvn_9fastskill3cli11config_file30load_config_from_skill_project
FNF:8
FNH:5
DA:33,3
DA:34,3
DA:35,3
DA:37,3
DA:38,3
DA:41,3
DA:43,3
DA:44,3
DA:45,3
DA:46,0
DA:48,0
DA:49,0
DA:50,0
DA:51,0
DA:52,0
DA:53,0
DA:54,0
DA:55,0
DA:58,0
DA:60,0
DA:62,0
DA:63,0
DA:64,0
DA:65,0
DA:66,0
DA:68,0
DA:69,0
DA:70,0
DA:71,0
DA:74,0
DA:76,3
DA:79,4
DA:80,4
DA:81,4
DA:82,4
DA:85,2
DA:86,2
DA:89,2
DA:90,0
DA:92,0
DA:93,0
DA:95,0
DA:96,0
DA:97,0
DA:99,2
DA:101,2
DA:102,2
BRF:0
BRH:0
LF:51
LH:21
end_of_record
SF:/home/sysuser/ws001/gofastskill/fastskill/src/bin/../cli/error.rs
FN:131,_RNCNvNtNtCsfVElPQFRzD4_9fastskill3cli5error19extract_line_number0B7_
FN:142,_RNCNvNtNtCsfVElPQFRzD4_9fastskill3cli5error19extract_line_numbers_0B7_
FN:110,_RNvMNtNtCsfVElPQFRzD4_9fastskill3cli5errorNtB2_15ValidationError15from_toml_error
FN:157,_RNvMs_NtNtCsfVElPQFRzD4_9fastskill3cli5errorNtB4_8CliError9exit_code
FN:126,_RNvNtNtCsfVElPQFRzD4_9fastskill3cli5error19extract_line_number
FN:157,_RNvMs_NtNtCs4etJKk8xmvn_9fastskill3cli5errorNtB4_8CliError9exit_code
FN:131,_RNCNvNtNtCs4etJKk8xmvn_9fastskill3cli5error19extract_line_number0B7_
FN:142,_RNCNvNtNtCs4etJKk8xmvn_9fastskill3cli5error19extract_line_numbers_0B7_
FN:110,_RNvMNtNtCs4etJKk8xmvn_9fastskill3cli5errorNtB2_15ValidationError15from_toml_error
FN:126,_RNvNtNtCs4etJKk8xmvn_9fastskill3cli5error19extract_line_number
FNDA:0,_RNCNvNtNtCsfVElPQFRzD4_9fastskill3cli5error19extract_line_number0B7_
FNDA:0,_RNCNvNtNtCsfVElPQFRzD4_9fastskill3cli5error19extract_line_numbers_0B7_
FNDA:0,_RNvMNtNtCsfVElPQFRzD4_9fastskill3cli5errorNtB2_15ValidationError15from_toml_error
FNDA:0,_RNvMs_NtNtCsfVElPQFRzD4_9fastskill3cli5errorNtB4_8CliError9exit_code
FNDA:0,_RNvNtNtCsfVElPQFRzD4_9fastskill3cli5error19extract_line_number
FNDA:0,_RNvMs_NtNtCs4etJKk8xmvn_9fastskill3cli5errorNtB4_8CliError9exit_code
FNDA:0,_RNCNvNtNtCs4etJKk8xmvn_9fastskill3cli5error19extract_line_number0B7_
FNDA:0,_RNCNvNtNtCs4etJKk8xmvn_9fastskill3cli5error19extract_line_numbers_0B7_
FNDA:0,_RNvMNtNtCs4etJKk8xmvn_9fastskill3cli5errorNtB2_15ValidationError15from_toml_error
FNDA:0,_RNvNtNtCs4etJKk8xmvn_9fastskill3cli5error19extract_line_number
FNF:5
FNH:0
DA:110,0
DA:113,0
DA:114,0
DA:116,0
DA:117,0
DA:118,0
DA:119,0
DA:120,0
DA:126,0
DA:128,0
DA:129,0
DA:130,0
DA:131,0
DA:132,0
DA:133,0
DA:134,0
DA:135,0
DA:136,0
DA:139,0
DA:140,0
DA:141,0
DA:142,0
DA:143,0
DA:144,0
DA:145,0
DA:146,0
DA:147,0
DA:149,0
DA:150,0
DA:157,0
DA:158,0
DA:160,0
DA:162,0
DA:164,0
DA:166,0
BRF:0
BRH:0
LF:37
LH:0
end_of_record
SF:/home/sysuser/ws001/gofastskill/fastskill/src/bin/../cli/utils.rs
FN:88,_RNCNvNtNtCsfVElPQFRzD4_9fastskill3cli5utils13parse_git_url0B7_
FN:94,_RNCNvNtNtCsfVElPQFRzD4_9fastskill3cli5utils13parse_git_urls0_0B7_
FN:97,_RNCNvNtNtCsfVElPQFRzD4_9fastskill3cli5utils13parse_git_urls1_0B7_
FN:93,_RNCNvNtNtCsfVElPQFRzD4_9fastskill3cli5utils13parse_git_urls_0B7_
FN:68,_RNCNvNtNtCsfVElPQFRzD4_9fastskill3cli5utils19detect_skill_source0B7_
FN:154,_RNCNvNtNtCsfVElPQFRzD4_9fastskill3cli5utils24validate_skill_structure0B7_
FN:188,_RNCNvNtNtCsfVElPQFRzD4_9fastskill3cli5utils24validate_skill_structures_0B7_
FN:257,_RNCNvNtNtCsfVElPQFRzD4_9fastskill3cli5utils18format_skills_json0B7_
FN:256,_RNvNtNtCsfVElPQFRzD4_9fastskill3cli5utils18format_skills_json
FN:210,_RNvNtNtCsfVElPQFRzD4_9fastskill3cli5utils19format_skill_output
FN:228,_RNvNtNtCsfVElPQFRzD4_9fastskill3cli5utils19format_skills_table
FN:21,_RNvNtNtCsfVElPQFRzD4_9fastskill3cli5utils11is_skill_id
FN:86,_RNvNtNtCsfVElPQFRzD4_9fastskill3cli5utils13parse_git_url
FN:41,_RNvNtNtCsfVElPQFRzD4_9fastskill3cli5utils14parse_skill_id
FN:52,_RNvNtNtCsfVElPQFRzD4_9fastskill3cli5utils19detect_skill_source
FN:141,_RNvNtNtCsfVElPQFRzD4_9fastskill3cli5utils24validate_skill_structure
FN:21,_RNvNtNtCs4etJKk8xmvn_9fastskill3cli5utils11is_skill_id
FN:86,_RNvNtNtCs4etJKk8xmvn_9fastskill3cli5utils13parse_git_url
FN:41,_RNvNtNtCs4etJKk8xmvn_9fastskill3cli5utils14parse_skill_id
FN:52,_RNvNtNtCs4etJKk8xmvn_9fastskill3cli5utils19detect_skill_source
FN:141,_RNvNtNtCs4etJKk8xmvn_9fastskill3cli5utils24validate_skill_structure
FN:257,_RNCNvNtNtCs4etJKk8xmvn_9fastskill3cli5utils18format_skills_json0B7_
FN:256,_RNvNtNtCs4etJKk8xmvn_9fastskill3cli5utils18format_skills_json
FN:210,_RNvNtNtCs4etJKk8xmvn_9fastskill3cli5utils19format_skill_output
FN:228,_RNvNtNtCs4etJKk8xmvn_9fastskill3cli5utils19format_skills_table
FN:88,_RNCNvNtNtCs4etJKk8xmvn_9fastskill3cli5utils13parse_git_url0B7_
FN:94,_RNCNvNtNtCs4etJKk8xmvn_9fastskill3cli5utils13parse_git_urls0_0B7_
FN:97,_RNCNvNtNtCs4etJKk8xmvn_9fastskill3cli5utils13parse_git_urls1_0B7_
FN:93,_RNCNvNtNtCs4etJKk8xmvn_9fastskill3cli5utils13parse_git_urls_0B7_
FN:68,_RNCNvNtNtCs4etJKk8xmvn_9fastskill3cli5utils19detect_skill_source0B7_
FN:154,_RNCNvNtNtCs4etJKk8xmvn_9fastskill3cli5utils24validate_skill_structure0B7_
FN:188,_RNCNvNtNtCs4etJKk8xmvn_9fastskill3cli5utils24validate_skill_structures_0B7_
FNDA:0,_RNCNvNtNtCsfVElPQFRzD4_9fastskill3cli5utils13parse_git_url0B7_
FNDA:0,_RNCNvNtNtCsfVElPQFRzD4_9fastskill3cli5utils13parse_git_urls0_0B7_
FNDA:0,_RNCNvNtNtCsfVElPQFRzD4_9fastskill3cli5utils13parse_git_urls1_0B7_
FNDA:0,_RNCNvNtNtCsfVElPQFRzD4_9fastskill3cli5utils13parse_git_urls_0B7_
FNDA:0,_RNCNvNtNtCsfVElPQFRzD4_9fastskill3cli5utils19detect_skill_source0B7_
FNDA:2,_RNCNvNtNtCsfVElPQFRzD4_9fastskill3cli5utils24validate_skill_structure0B7_
FNDA:0,_RNCNvNtNtCsfVElPQFRzD4_9fastskill3cli5utils24validate_skill_structures_0B7_
FNDA:0,_RNCNvNtNtCsfVElPQFRzD4_9fastskill3cli5utils18format_skills_json0B7_
FNDA:0,_RNvNtNtCsfVElPQFRzD4_9fastskill3cli5utils18format_skills_json
FNDA:0,_RNvNtNtCsfVElPQFRzD4_9fastskill3cli5utils19format_skill_output
FNDA:0,_RNvNtNtCsfVElPQFRzD4_9fastskill3cli5utils19format_skills_table
FNDA:0,_RNvNtNtCsfVElPQFRzD4_9fastskill3cli5utils11is_skill_id
FNDA:0,_RNvNtNtCsfVElPQFRzD4_9fastskill3cli5utils13parse_git_url
FNDA:1,_RNvNtNtCsfVElPQFRzD4_9fastskill3cli5utils14parse_skill_id
FNDA:0,_RNvNtNtCsfVElPQFRzD4_9fastskill3cli5utils19detect_skill_source
FNDA:2,_RNvNtNtCsfVElPQFRzD4_9fastskill3cli5utils24validate_skill_structure
FNDA:0,_RNvNtNtCs4etJKk8xmvn_9fastskill3cli5utils11is_skill_id
FNDA:0,_RNvNtNtCs4etJKk8xmvn_9fastskill3cli5utils13parse_git_url
FNDA:0,_RNvNtNtCs4etJKk8xmvn_9fastskill3cli5utils14parse_skill_id
FNDA:0,_RNvNtNtCs4etJKk8xmvn_9fastskill3cli5utils19detect_skill_source
FNDA:0,_RNvNtNtCs4etJKk8xmvn_9fastskill3cli5utils24validate_skill_structure
FNDA:0,_RNCNvNtNtCs4etJKk8xmvn_9fastskill3cli5utils18format_skills_json0B7_
FNDA:0,_RNvNtNtCs4etJKk8xmvn_9fastskill3cli5utils18format_skills_json
FNDA:0,_RNvNtNtCs4etJKk8xmvn_9fastskill3cli5utils19format_skill_output
FNDA:0,_RNvNtNtCs4etJKk8xmvn_9fastskill3cli5utils19format_skills_table
FNDA:0,_RNCNvNtNtCs4etJKk8xmvn_9fastskill3cli5utils13parse_git_url0B7_
FNDA:0,_RNCNvNtNtCs4etJKk8xmvn_9fastskill3cli5utils13parse_git_urls0_0B7_
FNDA:0,_RNCNvNtNtCs4etJKk8xmvn_9fastskill3cli5utils13parse_git_urls1_0B7_
FNDA:0,_RNCNvNtNtCs4etJKk8xmvn_9fastskill3cli5utils13parse_git_urls_0B7_
FNDA:0,_RNCNvNtNtCs4etJKk8xmvn_9fastskill3cli5utils19detect_skill_source0B7_
FNDA:0,_RNCNvNtNtCs4etJKk8xmvn_9fastskill3cli5utils24validate_skill_structure0B7_
FNDA:0,_RNCNvNtNtCs4etJKk8xmvn_9fastskill3cli5utils24validate_skill_structures_0B7_
FNF:16
FNH:3
DA:21,0
DA:26,0
DA:27,0
DA:28,0
DA:34,0
DA:35,0
DA:36,0
DA:37,0
DA:38,0
DA:41,1
DA:42,1
DA:43,1
DA:44,1
DA:45,1
DA:47,0
DA:49,1
DA:52,0
DA:54,0
DA:55,0
DA:56,0
DA:59,0
DA:60,0
DA:61,0
DA:62,0
DA:63,0
DA:65,0
DA:68,0
DA:69,0
DA:70,0
DA:73,0
DA:74,0
DA:86,0
DA:87,0
DA:88,0
DA:91,0
DA:92,0
DA:93,0
DA:94,0
DA:97,0
DA:98,0
DA:99,0
DA:101,0
DA:102,0
DA:103,0
DA:104,0
DA:107,0
DA:108,0
DA:109,0
DA:110,0
DA:111,0
DA:114,0
DA:115,0
DA:116,0
DA:119,0
DA:120,0
DA:121,0
DA:122,0
DA:123,0
DA:126,0
DA:127,0
DA:128,0
DA:130,0
DA:131,0
DA:133,0
DA:134,0
DA:135,0
DA:136,0
DA:137,0
DA:138,0
DA:141,2
DA:145,2
DA:147,2
DA:148,2
DA:149,2
DA:151,2
DA:152,2
DA:153,2
DA:154,2
DA:155,0
DA:156,0
DA:158,0
DA:162,0
DA:166,0
DA:170,0
DA:171,0
DA:173,0
DA:174,0
DA:176,2
DA:177,2
DA:179,0
DA:180,0
DA:182,2
DA:183,2
DA:185,2
DA:186,2
DA:187,2
DA:188,2
DA:189,2
DA:191,2
DA:192,2
DA:194,2
DA:195,0
DA:198,0
DA:199,0
DA:200,0
DA:202,0
DA:204,0
DA:206,2
DA:210,0
DA:211,0
DA:212,0
DA:213,0
DA:215,0
DA:228,0
DA:229,0
DA:230,0
DA:231,0
DA:233,0
DA:237,0
DA:239,0
DA:240,0
DA:241,0
DA:242,0
DA:244,0
DA:246,0
DA:247,0
DA:248,0
DA:249,0
DA:252,0
DA:253,0
DA:256,0
DA:257,0
DA:258,0
BRF:0
BRH:0
LF:141
LH:29
end_of_record
SF:/home/sysuser/ws001/gofastskill/fastskill/src/bin/../cli/utils/api_client.rs
FN:77,_RNvMNtNtNtCsfVElPQFRzD4_9fastskill3cli5utils10api_clientNtB2_9ApiClient15publish_package
FN:141,_RNvMNtNtNtCsfVElPQFRzD4_9fastskill3cli5utils10api_clientNtB2_9ApiClient18get_publish_status
FN:190,_RNvMNtNtNtCsfVElPQFRzD4_9fastskill3cli5utils10api_clientNtB2_9ApiClient19wait_for_completion
FN:62,_RNvMNtNtNtCsfVElPQFRzD4_9fastskill3cli5utils10api_clientNtB2_9ApiClient3new
FN:86,_RNCNCNvMNtNtNtCsfVElPQFRzD4_9fastskill3cli5utils10api_clientNtB6_9ApiClient15publish_package00Bc_
FN:107,_RNCNCNvMNtNtNtCsfVElPQFRzD4_9fastskill3cli5utils10api_clientNtB6_9ApiClient15publish_package0s0_0Bc_
FN:115,_RNCNCNvMNtNtNtCsfVElPQFRzD4_9fastskill3cli5utils10api_clientNtB6_9ApiClient15publish_package0s1_0Bc_
FN:126,_RNCNCNvMNtNtNtCsfVElPQFRzD4_9fastskill3cli5utils10api_clientNtB6_9ApiClient15publish_package0s2_0Bc_
FN:137,_RNCNCNvMNtNtNtCsfVElPQFRzD4_9fastskill3cli5utils10api_clientNtB6_9ApiClient15publish_package0s3_0Bc_
FN:87,_RNCNCNvMNtNtNtCsfVElPQFRzD4_9fastskill3cli5utils10api_clientNtB6_9ApiClient15publish_package0s_0Bc_
FN:156,_RNCNCNvMNtNtNtCsfVElPQFRzD4_9fastskill3cli5utils10api_clientNtB6_9ApiClient18get_publish_status00Bc_
FN:175,_RNCNCNvMNtNtNtCsfVElPQFRzD4_9fastskill3cli5utils10api_clientNtB6_9ApiClient18get_publish_status0s0_0Bc_
FN:186,_RNCNCNvMNtNtNtCsfVElPQFRzD4_9fastskill3cli5utils10api_clientNtB6_9ApiClient18get_publish_status0s1_0Bc_
FN:164,_RNCNCNvMNtNtNtCsfVElPQFRzD4_9fastskill3cli5utils10api_clientNtB6_9ApiClient18get_publish_status0s_0Bc_
FN:77,_RNCNvMNtNtNtCsfVElPQFRzD4_9fastskill3cli5utils10api_clientNtB4_9ApiClient15publish_package0Ba_
FN:141,_RNCNvMNtNtNtCsfVElPQFRzD4_9fastskill3cli5utils10api_clientNtB4_9ApiClient18get_publish_status0Ba_
FN:194,_RNCNvMNtNtNtCsfVElPQFRzD4_9fastskill3cli5utils10api_clientNtB4_9ApiClient19wait_for_completion0Ba_
FN:66,_RNCNvMNtNtNtCsfVElPQFRzD4_9fastskill3cli5utils10api_clientNtB4_9ApiClient3new0Ba_
FN:77,_RNvMNtNtNtCs4etJKk8xmvn_9fastskill3cli5utils10api_clientNtB2_9ApiClient15publish_package
FN:141,_RNvMNtNtNtCs4etJKk8xmvn_9fastskill3cli5utils10api_clientNtB2_9ApiClient18get_publish_status
FN:190,_RNvMNtNtNtCs4etJKk8xmvn_9fastskill3cli5utils10api_clientNtB2_9ApiClient19wait_for_completion
FN:62,_RNvMNtNtNtCs4etJKk8xmvn_9fastskill3cli5utils10api_clientNtB2_9ApiClient3new
FN:86,_RNCNCNvMNtNtNtCs4etJKk8xmvn_9fastskill3cli5utils10api_clientNtB6_9ApiClient15publish_package00Bc_
FN:107,_RNCNCNvMNtNtNtCs4etJKk8xmvn_9fastskill3cli5utils10api_clientNtB6_9ApiClient15publish_package0s0_0Bc_
FN:115,_RNCNCNvMNtNtNtCs4etJKk8xmvn_9fastskill3cli5utils10api_clientNtB6_9ApiClient15publish_package0s1_0Bc_
FN:126,_RNCNCNvMNtNtNtCs4etJKk8xmvn_9fastskill3cli5utils10api_clientNtB6_9ApiClient15publish_package0s2_0Bc_
FN:137,_RNCNCNvMNtNtNtCs4etJKk8xmvn_9fastskill3cli5utils10api_clientNtB6_9ApiClient15publish_package0s3_0Bc_
FN:87,_RNCNCNvMNtNtNtCs4etJKk8xmvn_9fastskill3cli5utils10api_clientNtB6_9ApiClient15publish_package0s_0Bc_
FN:156,_RNCNCNvMNtNtNtCs4etJKk8xmvn_9fastskill3cli5utils10api_clientNtB6_9ApiClient18get_publish_status00Bc_
FN:175,_RNCNCNvMNtNtNtCs4etJKk8xmvn_9fastskill3cli5utils10api_clientNtB6_9ApiClient18get_publish_status0s0_0Bc_
FN:186,_RNCNCNvMNtNtNtCs4etJKk8xmvn_9fastskill3cli5utils10api_clientNtB6_9ApiClient18get_publish_status0s1_0Bc_
FN:164,_RNCNCNvMNtNtNtCs4etJKk8xmvn_9fastskill3cli5utils10api_clientNtB6_9ApiClient18get_publish_status0s_0Bc_
FN:77,_RNCNvMNtNtNtCs4etJKk8xmvn_9fastskill3cli5utils10api_clientNtB4_9ApiClient15publish_package0Ba_
FN:141,_RNCNvMNtNtNtCs4etJKk8xmvn_9fastskill3cli5utils10api_clientNtB4_9ApiClient18get_publish_status0Ba_
FN:194,_RNCNvMNtNtNtCs4etJKk8xmvn_9fastskill3cli5utils10api_clientNtB4_9ApiClient19wait_for_completion0Ba_
FN:66,_RNCNvMNtNtNtCs4etJKk8xmvn_9fastskill3cli5utils10api_clientNtB4_9ApiClient3new0Ba_
FNDA:0,_RNvMNtNtNtCsfVElPQFRzD4_9fastskill3cli5utils10api_clientNtB2_9ApiClient15publish_package
FNDA:0,_RNvMNtNtNtCsfVElPQFRzD4_9fastskill3cli5utils10api_clientNtB2_9ApiClient18get_publish_status
FNDA:0,_RNvMNtNtNtCsfVElPQFRzD4_9fastskill3cli5utils10api_clientNtB2_9ApiClient19wait_for_completion
FNDA:0,_RNvMNtNtNtCsfVElPQFRzD4_9fastskill3cli5utils10api_clientNtB2_9ApiClient3new
FNDA:0,_RNCNCNvMNtNtNtCsfVElPQFRzD4_9fastskill3cli5utils10api_clientNtB6_9ApiClient15publish_package00Bc_
FNDA:0,_RNCNCNvMNtNtNtCsfVElPQFRzD4_9fastskill3cli5utils10api_clientNtB6_9ApiClient15publish_package0s0_0Bc_
FNDA:0,_RNCNCNvMNtNtNtCsfVElPQFRzD4_9fastskill3cli5utils10api_clientNtB6_9ApiClient15publish_package0s1_0Bc_
FNDA:0,_RNCNCNvMNtNtNtCsfVElPQFRzD4_9fastskill3cli5utils10api_clientNtB6_9ApiClient15publish_package0s2_0Bc_
FNDA:0,_RNCNCNvMNtNtNtCsfVElPQFRzD4_9fastskill3cli5utils10api_clientNtB6_9ApiClient15publish_package0s3_0Bc_
FNDA:0,_RNCNCNvMNtNtNtCsfVElPQFRzD4_9fastskill3cli5utils10api_clientNtB6_9ApiClient15publish_package0s_0Bc_
FNDA:0,_RNCNCNvMNtNtNtCsfVElPQFRzD4_9fastskill3cli5utils10api_clientNtB6_9ApiClient18get_publish_status00Bc_
FNDA:0,_RNCNCNvMNtNtNtCsfVElPQFRzD4_9fastskill3cli5utils10api_clientNtB6_9ApiClient18get_publish_status0s0_0Bc_
FNDA:0,_RNCNCNvMNtNtNtCsfVElPQFRzD4_9fastskill3cli5utils10api_clientNtB6_9ApiClient18get_publish_status0s1_0Bc_
FNDA:0,_RNCNCNvMNtNtNtCsfVElPQFRzD4_9fastskill3cli5utils10api_clientNtB6_9ApiClient18get_publish_status0s_0Bc_
FNDA:0,_RNCNvMNtNtNtCsfVElPQFRzD4_9fastskill3cli5utils10api_clientNtB4_9ApiClient15publish_package0Ba_
FNDA:0,_RNCNvMNtNtNtCsfVElPQFRzD4_9fastskill3cli5utils10api_clientNtB4_9ApiClient18get_publish_status0Ba_
FNDA:0,_RNCNvMNtNtNtCsfVElPQFRzD4_9fastskill3cli5utils10api_clientNtB4_9ApiClient19wait_for_completion0Ba_
FNDA:0,_RNCNvMNtNtNtCsfVElPQFRzD4_9fastskill3cli5utils10api_clientNtB4_9ApiClient3new0Ba_
FNDA:0,_RNvMNtNtNtCs4etJKk8xmvn_9fastskill3cli5utils10api_clientNtB2_9ApiClient15publish_package
FNDA:0,_RNvMNtNtNtCs4etJKk8xmvn_9fastskill3cli5utils10api_clientNtB2_9ApiClient18get_publish_status
FNDA:0,_RNvMNtNtNtCs4etJKk8xmvn_9fastskill3cli5utils10api_clientNtB2_9ApiClient19wait_for_completion
FNDA:0,_RNvMNtNtNtCs4etJKk8xmvn_9fastskill3cli5utils10api_clientNtB2_9ApiClient3new
FNDA:0,_RNCNCNvMNtNtNtCs4etJKk8xmvn_9fastskill3cli5utils10api_clientNtB6_9ApiClient15publish_package00Bc_
FNDA:0,_RNCNCNvMNtNtNtCs4etJKk8xmvn_9fastskill3cli5utils10api_clientNtB6_9ApiClient15publish_package0s0_0Bc_
FNDA:0,_RNCNCNvMNtNtNtCs4etJKk8xmvn_9fastskill3cli5utils10api_clientNtB6_9ApiClient15publish_package0s1_0Bc_
FNDA:0,_RNCNCNvMNtNtNtCs4etJKk8xmvn_9fastskill3cli5utils10api_clientNtB6_9ApiClient15publish_package0s2_0Bc_
FNDA:0,_RNCNCNvMNtNtNtCs4etJKk8xmvn_9fastskill3cli5utils10api_clientNtB6_9ApiClient15publish_package0s3_0Bc_
FNDA:0,_RNCNCNvMNtNtNtCs4etJKk8xmvn_9fastskill3cli5utils10api_clientNtB6_9ApiClient15publish_package0s_0Bc_
FNDA:0,_RNCNCNvMNtNtNtCs4etJKk8xmvn_9fastskill3cli5utils10api_clientNtB6_9ApiClient18get_publish_status00Bc_
FNDA:0,_RNCNCNvMNtNtNtCs4etJKk8xmvn_9fastskill3cli5utils10api_clientNtB6_9ApiClient18get_publish_status0s0_0Bc_
FNDA:0,_RNCNCNvMNtNtNtCs4etJKk8xmvn_9fastskill3cli5utils10api_clientNtB6_9ApiClient18get_publish_status0s1_0Bc_
FNDA:0,_RNCNCNvMNtNtNtCs4etJKk8xmvn_9fastskill3cli5utils10api_clientNtB6_9ApiClient18get_publish_status0s_0Bc_
FNDA:0,_RNCNvMNtNtNtCs4etJKk8xmvn_9fastskill3cli5utils10api_clientNtB4_9ApiClient15publish_package0Ba_
FNDA:0,_RNCNvMNtNtNtCs4etJKk8xmvn_9fastskill3cli5utils10api_clientNtB4_9ApiClient18get_publish_status0Ba_
FNDA:0,_RNCNvMNtNtNtCs4etJKk8xmvn_9fastskill3cli5utils10api_clientNtB4_9ApiClient19wait_for_completion0Ba_
FNDA:0,_RNCNvMNtNtNtCs4etJKk8xmvn_9fastskill3cli5utils10api_clientNtB4_9ApiClient3new0Ba_
FNF:18
FNH:0
DA:62,0
DA:63,0
DA:64,0
DA:65,0
DA:66,0
DA:68,0
DA:69,0
DA:70,0
DA:71,0
DA:72,0
DA:73,0
DA:77,0
DA:78,0
DA:81,0
DA:84,0
DA:85,0
DA:86,0
DA:87,0
DA:90,0
DA:92,0
DA:96,0
DA:99,0
DA:100,0
DA:101,0
DA:104,0
DA:105,0
DA:106,0
DA:107,0
DA:110,0
DA:111,0
DA:112,0
DA:113,0
DA:114,0
DA:115,0
DA:116,0
DA:117,0
DA:118,0
DA:119,0
DA:120,0
DA:123,0
DA:124,0
DA:125,0
DA:126,0
DA:128,0
DA:129,0
DA:130,0
DA:131,0
DA:132,0
DA:133,0
DA:135,0
DA:136,0
DA:137,0
DA:138,0
DA:141,0
DA:142,0
DA:145,0
DA:148,0
DA:149,0
DA:150,0
DA:153,0
DA:154,0
DA:155,0
DA:156,0
DA:159,0
DA:160,0
DA:161,0
DA:162,0
DA:163,0
DA:164,0
DA:165,0
DA:166,0
DA:167,0
DA:168,0
DA:169,0
DA:172,0
DA:173,0
DA:174,0
DA:175,0
DA:177,0
DA:178,0
DA:179,0
DA:180,0
DA:181,0
DA:182,0
DA:184,0
DA:185,0
DA:186,0
DA:187,0
DA:190,0
DA:191,0
DA:192,0
DA:193,0
DA:194,0
DA:198,0
DA:199,0
DA:202,0
DA:204,0
DA:205,0
DA:206,0
DA:207,0
DA:208,0
DA:209,0
DA:210,0
DA:214,0
DA:217,0
DA:218,0
DA:219,0
DA:223,0
BRF:0
BRH:0
LF:122
LH:0
end_of_record
SF:/home/sysuser/ws001/gofastskill/fastskill/src/bin/../cli/utils/install_utils.rs
FN:69,_RNCNCNvNtNtNtCsfVElPQFRzD4_9fastskill3cli5utils13install_utils16install_from_git00Bb_
FN:102,_RNCNCNvNtNtNtCsfVElPQFRzD4_9fastskill3cli5utils13install_utils16install_from_git0s0_0Bb_
FN:103,_RNCNCNvNtNtNtCsfVElPQFRzD4_9fastskill3cli5utils13install_utils16install_from_git0s1_0Bb_
FN:85,_RNCNCNvNtNtNtCsfVElPQFRzD4_9fastskill3cli5utils13install_utils16install_from_git0s_0Bb_
FN:255,_RNCNCNvNtNtNtCsfVElPQFRzD4_9fastskill3cli5utils13install_utils19install_from_source00Bb_
FN:272,_RNCNCNvNtNtNtCsfVElPQFRzD4_9fastskill3cli5utils13install_utils19install_from_source0s0_0Bb_
FN:287,_RNCNCNvNtNtNtCsfVElPQFRzD4_9fastskill3cli5utils13install_utils19install_from_source0s1_0Bb_
FN:268,_RNCNCNvNtNtNtCsfVElPQFRzD4_9fastskill3cli5utils13install_utils19install_from_source0s_0Bb_
FN:59,_RNCNvNtNtNtCsfVElPQFRzD4_9fastskill3cli5utils13install_utils16install_from_git0B9_
FN:141,_RNCNvNtNtNtCsfVElPQFRzD4_9fastskill3cli5utils13install_utils18install_from_local0B9_
FN:242,_RNCNvNtNtNtCsfVElPQFRzD4_9fastskill3cli5utils13install_utils19install_from_source0B9_
FN:228,_RNCNvNtNtNtCsfVElPQFRzD4_9fastskill3cli5utils13install_utils20install_from_zip_url0B9_
FN:16,_RNCNvNtNtNtCsfVElPQFRzD4_9fastskill3cli5utils13install_utils24install_skill_from_entry0B9_
FN:326,_RNCNvNtNtNtCsfVElPQFRzD4_9fastskill3cli5utils13install_utils40create_sources_manager_from_repositories0B9_
FN:419,_RNCNvNtNtNtCsfVElPQFRzD4_9fastskill3cli5utils13install_utils40create_sources_manager_from_repositoriess0_0B9_
FN:357,_RNCNvNtNtNtCsfVElPQFRzD4_9fastskill3cli5utils13install_utils40create_sources_manager_from_repositoriess_0B9_
FN:53,_RNvNtNtNtCsfVElPQFRzD4_9fastskill3cli5utils13install_utils16install_from_git
FN:137,_RNvNtNtNtCsfVElPQFRzD4_9fastskill3cli5utils13install_utils18install_from_local
FN:236,_RNvNtNtNtCsfVElPQFRzD4_9fastskill3cli5utils13install_utils19install_from_source
FN:224,_RNvNtNtNtCsfVElPQFRzD4_9fastskill3cli5utils13install_utils20install_from_zip_url
FN:12,_RNvNtNtNtCsfVElPQFRzD4_9fastskill3cli5utils13install_utils24install_skill_from_entry
FN:312,_RNvNtNtNtCsfVElPQFRzD4_9fastskill3cli5utils13install_utils40create_sources_manager_from_repositories
FN:69,_RNCNCNvNtNtNtCs4etJKk8xmvn_9fastskill3cli5utils13install_utils16install_from_git00Bb_
FN:102,_RNCNCNvNtNtNtCs4etJKk8xmvn_9fastskill3cli5utils13install_utils16install_from_git0s0_0Bb_
FN:103,_RNCNCNvNtNtNtCs4etJKk8xmvn_9fastskill3cli5utils13install_utils16install_from_git0s1_0Bb_
FN:85,_RNCNCNvNtNtNtCs4etJKk8xmvn_9fastskill3cli5utils13install_utils16install_from_git0s_0Bb_
FN:255,_RNCNCNvNtNtNtCs4etJKk8xmvn_9fastskill3cli5utils13install_utils19install_from_source00Bb_
FN:272,_RNCNCNvNtNtNtCs4etJKk8xmvn_9fastskill3cli5utils13install_utils19install_from_source0s0_0Bb_
FN:287,_RNCNCNvNtNtNtCs4etJKk8xmvn_9fastskill3cli5utils13install_utils19install_from_source0s1_0Bb_
FN:268,_RNCNCNvNtNtNtCs4etJKk8xmvn_9fastskill3cli5utils13install_utils19install_from_source0s_0Bb_
FN:59,_RNCNvNtNtNtCs4etJKk8xmvn_9fastskill3cli5utils13install_utils16install_from_git0B9_
FN:141,_RNCNvNtNtNtCs4etJKk8xmvn_9fastskill3cli5utils13install_utils18install_from_local0B9_
FN:242,_RNCNvNtNtNtCs4etJKk8xmvn_9fastskill3cli5utils13install_utils19install_from_source0B9_
FN:228,_RNCNvNtNtNtCs4etJKk8xmvn_9fastskill3cli5utils13install_utils20install_from_zip_url0B9_
FN:16,_RNCNvNtNtNtCs4etJKk8xmvn_9fastskill3cli5utils13install_utils24install_skill_from_entry0B9_
FN:326,_RNCNvNtNtNtCs4etJKk8xmvn_9fastskill3cli5utils13install_utils40create_sources_manager_from_repositories0B9_
FN:419,_RNCNvNtNtNtCs4etJKk8xmvn_9fastskill3cli5utils13install_utils40create_sources_manager_from_repositoriess0_0B9_
FN:357,_RNCNvNtNtNtCs4etJKk8xmvn_9fastskill3cli5utils13install_utils40create_sources_manager_from_repositoriess_0B9_
FN:53,_RNvNtNtNtCs4etJKk8xmvn_9fastskill3cli5utils13install_utils16install_from_git
FN:137,_RNvNtNtNtCs4etJKk8xmvn_9fastskill3cli5utils13install_utils18install_from_local
FN:236,_RNvNtNtNtCs4etJKk8xmvn_9fastskill3cli5utils13install_utils19install_from_source
FN:224,_RNvNtNtNtCs4etJKk8xmvn_9fastskill3cli5utils13install_utils20install_from_zip_url
FN:12,_RNvNtNtNtCs4etJKk8xmvn_9fastskill3cli5utils13install_utils24install_skill_from_entry
FN:312,_RNvNtNtNtCs4etJKk8xmvn_9fastskill3cli5utils13install_utils40create_sources_manager_from_repositories
FNDA:0,_RNCNCNvNtNtNtCsfVElPQFRzD4_9fastskill3cli5utils13install_utils16install_from_git00Bb_
FNDA:0,_RNCNCNvNtNtNtCsfVElPQFRzD4_9fastskill3cli5utils13install_utils16install_from_git0s0_0Bb_
FNDA:0,_RNCNCNvNtNtNtCsfVElPQFRzD4_9fastskill3cli5utils13install_utils16install_from_git0s1_0Bb_
FNDA:0,_RNCNCNvNtNtNtCsfVElPQFRzD4_9fastskill3cli5utils13install_utils16install_from_git0s_0Bb_
FNDA:0,_RNCNCNvNtNtNtCsfVElPQFRzD4_9fastskill3cli5utils13install_utils19install_from_source00Bb_
FNDA:0,_RNCNCNvNtNtNtCsfVElPQFRzD4_9fastskill3cli5utils13install_utils19install_from_source0s0_0Bb_
FNDA:0,_RNCNCNvNtNtNtCsfVElPQFRzD4_9fastskill3cli5utils13install_utils19install_from_source0s1_0Bb_
FNDA:0,_RNCNCNvNtNtNtCsfVElPQFRzD4_9fastskill3cli5utils13install_utils19install_from_source0s_0Bb_
FNDA:0,_RNCNvNtNtNtCsfVElPQFRzD4_9fastskill3cli5utils13install_utils16install_from_git0B9_
FNDA:0,_RNCNvNtNtNtCsfVElPQFRzD4_9fastskill3cli5utils13install_utils18install_from_local0B9_
FNDA:0,_RNCNvNtNtNtCsfVElPQFRzD4_9fastskill3cli5utils13install_utils19install_from_source0B9_
FNDA:0,_RNCNvNtNtNtCsfVElPQFRzD4_9fastskill3cli5utils13install_utils20install_from_zip_url0B9_
FNDA:0,_RNCNvNtNtNtCsfVElPQFRzD4_9fastskill3cli5utils13install_utils24install_skill_from_entry0B9_
FNDA:0,_RNCNvNtNtNtCsfVElPQFRzD4_9fastskill3cli5utils13install_utils40create_sources_manager_from_repositories0B9_
FNDA:0,_RNCNvNtNtNtCsfVElPQFRzD4_9fastskill3cli5utils13install_utils40create_sources_manager_from_repositoriess0_0B9_
FNDA:0,_RNCNvNtNtNtCsfVElPQFRzD4_9fastskill3cli5utils13install_utils40create_sources_manager_from_repositoriess_0B9_
FNDA:0,_RNvNtNtNtCsfVElPQFRzD4_9fastskill3cli5utils13install_utils16install_from_git
FNDA:0,_RNvNtNtNtCsfVElPQFRzD4_9fastskill3cli5utils13install_utils18install_from_local
FNDA:0,_RNvNtNtNtCsfVElPQFRzD4_9fastskill3cli5utils13install_utils19install_from_source
FNDA:0,_RNvNtNtNtCsfVElPQFRzD4_9fastskill3cli5utils13install_utils20install_from_zip_url
FNDA:0,_RNvNtNtNtCsfVElPQFRzD4_9fastskill3cli5utils13install_utils24install_skill_from_entry
FNDA:0,_RNvNtNtNtCsfVElPQFRzD4_9fastskill3cli5utils13install_utils40create_sources_manager_from_repositories
FNDA:0,_RNCNCNvNtNtNtCs4etJKk8xmvn_9fastskill3cli5utils13install_utils16install_from_git00Bb_
FNDA:0,_RNCNCNvNtNtNtCs4etJKk8xmvn_9fastskill3cli5utils13install_utils16install_from_git0s0_0Bb_
FNDA:0,_RNCNCNvNtNtNtCs4etJKk8xmvn_9fastskill3cli5utils13install_utils16install_from_git0s1_0Bb_
FNDA:0,_RNCNCNvNtNtNtCs4etJKk8xmvn_9fastskill3cli5utils13install_utils16install_from_git0s_0Bb_
FNDA:0,_RNCNCNvNtNtNtCs4etJKk8xmvn_9fastskill3cli5utils13install_utils19install_from_source00Bb_
FNDA:0,_RNCNCNvNtNtNtCs4etJKk8xmvn_9fastskill3cli5utils13install_utils19install_from_source0s0_0Bb_
FNDA:0,_RNCNCNvNtNtNtCs4etJKk8xmvn_9fastskill3cli5utils13install_utils19install_from_source0s1_0Bb_
FNDA:0,_RNCNCNvNtNtNtCs4etJKk8xmvn_9fastskill3cli5utils13install_utils19install_from_source0s_0Bb_
FNDA:0,_RNCNvNtNtNtCs4etJKk8xmvn_9fastskill3cli5utils13install_utils16install_from_git0B9_
FNDA:0,_RNCNvNtNtNtCs4etJKk8xmvn_9fastskill3cli5utils13install_utils18install_from_local0B9_
FNDA:0,_RNCNvNtNtNtCs4etJKk8xmvn_9fastskill3cli5utils13install_utils19install_from_source0B9_
FNDA:0,_RNCNvNtNtNtCs4etJKk8xmvn_9fastskill3cli5utils13install_utils20install_from_zip_url0B9_
FNDA:0,_RNCNvNtNtNtCs4etJKk8xmvn_9fastskill3cli5utils13install_utils24install_skill_from_entry0B9_
FNDA:0,_RNCNvNtNtNtCs4etJKk8xmvn_9fastskill3cli5utils13install_utils40create_sources_manager_from_repositories0B9_
FNDA:0,_RNCNvNtNtNtCs4etJKk8xmvn_9fastskill3cli5utils13install_utils40create_sources_manager_from_repositoriess0_0B9_
FNDA:0,_RNCNvNtNtNtCs4etJKk8xmvn_9fastskill3cli5utils13install_utils40create_sources_manager_from_repositoriess_0B9_
FNDA:0,_RNvNtNtNtCs4etJKk8xmvn_9fastskill3cli5utils13install_utils16install_from_git
FNDA:0,_RNvNtNtNtCs4etJKk8xmvn_9fastskill3cli5utils13install_utils18install_from_local
FNDA:0,_RNvNtNtNtCs4etJKk8xmvn_9fastskill3cli5utils13install_utils19install_from_source
FNDA:0,_RNvNtNtNtCs4etJKk8xmvn_9fastskill3cli5utils13install_utils20install_from_zip_url
FNDA:0,_RNvNtNtNtCs4etJKk8xmvn_9fastskill3cli5utils13install_utils24install_skill_from_entry
FNDA:0,_RNvNtNtNtCs4etJKk8xmvn_9fastskill3cli5utils13install_utils40create_sources_manager_from_repositories
FNF:22
FNH:0
DA:12,0
DA:13,0
DA:14,0
DA:15,0
DA:16,0
DA:17,0
DA:19,0
DA:20,0
DA:21,0
DA:22,0
DA:24,0
DA:25,0
DA:26,0
DA:27,0
DA:28,0
DA:29,0
DA:30,0
DA:31,0
DA:33,0
DA:34,0
DA:35,0
DA:38,0
DA:39,0
DA:40,0
DA:42,0
DA:43,0
DA:45,0
DA:46,0
DA:47,0
DA:51,0
DA:53,0
DA:54,0
DA:55,0
DA:56,0
DA:57,0
DA:58,0
DA:59,0
DA:65,0
DA:66,0
DA:67,0
DA:68,0
DA:69,0
DA:71,0
DA:72,0
DA:73,0
DA:74,0
DA:75,0
DA:76,0
DA:77,0
DA:78,0
DA:79,0
DA:81,0
DA:84,0
DA:85,0
DA:87,0
DA:88,0
DA:89,0
DA:90,0
DA:91,0
DA:94,0
DA:95,0
DA:96,0
DA:97,0
DA:99,0
DA:100,0
DA:101,0
DA:102,0
DA:103,0
DA:104,0
DA:105,0
DA:106,0
DA:109,0
DA:110,0
DA:111,0
DA:112,0
DA:113,0
DA:116,0
DA:117,0
DA:118,0
DA:119,0
DA:120,0
DA:121,0
DA:122,0
DA:123,0
DA:124,0
DA:125,0
DA:126,0
DA:127,0
DA:128,0
DA:129,0
DA:130,0
DA:131,0
DA:133,0
DA:135,0
DA:137,0
DA:138,0
DA:139,0
DA:140,0
DA:141,0
DA:144,0
DA:145,0
DA:147,0
DA:150,0
DA:151,0
DA:152,0
DA:153,0
DA:154,0
DA:155,0
DA:157,0
DA:158,0
DA:159,0
DA:160,0
DA:161,0
DA:163,0
DA:165,0
DA:166,0
DA:167,0
DA:168,0
DA:169,0
DA:172,0
DA:173,0
DA:174,0
DA:181,0
DA:184,0
DA:185,0
DA:186,0
DA:187,0
DA:188,0
DA:189,0
DA:190,0
DA:193,0
DA:194,0
DA:195,0
DA:196,0
DA:199,0
DA:200,0
DA:201,0
DA:202,0
DA:203,0
DA:206,0
DA:207,0
DA:208,0
DA:209,0
DA:210,0
DA:211,0
DA:212,0
DA:213,0
DA:214,0
DA:215,0
DA:216,0
DA:217,0
DA:218,0
DA:219,0
DA:221,0
DA:222,0
DA:224,0
DA:225,0
DA:226,0
DA:227,0
DA:228,0
DA:231,0
DA:232,0
DA:233,0
DA:234,0
DA:236,0
DA:237,0
DA:238,0
DA:239,0
DA:240,0
DA:241,0
DA:242,0
DA:248,0
DA:249,0
DA:250,0
DA:253,0
DA:254,0
DA:255,0
DA:257,0
DA:259,0
DA:260,0
DA:261,0
DA:264,0
DA:265,0
DA:266,0
DA:267,0
DA:268,0
DA:271,0
DA:272,0
DA:273,0
DA:274,0
DA:276,0
DA:280,0
DA:281,0
DA:282,0
DA:283,0
DA:284,0
DA:285,0
DA:287,0
DA:288,0
DA:289,0
DA:291,0
DA:294,0
DA:296,0
DA:297,0
DA:298,0
DA:299,0
DA:300,0
DA:301,0
DA:302,0
DA:304,0
DA:305,0
DA:308,0
DA:312,0
DA:313,0
DA:314,0
DA:317,0
DA:318,0
DA:320,0
DA:322,0
DA:324,0
DA:326,0
DA:327,0
DA:328,0
DA:329,0
DA:330,0
DA:332,0
DA:333,0
DA:336,0
DA:337,0
DA:338,0
DA:339,0
DA:340,0
DA:341,0
DA:342,0
DA:343,0
DA:345,0
DA:346,0
DA:347,0
DA:348,0
DA:349,0
DA:350,0
DA:352,0
DA:356,0
DA:357,0
DA:358,0
DA:359,0
DA:360,0
DA:361,0
DA:364,0
DA:365,0
DA:366,0
DA:367,0
DA:368,0
DA:369,0
DA:370,0
DA:371,0
DA:373,0
DA:374,0
DA:375,0
DA:376,0
DA:378,0
DA:382,0
DA:383,0
DA:385,0
DA:390,0
DA:394,0
DA:395,0
DA:396,0
DA:397,0
DA:398,0
DA:399,0
DA:400,0
DA:403,0
DA:404,0
DA:405,0
DA:408,0
DA:409,0
DA:412,0
DA:413,0
DA:414,0
DA:415,0
DA:416,0
DA:417,0
DA:419,0
DA:422,0
DA:423,0
BRF:0
BRH:0
LF:304
LH:0
end_of_record
SF:/home/sysuser/ws001/gofastskill/fastskill/src/bin/../cli/utils/manifest_utils.rs
FN:18,_RNvNtNtNtCsfVElPQFRzD4_9fastskill3cli5utils14manifest_utils16update_lock_file
FN:59,_RNvNtNtNtCsfVElPQFRzD4_9fastskill3cli5utils14manifest_utils25add_skill_to_project_toml
FN:233,_RNvNtNtNtCsfVElPQFRzD4_9fastskill3cli5utils14manifest_utils30remove_skill_from_project_toml
FN:31,_RNCNvNtNtNtCsfVElPQFRzD4_9fastskill3cli5utils14manifest_utils16update_lock_file0B9_
FN:53,_RNCNvNtNtNtCsfVElPQFRzD4_9fastskill3cli5utils14manifest_utils16update_lock_files0_0B9_
FN:47,_RNCNvNtNtNtCsfVElPQFRzD4_9fastskill3cli5utils14manifest_utils16update_lock_files_0B9_
FN:66,_RNCNvNtNtNtCsfVElPQFRzD4_9fastskill3cli5utils14manifest_utils25add_skill_to_project_toml0B9_
FN:95,_RNCNvNtNtNtCsfVElPQFRzD4_9fastskill3cli5utils14manifest_utils25add_skill_to_project_tomls0_0B9_
FN:119,_RNCNvNtNtNtCsfVElPQFRzD4_9fastskill3cli5utils14manifest_utils25add_skill_to_project_tomls1_0B9_
FN:149,_RNCNvNtNtNtCsfVElPQFRzD4_9fastskill3cli5utils14manifest_utils25add_skill_to_project_tomls2_0B9_
FN:150,_RNCNvNtNtNtCsfVElPQFRzD4_9fastskill3cli5utils14manifest_utils25add_skill_to_project_tomls3_0B9_
FN:227,_RNCNvNtNtNtCsfVElPQFRzD4_9fastskill3cli5utils14manifest_utils25add_skill_to_project_tomls4_0B9_
FN:73,_RNCNvNtNtNtCsfVElPQFRzD4_9fastskill3cli5utils14manifest_utils25add_skill_to_project_tomls_0B9_
FN:236,_RNCNvNtNtNtCsfVElPQFRzD4_9fastskill3cli5utils14manifest_utils30remove_skill_from_project_toml0B9_
FN:269,_RNCNvNtNtNtCsfVElPQFRzD4_9fastskill3cli5utils14manifest_utils30remove_skill_from_project_tomls0_0B9_
FN:279,_RNCNvNtNtNtCsfVElPQFRzD4_9fastskill3cli5utils14manifest_utils30remove_skill_from_project_tomls1_0B9_
FN:247,_RNCNvNtNtNtCsfVElPQFRzD4_9fastskill3cli5utils14manifest_utils30remove_skill_from_project_tomls_0B9_
FN:31,_RNCNvNtNtNtCs4etJKk8xmvn_9fastskill3cli5utils14manifest_utils16update_lock_file0B9_
FN:53,_RNCNvNtNtNtCs4etJKk8xmvn_9fastskill3cli5utils14manifest_utils16update_lock_files0_0B9_
FN:47,_RNCNvNtNtNtCs4etJKk8xmvn_9fastskill3cli5utils14manifest_utils16update_lock_files_0B9_
FN:66,_RNCNvNtNtNtCs4etJKk8xmvn_9fastskill3cli5utils14manifest_utils25add_skill_to_project_toml0B9_
FN:95,_RNCNvNtNtNtCs4etJKk8xmvn_9fastskill3cli5utils14manifest_utils25add_skill_to_project_tomls0_0B9_
FN:119,_RNCNvNtNtNtCs4etJKk8xmvn_9fastskill3cli5utils14manifest_utils25add_skill_to_project_tomls1_0B9_
FN:149,_RNCNvNtNtNtCs4etJKk8xmvn_9fastskill3cli5utils14manifest_utils25add_skill_to_project_tomls2_0B9_
FN:150,_RNCNvNtNtNtCs4etJKk8xmvn_9fastskill3cli5utils14manifest_utils25add_skill_to_project_tomls3_0B9_
FN:227,_RNCNvNtNtNtCs4etJKk8xmvn_9fastskill3cli5utils14manifest_utils25add_skill_to_project_tomls4_0B9_
FN:73,_RNCNvNtNtNtCs4etJKk8xmvn_9fastskill3cli5utils14manifest_utils25add_skill_to_project_tomls_0B9_
FN:236,_RNCNvNtNtNtCs4etJKk8xmvn_9fastskill3cli5utils14manifest_utils30remove_skill_from_project_toml0B9_
FN:269,_RNCNvNtNtNtCs4etJKk8xmvn_9fastskill3cli5utils14manifest_utils30remove_skill_from_project_tomls0_0B9_
FN:279,_RNCNvNtNtNtCs4etJKk8xmvn_9fastskill3cli5utils14manifest_utils30remove_skill_from_project_tomls1_0B9_
FN:247,_RNCNvNtNtNtCs4etJKk8xmvn_9fastskill3cli5utils14manifest_utils30remove_skill_from_project_tomls_0B9_
FN:18,_RNvNtNtNtCs4etJKk8xmvn_9fastskill3cli5utils14manifest_utils16update_lock_file
FN:59,_RNvNtNtNtCs4etJKk8xmvn_9fastskill3cli5utils14manifest_utils25add_skill_to_project_toml
FN:233,_RNvNtNtNtCs4etJKk8xmvn_9fastskill3cli5utils14manifest_utils30remove_skill_from_project_toml
FNDA:0,_RNvNtNtNtCsfVElPQFRzD4_9fastskill3cli5utils14manifest_utils16update_lock_file
FNDA:0,_RNvNtNtNtCsfVElPQFRzD4_9fastskill3cli5utils14manifest_utils25add_skill_to_project_toml
FNDA:0,_RNvNtNtNtCsfVElPQFRzD4_9fastskill3cli5utils14manifest_utils30remove_skill_from_project_toml
FNDA:0,_RNCNvNtNtNtCsfVElPQFRzD4_9fastskill3cli5utils14manifest_utils16update_lock_file0B9_
FNDA:0,_RNCNvNtNtNtCsfVElPQFRzD4_9fastskill3cli5utils14manifest_utils16update_lock_files0_0B9_
FNDA:0,_RNCNvNtNtNtCsfVElPQFRzD4_9fastskill3cli5utils14manifest_utils16update_lock_files_0B9_
FNDA:0,_RNCNvNtNtNtCsfVElPQFRzD4_9fastskill3cli5utils14manifest_utils25add_skill_to_project_toml0B9_
FNDA:0,_RNCNvNtNtNtCsfVElPQFRzD4_9fastskill3cli5utils14manifest_utils25add_skill_to_project_tomls0_0B9_
FNDA:0,_RNCNvNtNtNtCsfVElPQFRzD4_9fastskill3cli5utils14manifest_utils25add_skill_to_project_tomls1_0B9_
FNDA:0,_RNCNvNtNtNtCsfVElPQFRzD4_9fastskill3cli5utils14manifest_utils25add_skill_to_project_tomls2_0B9_
FNDA:0,_RNCNvNtNtNtCsfVElPQFRzD4_9fastskill3cli5utils14manifest_utils25add_skill_to_project_tomls3_0B9_
FNDA:0,_RNCNvNtNtNtCsfVElPQFRzD4_9fastskill3cli5utils14manifest_utils25add_skill_to_project_tomls4_0B9_
FNDA:0,_RNCNvNtNtNtCsfVElPQFRzD4_9fastskill3cli5utils14manifest_utils25add_skill_to_project_tomls_0B9_
FNDA:0,_RNCNvNtNtNtCsfVElPQFRzD4_9fastskill3cli5utils14manifest_utils30remove_skill_from_project_toml0B9_
FNDA:0,_RNCNvNtNtNtCsfVElPQFRzD4_9fastskill3cli5utils14manifest_utils30remove_skill_from_project_tomls0_0B9_
FNDA:0,_RNCNvNtNtNtCsfVElPQFRzD4_9fastskill3cli5utils14manifest_utils30remove_skill_from_project_tomls1_0B9_
FNDA:0,_RNCNvNtNtNtCsfVElPQFRzD4_9fastskill3cli5utils14manifest_utils30remove_skill_from_project_tomls_0B9_
FNDA:0,_RNCNvNtNtNtCs4etJKk8xmvn_9fastskill3cli5utils14manifest_utils16update_lock_file0B9_
FNDA:0,_RNCNvNtNtNtCs4etJKk8xmvn_9fastskill3cli5utils14manifest_utils16update_lock_files0_0B9_
FNDA:0,_RNCNvNtNtNtCs4etJKk8xmvn_9fastskill3cli5utils14manifest_utils16update_lock_files_0B9_
FNDA:0,_RNCNvNtNtNtCs4etJKk8xmvn_9fastskill3cli5utils14manifest_utils25add_skill_to_project_toml0B9_
FNDA:0,_RNCNvNtNtNtCs4etJKk8xmvn_9fastskill3cli5utils14manifest_utils25add_skill_to_project_tomls0_0B9_
FNDA:0,_RNCNvNtNtNtCs4etJKk8xmvn_9fastskill3cli5utils14manifest_utils25add_skill_to_project_tomls1_0B9_
FNDA:0,_RNCNvNtNtNtCs4etJKk8xmvn_9fastskill3cli5utils14manifest_utils25add_skill_to_project_tomls2_0B9_
FNDA:0,_RNCNvNtNtNtCs4etJKk8xmvn_9fastskill3cli5utils14manifest_utils25add_skill_to_project_tomls3_0B9_
FNDA:0,_RNCNvNtNtNtCs4etJKk8xmvn_9fastskill3cli5utils14manifest_utils25add_skill_to_project_tomls4_0B9_
FNDA:0,_RNCNvNtNtNtCs4etJKk8xmvn_9fastskill3cli5utils14manifest_utils25add_skill_to_project_tomls_0B9_
FNDA:0,_RNCNvNtNtNtCs4etJKk8xmvn_9fastskill3cli5utils14manifest_utils30remove_skill_from_project_toml0B9_
FNDA:0,_RNCNvNtNtNtCs4etJKk8xmvn_9fastskill3cli5utils14manifest_utils30remove_skill_from_project_tomls0_0B9_
FNDA:0,_RNCNvNtNtNtCs4etJKk8xmvn_9fastskill3cli5utils14manifest_utils30remove_skill_from_project_tomls1_0B9_
FNDA:0,_RNCNvNtNtNtCs4etJKk8xmvn_9fastskill3cli5utils14manifest_utils30remove_skill_from_project_tomls_0B9_
FNDA:0,_RNvNtNtNtCs4etJKk8xmvn_9fastskill3cli5utils14manifest_utils16update_lock_file
FNDA:0,_RNvNtNtNtCs4etJKk8xmvn_9fastskill3cli5utils14manifest_utils25add_skill_to_project_toml
FNDA:0,_RNvNtNtNtCs4etJKk8xmvn_9fastskill3cli5utils14manifest_utils30remove_skill_from_project_toml
FNF:17
FNH:0
DA:18,0
DA:19,0
DA:20,0
DA:21,0
DA:22,0
DA:24,0
DA:25,0
DA:26,0
DA:29,0
DA:30,0
DA:31,0
DA:33,0
DA:34,0
DA:35,0
DA:36,0
DA:37,0
DA:38,0
DA:39,0
DA:40,0
DA:44,0
DA:47,0
DA:48,0
DA:49,0
DA:52,0
DA:53,0
DA:55,0
DA:56,0
DA:59,0
DA:60,0
DA:61,0
DA:62,0
DA:63,0
DA:65,0
DA:66,0
DA:67,0
DA:68,0
DA:71,0
DA:72,0
DA:73,0
DA:76,0
DA:77,0
DA:78,0
DA:79,0
DA:80,0
DA:83,0
DA:84,0
DA:85,0
DA:86,0
DA:87,0
DA:88,0
DA:89,0
DA:90,0
DA:91,0
DA:93,0
DA:94,0
DA:95,0
DA:97,0
DA:100,0
DA:101,0
DA:102,0
DA:103,0
DA:104,0
DA:105,0
DA:106,0
DA:110,0
DA:111,0
DA:112,0
DA:113,0
DA:114,0
DA:116,0
DA:117,0
DA:118,0
DA:119,0
DA:122,0
DA:123,0
DA:125,0
DA:126,0
DA:127,0
DA:128,0
DA:129,0
DA:130,0
DA:131,0
DA:132,0
DA:133,0
DA:135,0
DA:136,0
DA:137,0
DA:138,0
DA:140,0
DA:142,0
DA:146,0
DA:147,0
DA:148,0
DA:149,0
DA:150,0
DA:151,0
DA:152,0
DA:153,0
DA:154,0
DA:155,0
DA:156,0
DA:157,0
DA:158,0
DA:159,0
DA:160,0
DA:161,0
DA:163,0
DA:164,0
DA:165,0
DA:166,0
DA:168,0
DA:170,0
DA:174,0
DA:175,0
DA:176,0
DA:177,0
DA:178,0
DA:179,0
DA:180,0
DA:181,0
DA:182,0
DA:184,0
DA:185,0
DA:186,0
DA:187,0
DA:189,0
DA:191,0
DA:195,0
DA:196,0
DA:197,0
DA:198,0
DA:199,0
DA:200,0
DA:201,0
DA:202,0
DA:203,0
DA:205,0
DA:206,0
DA:207,0
DA:208,0
DA:210,0
DA:212,0
DA:218,0
DA:222,0
DA:225,0
DA:226,0
DA:227,0
DA:229,0
DA:230,0
DA:233,0
DA:235,0
DA:236,0
DA:237,0
DA:238,0
DA:241,0
DA:242,0
DA:243,0
DA:246,0
DA:247,0
DA:250,0
DA:251,0
DA:252,0
DA:253,0
DA:254,0
DA:257,0
DA:258,0
DA:259,0
DA:260,0
DA:261,0
DA:262,0
DA:263,0
DA:264,0
DA:265,0
DA:267,0
DA:268,0
DA:269,0
DA:272,0
DA:273,0
DA:274,0
DA:277,0
DA:278,0
DA:279,0
DA:281,0
DA:282,0
BRF:0
BRH:0
LF:198
LH:0
end_of_record
SF:/home/sysuser/ws001/gofastskill/fastskill/src/bin/../cli/utils/messages.rs
FN:4,_RNvNtNtNtCsfVElPQFRzD4_9fastskill3cli5utils8messages2ok
FN:19,_RNvNtNtNtCsfVElPQFRzD4_9fastskill3cli5utils8messages4info
FN:9,_RNvNtNtNtCsfVElPQFRzD4_9fastskill3cli5utils8messages5error
FN:14,_RNvNtNtNtCsfVElPQFRzD4_9fastskill3cli5utils8messages7warning
FN:25,_RNvNtNtNtCsfVElPQFRzD4_9fastskill3cli5utils8messages8progress
FN:25,_RNvNtNtNtCs4etJKk8xmvn_9fastskill3cli5utils8messages8progress
FN:4,_RNvNtNtNtCs4etJKk8xmvn_9fastskill3cli5utils8messages2ok
FN:19,_RNvNtNtNtCs4etJKk8xmvn_9fastskill3cli5utils8messages4info
FN:9,_RNvNtNtNtCs4etJKk8xmvn_9fastskill3cli5utils8messages5error
FN:14,_RNvNtNtNtCs4etJKk8xmvn_9fastskill3cli5utils8messages7warning
FNDA:1,_RNvNtNtNtCsfVElPQFRzD4_9fastskill3cli5utils8messages2ok
FNDA:2,_RNvNtNtNtCsfVElPQFRzD4_9fastskill3cli5utils8messages4info
FNDA:0,_RNvNtNtNtCsfVElPQFRzD4_9fastskill3cli5utils8messages5error
FNDA:2,_RNvNtNtNtCsfVElPQFRzD4_9fastskill3cli5utils8messages7warning
FNDA:0,_RNvNtNtNtCsfVElPQFRzD4_9fastskill3cli5utils8messages8progress
FNDA:0,_RNvNtNtNtCs4etJKk8xmvn_9fastskill3cli5utils8messages8progress
FNDA:0,_RNvNtNtNtCs4etJKk8xmvn_9fastskill3cli5utils8messages2ok
FNDA:0,_RNvNtNtNtCs4etJKk8xmvn_9fastskill3cli5utils8messages4info
FNDA:0,_RNvNtNtNtCs4etJKk8xmvn_9fastskill3cli5utils8messages5error
FNDA:0,_RNvNtNtNtCs4etJKk8xmvn_9fastskill3cli5utils8messages7warning
FNF:5
FNH:3
DA:4,1
DA:5,1
DA:6,1
DA:9,0
DA:10,0
DA:11,0
DA:14,2
DA:15,2
DA:16,2
DA:19,2
DA:20,2
DA:21,2
DA:25,0
DA:26,0
DA:27,0
BRF:0
BRH:0
LF:15
LH:9
end_of_record
SF:/home/sysuser/ws001/gofastskill/fastskill/src/bin/fastskill.rs
FN:10,_RNCNvCsfVElPQFRzD4_9fastskill4main0B3_
FN:10,_RNvCsfVElPQFRzD4_9fastskill4main
FN:10,_RNCNvCs4etJKk8xmvn_9fastskill4main0B3_
FN:10,_RNvCs4etJKk8xmvn_9fastskill4main
FNDA:0,_RNCNvCsfVElPQFRzD4_9fastskill4main0B3_
FNDA:0,_RNvCsfVElPQFRzD4_9fastskill4main
FNDA:0,_RNCNvCs4etJKk8xmvn_9fastskill4main0B3_
FNDA:0,_RNvCs4etJKk8xmvn_9fastskill4main
FNF:2
FNH:0
DA:10,0
DA:12,0
DA:13,0
DA:14,0
DA:16,0
DA:17,0
DA:19,0
DA:20,0
DA:23,0
DA:25,0
DA:26,0
DA:32,0
DA:33,0
DA:34,0
DA:35,0
DA:36,0
DA:37,0
DA:38,0
DA:39,0
DA:40,0
DA:41,0
DA:42,0
DA:43,0
DA:44,0
BRF:0
BRH:0
LF:31
LH:0
end_of_record
SF:/home/sysuser/ws001/gofastskill/fastskill/src/core/blob_storage.rs
FN:37,_RNvMNtNtCs26lDL6qRPME_9fastskill4core12blob_storageNtB2_16LocalBlobStorage3new
FN:108,_RNvMs_NtNtCs26lDL6qRPME_9fastskill4core12blob_storageNtB4_13S3BlobStorage3new
FN:266,_RNvNtNtCs26lDL6qRPME_9fastskill4core12blob_storage12map_s3_error
FN:284,_RNvNtNtCs26lDL6qRPME_9fastskill4core12blob_storage19create_blob_storage
FN:345,_RNvXs0_NtNtCs26lDL6qRPME_9fastskill4core12blob_storageNtB5_17BlobStorageConfigNtNtCsiJueO4bndGx_4core7default7Default7default
FN:77,_RNvXs1_NtNtCs26lDL6qRPME_9fastskill4core12blob_storageNtB5_16LocalBlobStorageNtB5_11BlobStorage6delete
FN:72,_RNvXs1_NtNtCs26lDL6qRPME_9fastskill4core12blob_storageNtB5_16LocalBlobStorageNtB5_11BlobStorage6exists
FN:47,_RNvXs1_NtNtCs26lDL6qRPME_9fastskill4core12blob_storageNtB5_16LocalBlobStorageNtB5_11BlobStorage6upload
FN:93,_RNvXs1_NtNtCs26lDL6qRPME_9fastskill4core12blob_storageNtB5_16LocalBlobStorageNtB5_11BlobStorage8base_url
FN:64,_RNvXs1_NtNtCs26lDL6qRPME_9fastskill4core12blob_storageNtB5_16LocalBlobStorageNtB5_11BlobStorage8download
FN:233,_RNvXs2_NtNtCs26lDL6qRPME_9fastskill4core12blob_storageNtB5_13S3BlobStorageNtB5_11BlobStorage6delete
FN:205,_RNvXs2_NtNtCs26lDL6qRPME_9fastskill4core12blob_storageNtB5_13S3BlobStorageNtB5_11BlobStorage6exists
FN:153,_RNvXs2_NtNtCs26lDL6qRPME_9fastskill4core12blob_storageNtB5_13S3BlobStorageNtB5_11BlobStorage6upload
FN:259,_RNvXs2_NtNtCs26lDL6qRPME_9fastskill4core12blob_storageNtB5_13S3BlobStorageNtB5_11BlobStorage8base_url
FN:177,_RNvXs2_NtNtCs26lDL6qRPME_9fastskill4core12blob_storageNtB5_13S3BlobStorageNtB5_11BlobStorage8download
FN:166,_RNCNCNvXs2_NtNtCs26lDL6qRPME_9fastskill4core12blob_storageNtB9_13S3BlobStorageNtB9_11BlobStorage6upload00Bd_
FN:185,_RNCNCNvXs2_NtNtCs26lDL6qRPME_9fastskill4core12blob_storageNtB9_13S3BlobStorageNtB9_11BlobStorage8download00Bd_
FN:198,_RNCNCNvXs2_NtNtCs26lDL6qRPME_9fastskill4core12blob_storageNtB9_13S3BlobStorageNtB9_11BlobStorage8download0s_0Bd_
FN:115,_RNCNvMs_NtNtCs26lDL6qRPME_9fastskill4core12blob_storageNtB6_13S3BlobStorage3new0Ba_
FN:287,_RNCNvNtNtCs26lDL6qRPME_9fastskill4core12blob_storage19create_blob_storage0B7_
FN:345,_RNvXs0_NtNtCsjhmHPBDWNUU_9fastskill4core12blob_storageNtB5_17BlobStorageConfigNtNtCsiJueO4bndGx_4core7default7Default7default
FN:166,_RNCNCNvXs2_NtNtCsjhmHPBDWNUU_9fastskill4core12blob_storageNtB9_13S3BlobStorageNtB9_11BlobStorage6upload00Bd_
FN:185,_RNCNCNvXs2_NtNtCsjhmHPBDWNUU_9fastskill4core12blob_storageNtB9_13S3BlobStorageNtB9_11BlobStorage8download00Bd_
FN:198,_RNCNCNvXs2_NtNtCsjhmHPBDWNUU_9fastskill4core12blob_storageNtB9_13S3BlobStorageNtB9_11BlobStorage8download0s_0Bd_
FN:115,_RNCNvMs_NtNtCsjhmHPBDWNUU_9fastskill4core12blob_storageNtB6_13S3BlobStorage3new0Ba_
FN:287,_RNCNvNtNtCsjhmHPBDWNUU_9fastskill4core12blob_storage19create_blob_storage0B7_
FN:37,_RNvMNtNtCsjhmHPBDWNUU_9fastskill4core12blob_storageNtB2_16LocalBlobStorage3new
FN:108,_RNvMs_NtNtCsjhmHPBDWNUU_9fastskill4core12blob_storageNtB4_13S3BlobStorage3new
FN:266,_RNvNtNtCsjhmHPBDWNUU_9fastskill4core12blob_storage12map_s3_error
FN:284,_RNvNtNtCsjhmHPBDWNUU_9fastskill4core12blob_storage19create_blob_storage
FN:77,_RNvXs1_NtNtCsjhmHPBDWNUU_9fastskill4core12blob_storageNtB5_16LocalBlobStorageNtB5_11BlobStorage6delete
FN:72,_RNvXs1_NtNtCsjhmHPBDWNUU_9fastskill4core12blob_storageNtB5_16LocalBlobStorageNtB5_11BlobStorage6exists
FN:47,_RNvXs1_NtNtCsjhmHPBDWNUU_9fastskill4core12blob_storageNtB5_16LocalBlobStorageNtB5_11BlobStorage6upload
FN:93,_RNvXs1_NtNtCsjhmHPBDWNUU_9fastskill4core12blob_storageNtB5_16LocalBlobStorageNtB5_11BlobStorage8base_url
FN:64,_RNvXs1_NtNtCsjhmHPBDWNUU_9fastskill4core12blob_storageNtB5_16LocalBlobStorageNtB5_11BlobStorage8download
FN:233,_RNvXs2_NtNtCsjhmHPBDWNUU_9fastskill4core12blob_storageNtB5_13S3BlobStorageNtB5_11BlobStorage6delete
FN:205,_RNvXs2_NtNtCsjhmHPBDWNUU_9fastskill4core12blob_storageNtB5_13S3BlobStorageNtB5_11BlobStorage6exists
FN:153,_RNvXs2_NtNtCsjhmHPBDWNUU_9fastskill4core12blob_storageNtB5_13S3BlobStorageNtB5_11BlobStorage6upload
FN:259,_RNvXs2_NtNtCsjhmHPBDWNUU_9fastskill4core12blob_storageNtB5_13S3BlobStorageNtB5_11BlobStorage8base_url
FN:177,_RNvXs2_NtNtCsjhmHPBDWNUU_9fastskill4core12blob_storageNtB5_13S3BlobStorageNtB5_11BlobStorage8download
FNDA:0,_RNvMNtNtCs26lDL6qRPME_9fastskill4core12blob_storageNtB2_16LocalBlobStorage3new
FNDA:0,_RNvMs_NtNtCs26lDL6qRPME_9fastskill4core12blob_storageNtB4_13S3BlobStorage3new
FNDA:0,_RNvNtNtCs26lDL6qRPME_9fastskill4core12blob_storage12map_s3_error
FNDA:0,_RNvNtNtCs26lDL6qRPME_9fastskill4core12blob_storage19create_blob_storage
FNDA:0,_RNvXs0_NtNtCs26lDL6qRPME_9fastskill4core12blob_storageNtB5_17BlobStorageConfigNtNtCsiJueO4bndGx_4core7default7Default7default
FNDA:0,_RNvXs1_NtNtCs26lDL6qRPME_9fastskill4core12blob_storageNtB5_16LocalBlobStorageNtB5_11BlobStorage6delete
FNDA:0,_RNvXs1_NtNtCs26lDL6qRPME_9fastskill4core12blob_storageNtB5_16LocalBlobStorageNtB5_11BlobStorage6exists
FNDA:0,_RNvXs1_NtNtCs26lDL6qRPME_9fastskill4core12blob_storageNtB5_16LocalBlobStorageNtB5_11BlobStorage6upload
FNDA:0,_RNvXs1_NtNtCs26lDL6qRPME_9fastskill4core12blob_storageNtB5_16LocalBlobStorageNtB5_11BlobStorage8base_url
FNDA:0,_RNvXs1_NtNtCs26lDL6qRPME_9fastskill4core12blob_storageNtB5_16LocalBlobStorageNtB5_11BlobStorage8download
FNDA:0,_RNvXs2_NtNtCs26lDL6qRPME_9fastskill4core12blob_storageNtB5_13S3BlobStorageNtB5_11BlobStorage6delete
FNDA:0,_RNvXs2_NtNtCs26lDL6qRPME_9fastskill4core12blob_storageNtB5_13S3BlobStorageNtB5_11BlobStorage6exists
FNDA:0,_RNvXs2_NtNtCs26lDL6qRPME_9fastskill4core12blob_storageNtB5_13S3BlobStorageNtB5_11BlobStorage6upload
FNDA:0,_RNvXs2_NtNtCs26lDL6qRPME_9fastskill4core12blob_storageNtB5_13S3BlobStorageNtB5_11BlobStorage8base_url
FNDA:0,_RNvXs2_NtNtCs26lDL6qRPME_9fastskill4core12blob_storageNtB5_13S3BlobStorageNtB5_11BlobStorage8download
FNDA:0,_RNCNCNvXs2_NtNtCs26lDL6qRPME_9fastskill4core12blob_storageNtB9_13S3BlobStorageNtB9_11BlobStorage6upload00Bd_
FNDA:0,_RNCNCNvXs2_NtNtCs26lDL6qRPME_9fastskill4core12blob_storageNtB9_13S3BlobStorageNtB9_11BlobStorage8download00Bd_
FNDA:0,_RNCNCNvXs2_NtNtCs26lDL6qRPME_9fastskill4core12blob_storageNtB9_13S3BlobStorageNtB9_11BlobStorage8download0s_0Bd_
FNDA:0,_RNCNvMs_NtNtCs26lDL6qRPME_9fastskill4core12blob_storageNtB6_13S3BlobStorage3new0Ba_
FNDA:0,_RNCNvNtNtCs26lDL6qRPME_9fastskill4core12blob_storage19create_blob_storage0B7_
FNDA:0,_RNvXs0_NtNtCsjhmHPBDWNUU_9fastskill4core12blob_storageNtB5_17BlobStorageConfigNtNtCsiJueO4bndGx_4core7default7Default7default
FNDA:0,_RNCNCNvXs2_NtNtCsjhmHPBDWNUU_9fastskill4core12blob_storageNtB9_13S3BlobStorageNtB9_11BlobStorage6upload00Bd_
FNDA:0,_RNCNCNvXs2_NtNtCsjhmHPBDWNUU_9fastskill4core12blob_storageNtB9_13S3BlobStorageNtB9_11BlobStorage8download00Bd_
FNDA:0,_RNCNCNvXs2_NtNtCsjhmHPBDWNUU_9fastskill4core12blob_storageNtB9_13S3BlobStorageNtB9_11BlobStorage8download0s_0Bd_
FNDA:0,_RNCNvMs_NtNtCsjhmHPBDWNUU_9fastskill4core12blob_storageNtB6_13S3BlobStorage3new0Ba_
FNDA:0,_RNCNvNtNtCsjhmHPBDWNUU_9fastskill4core12blob_storage19create_blob_storage0B7_
FNDA:0,_RNvMNtNtCsjhmHPBDWNUU_9fastskill4core12blob_storageNtB2_16LocalBlobStorage3new
FNDA:0,_RNvMs_NtNtCsjhmHPBDWNUU_9fastskill4core12blob_storageNtB4_13S3BlobStorage3new
FNDA:0,_RNvNtNtCsjhmHPBDWNUU_9fastskill4core12blob_storage12map_s3_error
FNDA:0,_RNvNtNtCsjhmHPBDWNUU_9fastskill4core12blob_storage19create_blob_storage
FNDA:0,_RNvXs1_NtNtCsjhmHPBDWNUU_9fastskill4core12blob_storageNtB5_16LocalBlobStorageNtB5_11BlobStorage6delete
FNDA:0,_RNvXs1_NtNtCsjhmHPBDWNUU_9fastskill4core12blob_storageNtB5_16LocalBlobStorageNtB5_11BlobStorage6exists
FNDA:0,_RNvXs1_NtNtCsjhmHPBDWNUU_9fastskill4core12blob_storageNtB5_16LocalBlobStorageNtB5_11BlobStorage6upload
FNDA:0,_RNvXs1_NtNtCsjhmHPBDWNUU_9fastskill4core12blob_storageNtB5_16LocalBlobStorageNtB5_11BlobStorage8base_url
FNDA:0,_RNvXs1_NtNtCsjhmHPBDWNUU_9fastskill4core12blob_storageNtB5_16LocalBlobStorageNtB5_11BlobStorage8download
FNDA:0,_RNvXs2_NtNtCsjhmHPBDWNUU_9fastskill4core12blob_storageNtB5_13S3BlobStorageNtB5_11BlobStorage6delete
FNDA:0,_RNvXs2_NtNtCsjhmHPBDWNUU_9fastskill4core12blob_storageNtB5_13S3BlobStorageNtB5_11BlobStorage6exists
FNDA:0,_RNvXs2_NtNtCsjhmHPBDWNUU_9fastskill4core12blob_storageNtB5_13S3BlobStorageNtB5_11BlobStorage6upload
FNDA:0,_RNvXs2_NtNtCsjhmHPBDWNUU_9fastskill4core12blob_storageNtB5_13S3BlobStorageNtB5_11BlobStorage8base_url
FNDA:0,_RNvXs2_NtNtCsjhmHPBDWNUU_9fastskill4core12blob_storageNtB5_13S3BlobStorageNtB5_11BlobStorage8download
FNF:20
FNH:0
DA:37,0
DA:38,0
DA:39,0
DA:40,0
DA:41,0
DA:42,0
DA:47,0
DA:62,0
DA:64,0
DA:70,0
DA:72,0
DA:75,0
DA:77,0
DA:91,0
DA:93,0
DA:94,0
DA:95,0
DA:108,0
DA:109,0
DA:110,0
DA:111,0
DA:112,0
DA:113,0
DA:114,0
DA:115,0
DA:121,0
DA:122,0
DA:123,0
DA:125,0
DA:129,0
DA:130,0
DA:131,0
DA:134,0
DA:135,0
DA:136,0
DA:137,0
DA:139,0
DA:140,0
DA:142,0
DA:143,0
DA:144,0
DA:145,0
DA:146,0
DA:147,0
DA:153,0
DA:166,0
DA:167,0
DA:168,0
DA:169,0
DA:170,0
DA:171,0
DA:175,0
DA:177,0
DA:185,0
DA:186,0
DA:187,0
DA:188,0
DA:190,0
DA:192,0
DA:198,0
DA:203,0
DA:205,0
DA:231,0
DA:233,0
DA:257,0
DA:259,0
DA:260,0
DA:261,0
DA:266,0
DA:267,0
DA:270,0
DA:271,0
DA:272,0
DA:273,0
DA:274,0
DA:275,0
DA:276,0
DA:277,0
DA:279,0
DA:281,0
DA:284,0
DA:285,0
DA:286,0
DA:287,0
DA:288,0
DA:289,0
DA:290,0
DA:291,0
DA:292,0
DA:293,0
DA:294,0
DA:297,0
DA:300,0
DA:304,0
DA:305,0
DA:309,0
DA:310,0
DA:311,0
DA:312,0
DA:313,0
DA:314,0
DA:315,0
DA:316,0
DA:317,0
DA:318,0
DA:324,0
DA:325,0
DA:326,0
DA:327,0
DA:329,0
DA:345,0
DA:346,0
DA:347,0
DA:348,0
DA:349,0
DA:350,0
DA:351,0
DA:352,0
DA:353,0
DA:354,0
DA:355,0
DA:356,0
BRF:0
BRH:0
LF:124
LH:0
end_of_record
SF:/home/sysuser/ws001/gofastskill/fastskill/src/core/build_cache.rs
FN:75,_RNvMs_NtNtCs26lDL6qRPME_9fastskill4core11build_cacheNtB4_10BuildCache12update_skill
FN:104,_RNvMs_NtNtCs26lDL6qRPME_9fastskill4core11build_cacheNtB4_10BuildCache15get_cached_hash
FN:99,_RNvMs_NtNtCs26lDL6qRPME_9fastskill4core11build_cacheNtB4_10BuildCache18get_cached_version
FN:46,_RNvMs_NtNtCs26lDL6qRPME_9fastskill4core11build_cacheNtB4_10BuildCache4load
FN:60,_RNvMs_NtNtCs26lDL6qRPME_9fastskill4core11build_cacheNtB4_10BuildCache4save
FN:35,_RNvXNtNtCs26lDL6qRPME_9fastskill4core11build_cacheNtB2_10BuildCacheNtNtCsiJueO4bndGx_4core7default7Default7default
FN:83,_RNCNvMs_NtNtCs26lDL6qRPME_9fastskill4core11build_cacheNtB6_10BuildCache12update_skill0Ba_
FN:91,_RNCNvMs_NtNtCs26lDL6qRPME_9fastskill4core11build_cacheNtB6_10BuildCache12update_skills_0Ba_
FN:105,_RNCNvMs_NtNtCs26lDL6qRPME_9fastskill4core11build_cacheNtB6_10BuildCache15get_cached_hash0Ba_
FN:100,_RNCNvMs_NtNtCs26lDL6qRPME_9fastskill4core11build_cacheNtB6_10BuildCache18get_cached_version0Ba_
FN:54,_RNCNvMs_NtNtCs26lDL6qRPME_9fastskill4core11build_cacheNtB6_10BuildCache4load0Ba_
FN:67,_RNCNvMs_NtNtCs26lDL6qRPME_9fastskill4core11build_cacheNtB6_10BuildCache4save0Ba_
FN:83,_RNCNvMs_NtNtCsjhmHPBDWNUU_9fastskill4core11build_cacheNtB6_10BuildCache12update_skill0Ba_
FN:91,_RNCNvMs_NtNtCsjhmHPBDWNUU_9fastskill4core11build_cacheNtB6_10BuildCache12update_skills_0Ba_
FN:105,_RNCNvMs_NtNtCsjhmHPBDWNUU_9fastskill4core11build_cacheNtB6_10BuildCache15get_cached_hash0Ba_
FN:100,_RNCNvMs_NtNtCsjhmHPBDWNUU_9fastskill4core11build_cacheNtB6_10BuildCache18get_cached_version0Ba_
FN:54,_RNCNvMs_NtNtCsjhmHPBDWNUU_9fastskill4core11build_cacheNtB6_10BuildCache4load0Ba_
FN:67,_RNCNvMs_NtNtCsjhmHPBDWNUU_9fastskill4core11build_cacheNtB6_10BuildCache4save0Ba_
FN:75,_RNvMs_NtNtCsjhmHPBDWNUU_9fastskill4core11build_cacheNtB4_10BuildCache12update_skill
FN:104,_RNvMs_NtNtCsjhmHPBDWNUU_9fastskill4core11build_cacheNtB4_10BuildCache15get_cached_hash
FN:99,_RNvMs_NtNtCsjhmHPBDWNUU_9fastskill4core11build_cacheNtB4_10BuildCache18get_cached_version
FN:46,_RNvMs_NtNtCsjhmHPBDWNUU_9fastskill4core11build_cacheNtB4_10BuildCache4load
FN:60,_RNvMs_NtNtCsjhmHPBDWNUU_9fastskill4core11build_cacheNtB4_10BuildCache4save
FN:35,_RNvXNtNtCsjhmHPBDWNUU_9fastskill4core11build_cacheNtB2_10BuildCacheNtNtCsiJueO4bndGx_4core7default7Default7default
FNDA:0,_RNvMs_NtNtCs26lDL6qRPME_9fastskill4core11build_cacheNtB4_10BuildCache12update_skill
FNDA:0,_RNvMs_NtNtCs26lDL6qRPME_9fastskill4core11build_cacheNtB4_10BuildCache15get_cached_hash
FNDA:0,_RNvMs_NtNtCs26lDL6qRPME_9fastskill4core11build_cacheNtB4_10BuildCache18get_cached_version
FNDA:1,_RNvMs_NtNtCs26lDL6qRPME_9fastskill4core11build_cacheNtB4_10BuildCache4load
FNDA:0,_RNvMs_NtNtCs26lDL6qRPME_9fastskill4core11build_cacheNtB4_10BuildCache4save
FNDA:1,_RNvXNtNtCs26lDL6qRPME_9fastskill4core11build_cacheNtB2_10BuildCacheNtNtCsiJueO4bndGx_4core7default7Default7default
FNDA:0,_RNCNvMs_NtNtCs26lDL6qRPME_9fastskill4core11build_cacheNtB6_10BuildCache12update_skill0Ba_
FNDA:0,_RNCNvMs_NtNtCs26lDL6qRPME_9fastskill4core11build_cacheNtB6_10BuildCache12update_skills_0Ba_
FNDA:0,_RNCNvMs_NtNtCs26lDL6qRPME_9fastskill4core11build_cacheNtB6_10BuildCache15get_cached_hash0Ba_
FNDA:0,_RNCNvMs_NtNtCs26lDL6qRPME_9fastskill4core11build_cacheNtB6_10BuildCache18get_cached_version0Ba_
FNDA:0,_RNCNvMs_NtNtCs26lDL6qRPME_9fastskill4core11build_cacheNtB6_10BuildCache4load0Ba_
FNDA:0,_RNCNvMs_NtNtCs26lDL6qRPME_9fastskill4core11build_cacheNtB6_10BuildCache4save0Ba_
FNDA:0,_RNCNvMs_NtNtCsjhmHPBDWNUU_9fastskill4core11build_cacheNtB6_10BuildCache12update_skill0Ba_
FNDA:0,_RNCNvMs_NtNtCsjhmHPBDWNUU_9fastskill4core11build_cacheNtB6_10BuildCache12update_skills_0Ba_
FNDA:0,_RNCNvMs_NtNtCsjhmHPBDWNUU_9fastskill4core11build_cacheNtB6_10BuildCache15get_cached_hash0Ba_
FNDA:0,_RNCNvMs_NtNtCsjhmHPBDWNUU_9fastskill4core11build_cacheNtB6_10BuildCache18get_cached_version0Ba_
FNDA:0,_RNCNvMs_NtNtCsjhmHPBDWNUU_9fastskill4core11build_cacheNtB6_10BuildCache4load0Ba_
FNDA:0,_RNCNvMs_NtNtCsjhmHPBDWNUU_9fastskill4core11build_cacheNtB6_10BuildCache4save0Ba_
FNDA:0,_RNvMs_NtNtCsjhmHPBDWNUU_9fastskill4core11build_cacheNtB4_10BuildCache12update_skill
FNDA:0,_RNvMs_NtNtCsjhmHPBDWNUU_9fastskill4core11build_cacheNtB4_10BuildCache15get_cached_hash
FNDA:0,_RNvMs_NtNtCsjhmHPBDWNUU_9fastskill4core11build_cacheNtB4_10BuildCache18get_cached_version
FNDA:0,_RNvMs_NtNtCsjhmHPBDWNUU_9fastskill4core11build_cacheNtB4_10BuildCache4load
FNDA:0,_RNvMs_NtNtCsjhmHPBDWNUU_9fastskill4core11build_cacheNtB4_10BuildCache4save
FNDA:0,_RNvXNtNtCsjhmHPBDWNUU_9fastskill4core11build_cacheNtB2_10BuildCacheNtNtCsiJueO4bndGx_4core7default7Default7default
FNF:12
FNH:2
DA:35,1
DA:36,1
DA:37,1
DA:38,1
DA:39,1
DA:40,1
DA:41,1
DA:46,1
DA:47,1
DA:48,1
DA:49,0
DA:51,0
DA:53,0
DA:54,0
DA:56,0
DA:57,1
DA:60,0
DA:62,0
DA:63,0
DA:64,0
DA:66,0
DA:67,0
DA:69,0
DA:71,0
DA:72,0
DA:75,0
DA:76,0
DA:77,0
DA:78,0
DA:79,0
DA:80,0
DA:81,0
DA:82,0
DA:83,0
DA:85,0
DA:86,0
DA:87,0
DA:88,0
DA:89,0
DA:90,0
DA:91,0
DA:94,0
DA:95,0
DA:96,0
DA:99,0
DA:100,0
DA:101,0
DA:104,0
DA:105,0
DA:106,0
BRF:0
BRH:0
LF:56
LH:11
end_of_record
SF:/home/sysuser/ws001/gofastskill/fastskill/src/core/change_detection.rs
FN:128,_RNCNvNtNtCs26lDL6qRPME_9fastskill4core16change_detection20calculate_skill_hash0B7_
FN:131,_RNCNvNtNtCs26lDL6qRPME_9fastskill4core16change_detection20calculate_skill_hashs0_0B7_
FN:129,_RNCNvNtNtCs26lDL6qRPME_9fastskill4core16change_detection20calculate_skill_hashs_0B7_
FN:26,_RNCNvNtNtCs26lDL6qRPME_9fastskill4core16change_detection25detect_changed_skills_git0B7_
FN:47,_RNCNvNtNtCs26lDL6qRPME_9fastskill4core16change_detection25detect_changed_skills_gits0_0B7_
FN:46,_RNCNvNtNtCs26lDL6qRPME_9fastskill4core16change_detection25detect_changed_skills_gits_0B7_
FN:84,_RNCNvNtNtCs26lDL6qRPME_9fastskill4core16change_detection26detect_changed_skills_hash0B7_
FN:94,_RNCNvNtNtCs26lDL6qRPME_9fastskill4core16change_detection26detect_changed_skills_hashs_0B7_
FN:118,_RNvNtNtCs26lDL6qRPME_9fastskill4core16change_detection20calculate_skill_hash
FN:10,_RNvNtNtCs26lDL6qRPME_9fastskill4core16change_detection25detect_changed_skills_git
FN:64,_RNvNtNtCs26lDL6qRPME_9fastskill4core16change_detection26detect_changed_skills_hash
FN:128,_RNCNvNtNtCsjhmHPBDWNUU_9fastskill4core16change_detection20calculate_skill_hash0B7_
FN:131,_RNCNvNtNtCsjhmHPBDWNUU_9fastskill4core16change_detection20calculate_skill_hashs0_0B7_
FN:129,_RNCNvNtNtCsjhmHPBDWNUU_9fastskill4core16change_detection20calculate_skill_hashs_0B7_
FN:26,_RNCNvNtNtCsjhmHPBDWNUU_9fastskill4core16change_detection25detect_changed_skills_git0B7_
FN:47,_RNCNvNtNtCsjhmHPBDWNUU_9fastskill4core16change_detection25detect_changed_skills_gits0_0B7_
FN:46,_RNCNvNtNtCsjhmHPBDWNUU_9fastskill4core16change_detection25detect_changed_skills_gits_0B7_
FN:84,_RNCNvNtNtCsjhmHPBDWNUU_9fastskill4core16change_detection26detect_changed_skills_hash0B7_
FN:94,_RNCNvNtNtCsjhmHPBDWNUU_9fastskill4core16change_detection26detect_changed_skills_hashs_0B7_
FN:118,_RNvNtNtCsjhmHPBDWNUU_9fastskill4core16change_detection20calculate_skill_hash
FN:10,_RNvNtNtCsjhmHPBDWNUU_9fastskill4core16change_detection25detect_changed_skills_git
FN:64,_RNvNtNtCsjhmHPBDWNUU_9fastskill4core16change_detection26detect_changed_skills_hash
FNDA:0,_RNCNvNtNtCs26lDL6qRPME_9fastskill4core16change_detection20calculate_skill_hash0B7_
FNDA:0,_RNCNvNtNtCs26lDL6qRPME_9fastskill4core16change_detection20calculate_skill_hashs0_0B7_
FNDA:0,_RNCNvNtNtCs26lDL6qRPME_9fastskill4core16change_detection20calculate_skill_hashs_0B7_
FNDA:0,_RNCNvNtNtCs26lDL6qRPME_9fastskill4core16change_detection25detect_changed_skills_git0B7_
FNDA:0,_RNCNvNtNtCs26lDL6qRPME_9fastskill4core16change_detection25detect_changed_skills_gits0_0B7_
FNDA:0,_RNCNvNtNtCs26lDL6qRPME_9fastskill4core16change_detection25detect_changed_skills_gits_0B7_
FNDA:0,_RNCNvNtNtCs26lDL6qRPME_9fastskill4core16change_detection26detect_changed_skills_hash0B7_
FNDA:0,_RNCNvNtNtCs26lDL6qRPME_9fastskill4core16change_detection26detect_changed_skills_hashs_0B7_
FNDA:0,_RNvNtNtCs26lDL6qRPME_9fastskill4core16change_detection20calculate_skill_hash
FNDA:0,_RNvNtNtCs26lDL6qRPME_9fastskill4core16change_detection25detect_changed_skills_git
FNDA:0,_RNvNtNtCs26lDL6qRPME_9fastskill4core16change_detection26detect_changed_skills_hash
FNDA:0,_RNCNvNtNtCsjhmHPBDWNUU_9fastskill4core16change_detection20calculate_skill_hash0B7_
FNDA:0,_RNCNvNtNtCsjhmHPBDWNUU_9fastskill4core16change_detection20calculate_skill_hashs0_0B7_
FNDA:0,_RNCNvNtNtCsjhmHPBDWNUU_9fastskill4core16change_detection20calculate_skill_hashs_0B7_
FNDA:0,_RNCNvNtNtCsjhmHPBDWNUU_9fastskill4core16change_detection25detect_changed_skills_git0B7_
FNDA:0,_RNCNvNtNtCsjhmHPBDWNUU_9fastskill4core16change_detection25detect_changed_skills_gits0_0B7_
FNDA:0,_RNCNvNtNtCsjhmHPBDWNUU_9fastskill4core16change_detection25detect_changed_skills_gits_0B7_
FNDA:0,_RNCNvNtNtCsjhmHPBDWNUU_9fastskill4core16change_detection26detect_changed_skills_hash0B7_
FNDA:0,_RNCNvNtNtCsjhmHPBDWNUU_9fastskill4core16change_detection26detect_changed_skills_hashs_0B7_
FNDA:0,_RNvNtNtCsjhmHPBDWNUU_9fastskill4core16change_detection20calculate_skill_hash
FNDA:0,_RNvNtNtCsjhmHPBDWNUU_9fastskill4core16change_detection25detect_changed_skills_git
FNDA:0,_RNvNtNtCsjhmHPBDWNUU_9fastskill4core16change_detection26detect_changed_skills_hash
FNF:11
FNH:0
DA:10,0
DA:11,0
DA:12,0
DA:13,0
DA:14,0
DA:15,0
DA:23,0
DA:24,0
DA:25,0
DA:26,0
DA:28,0
DA:29,0
DA:30,0
DA:31,0
DA:32,0
DA:33,0
DA:36,0
DA:37,0
DA:38,0
DA:40,0
DA:41,0
DA:42,0
DA:44,0
DA:45,0
DA:46,0
DA:47,0
DA:48,0
DA:50,0
DA:51,0
DA:52,0
DA:53,0
DA:54,0
DA:55,0
DA:58,0
DA:59,0
DA:60,0
DA:61,0
DA:64,0
DA:65,0
DA:66,0
DA:67,0
DA:68,0
DA:70,0
DA:71,0
DA:72,0
DA:74,0
DA:77,0
DA:79,0
DA:80,0
DA:81,0
DA:83,0
DA:84,0
DA:86,0
DA:87,0
DA:90,0
DA:92,0
DA:93,0
DA:94,0
DA:95,0
DA:97,0
DA:100,0
DA:101,0
DA:103,0
DA:104,0
DA:105,0
DA:106,0
DA:107,0
DA:110,0
DA:112,0
DA:114,0
DA:115,0
DA:118,0
DA:123,0
DA:126,0
DA:127,0
DA:128,0
DA:129,0
DA:131,0
DA:134,0
DA:136,0
DA:138,0
DA:141,0
DA:142,0
DA:143,0
DA:144,0
DA:146,0
DA:147,0
DA:150,0
DA:151,0
DA:152,0
BRF:0
BRH:0
LF:98
LH:0
end_of_record
SF:/home/sysuser/ws001/gofastskill/fastskill/src/core/dependencies.rs
FN:43,_RNvMNtNtCs26lDL6qRPME_9fastskill4core12dependenciesNtB2_10Dependency14parse_multiple
FN:16,_RNvMNtNtCs26lDL6qRPME_9fastskill4core12dependenciesNtB2_10Dependency5parse
FN:96,_RNvMs_NtNtCs26lDL6qRPME_9fastskill4core12dependenciesNtB4_15DependencyGraph11build_graph
FN:105,_RNvMs_NtNtCs26lDL6qRPME_9fastskill4core12dependenciesNtB4_15DependencyGraph13detect_cycles
FN:242,_RNvMs_NtNtCs26lDL6qRPME_9fastskill4core12dependenciesNtB4_15DependencyGraph14get_dependents
FN:123,_RNvMs_NtNtCs26lDL6qRPME_9fastskill4core12dependenciesNtB4_15DependencyGraph16dfs_cycle_detect
FN:237,_RNvMs_NtNtCs26lDL6qRPME_9fastskill4core12dependenciesNtB4_15DependencyGraph16get_dependencies
FN:169,_RNvMs_NtNtCs26lDL6qRPME_9fastskill4core12dependenciesNtB4_15DependencyGraph16topological_sort
FN:133,_RNvMs_NtNtCs26lDL6qRPME_9fastskill4core12dependenciesNtB4_15DependencyGraph25dfs_cycle_detect_internal
FN:74,_RNvMs_NtNtCs26lDL6qRPME_9fastskill4core12dependenciesNtB4_15DependencyGraph3new
FN:82,_RNvMs_NtNtCs26lDL6qRPME_9fastskill4core12dependenciesNtB4_15DependencyGraph9add_skill
FN:251,_RNvXs0_NtNtCs26lDL6qRPME_9fastskill4core12dependenciesNtB5_15DependencyGraphNtNtCsiJueO4bndGx_4core7default7Default7default
FN:185,_RNCNCNvMs_NtNtCs26lDL6qRPME_9fastskill4core12dependenciesNtB8_15DependencyGraph16topological_sort00Bc_
FN:44,_RNCNvMNtNtCs26lDL6qRPME_9fastskill4core12dependenciesNtB4_10Dependency14parse_multiple0B8_
FN:183,_RNCNvMs_NtNtCs26lDL6qRPME_9fastskill4core12dependenciesNtB6_15DependencyGraph16topological_sort0Ba_
FN:196,_RNCNvMs_NtNtCs26lDL6qRPME_9fastskill4core12dependenciesNtB6_15DependencyGraph16topological_sorts0_0Ba_
FN:195,_RNCNvMs_NtNtCs26lDL6qRPME_9fastskill4core12dependenciesNtB6_15DependencyGraph16topological_sorts_0Ba_
FN:44,_RNCNvMNtNtCsjhmHPBDWNUU_9fastskill4core12dependenciesNtB4_10Dependency14parse_multiple0B8_
FN:43,_RNvMNtNtCsjhmHPBDWNUU_9fastskill4core12dependenciesNtB2_10Dependency14parse_multiple
FN:96,_RNvMs_NtNtCsjhmHPBDWNUU_9fastskill4core12dependenciesNtB4_15DependencyGraph11build_graph
FN:242,_RNvMs_NtNtCsjhmHPBDWNUU_9fastskill4core12dependenciesNtB4_15DependencyGraph14get_dependents
FN:237,_RNvMs_NtNtCsjhmHPBDWNUU_9fastskill4core12dependenciesNtB4_15DependencyGraph16get_dependencies
FN:251,_RNvXs0_NtNtCsjhmHPBDWNUU_9fastskill4core12dependenciesNtB5_15DependencyGraphNtNtCsiJueO4bndGx_4core7default7Default7default
FN:185,_RNCNCNvMs_NtNtCsjhmHPBDWNUU_9fastskill4core12dependenciesNtB8_15DependencyGraph16topological_sort00Bc_
FN:183,_RNCNvMs_NtNtCsjhmHPBDWNUU_9fastskill4core12dependenciesNtB6_15DependencyGraph16topological_sort0Ba_
FN:196,_RNCNvMs_NtNtCsjhmHPBDWNUU_9fastskill4core12dependenciesNtB6_15DependencyGraph16topological_sorts0_0Ba_
FN:195,_RNCNvMs_NtNtCsjhmHPBDWNUU_9fastskill4core12dependenciesNtB6_15DependencyGraph16topological_sorts_0Ba_
FN:16,_RNvMNtNtCsjhmHPBDWNUU_9fastskill4core12dependenciesNtB2_10Dependency5parse
FN:105,_RNvMs_NtNtCsjhmHPBDWNUU_9fastskill4core12dependenciesNtB4_15DependencyGraph13detect_cycles
FN:123,_RNvMs_NtNtCsjhmHPBDWNUU_9fastskill4core12dependenciesNtB4_15DependencyGraph16dfs_cycle_detect
FN:169,_RNvMs_NtNtCsjhmHPBDWNUU_9fastskill4core12dependenciesNtB4_15DependencyGraph16topological_sort
FN:133,_RNvMs_NtNtCsjhmHPBDWNUU_9fastskill4core12dependenciesNtB4_15DependencyGraph25dfs_cycle_detect_internal
FN:74,_RNvMs_NtNtCsjhmHPBDWNUU_9fastskill4core12dependenciesNtB4_15DependencyGraph3new
FN:82,_RNvMs_NtNtCsjhmHPBDWNUU_9fastskill4core12dependenciesNtB4_15DependencyGraph9add_skill
FN:273,_RNvNtNtNtCsjhmHPBDWNUU_9fastskill4core12dependencies5testss_20test_cycle_detection
FN:262,_RNvNtNtNtCsjhmHPBDWNUU_9fastskill4core12dependencies5testss_21test_parse_dependency
FN:294,_RNvNtNtNtCsjhmHPBDWNUU_9fastskill4core12dependencies5testss_21test_topological_sort
FN:341,_RNvNtNtNtCsjhmHPBDWNUU_9fastskill4core12dependencies5testss_31test_topological_sort_branching
FN:384,_RNvNtNtNtCsjhmHPBDWNUU_9fastskill4core12dependencies5testss_36test_topological_sort_multiple_roots
FN:322,_RNCNvNtNtNtCsjhmHPBDWNUU_9fastskill4core12dependencies5testss_21test_topological_sort0B9_
FN:324,_RNCNvNtNtNtCsjhmHPBDWNUU_9fastskill4core12dependencies5testss_21test_topological_sorts0_0B9_
FN:323,_RNCNvNtNtNtCsjhmHPBDWNUU_9fastskill4core12dependencies5testss_21test_topological_sorts_0B9_
FN:372,_RNCNvNtNtNtCsjhmHPBDWNUU_9fastskill4core12dependencies5testss_31test_topological_sort_branching0B9_
FN:374,_RNCNvNtNtNtCsjhmHPBDWNUU_9fastskill4core12dependencies5testss_31test_topological_sort_branchings0_0B9_
FN:379,_RNCNvNtNtNtCsjhmHPBDWNUU_9fastskill4core12dependencies5testss_31test_topological_sort_branchings1_0B9_
FN:373,_RNCNvNtNtNtCsjhmHPBDWNUU_9fastskill4core12dependencies5testss_31test_topological_sort_branchings_0B9_
FN:402,_RNCNvNtNtNtCsjhmHPBDWNUU_9fastskill4core12dependencies5testss_36test_topological_sort_multiple_roots0B9_
FN:403,_RNCNvNtNtNtCsjhmHPBDWNUU_9fastskill4core12dependencies5testss_36test_topological_sort_multiple_rootss_0B9_
FNDA:0,_RNvMNtNtCs26lDL6qRPME_9fastskill4core12dependenciesNtB2_10Dependency14parse_multiple
FNDA:0,_RNvMNtNtCs26lDL6qRPME_9fastskill4core12dependenciesNtB2_10Dependency5parse
FNDA:0,_RNvMs_NtNtCs26lDL6qRPME_9fastskill4core12dependenciesNtB4_15DependencyGraph11build_graph
FNDA:0,_RNvMs_NtNtCs26lDL6qRPME_9fastskill4core12dependenciesNtB4_15DependencyGraph13detect_cycles
FNDA:0,_RNvMs_NtNtCs26lDL6qRPME_9fastskill4core12dependenciesNtB4_15DependencyGraph14get_dependents
FNDA:0,_RNvMs_NtNtCs26lDL6qRPME_9fastskill4core12dependenciesNtB4_15DependencyGraph16dfs_cycle_detect
FNDA:0,_RNvMs_NtNtCs26lDL6qRPME_9fastskill4core12dependenciesNtB4_15DependencyGraph16get_dependencies
FNDA:0,_RNvMs_NtNtCs26lDL6qRPME_9fastskill4core12dependenciesNtB4_15DependencyGraph16topological_sort
FNDA:0,_RNvMs_NtNtCs26lDL6qRPME_9fastskill4core12dependenciesNtB4_15DependencyGraph25dfs_cycle_detect_internal
FNDA:0,_RNvMs_NtNtCs26lDL6qRPME_9fastskill4core12dependenciesNtB4_15DependencyGraph3new
FNDA:0,_RNvMs_NtNtCs26lDL6qRPME_9fastskill4core12dependenciesNtB4_15DependencyGraph9add_skill
FNDA:0,_RNvXs0_NtNtCs26lDL6qRPME_9fastskill4core12dependenciesNtB5_15DependencyGraphNtNtCsiJueO4bndGx_4core7default7Default7default
FNDA:0,_RNCNCNvMs_NtNtCs26lDL6qRPME_9fastskill4core12dependenciesNtB8_15DependencyGraph16topological_sort00Bc_
FNDA:0,_RNCNvMNtNtCs26lDL6qRPME_9fastskill4core12dependenciesNtB4_10Dependency14parse_multiple0B8_
FNDA:0,_RNCNvMs_NtNtCs26lDL6qRPME_9fastskill4core12dependenciesNtB6_15DependencyGraph16topological_sort0Ba_
FNDA:0,_RNCNvMs_NtNtCs26lDL6qRPME_9fastskill4core12dependenciesNtB6_15DependencyGraph16topological_sorts0_0Ba_
FNDA:0,_RNCNvMs_NtNtCs26lDL6qRPME_9fastskill4core12dependenciesNtB6_15DependencyGraph16topological_sorts_0Ba_
FNDA:0,_RNCNvMNtNtCsjhmHPBDWNUU_9fastskill4core12dependenciesNtB4_10Dependency14parse_multiple0B8_
FNDA:0,_RNvMNtNtCsjhmHPBDWNUU_9fastskill4core12dependenciesNtB2_10Dependency14parse_multiple
FNDA:0,_RNvMs_NtNtCsjhmHPBDWNUU_9fastskill4core12dependenciesNtB4_15DependencyGraph11build_graph
FNDA:0,_RNvMs_NtNtCsjhmHPBDWNUU_9fastskill4core12dependenciesNtB4_15DependencyGraph14get_dependents
FNDA:0,_RNvMs_NtNtCsjhmHPBDWNUU_9fastskill4core12dependenciesNtB4_15DependencyGraph16get_dependencies
FNDA:0,_RNvXs0_NtNtCsjhmHPBDWNUU_9fastskill4core12dependenciesNtB5_15DependencyGraphNtNtCsiJueO4bndGx_4core7default7Default7default
FNDA:6,_RNCNCNvMs_NtNtCsjhmHPBDWNUU_9fastskill4core12dependenciesNtB8_15DependencyGraph16topological_sort00Bc_
FNDA:10,_RNCNvMs_NtNtCsjhmHPBDWNUU_9fastskill4core12dependenciesNtB6_15DependencyGraph16topological_sort0Ba_
FNDA:5,_RNCNvMs_NtNtCsjhmHPBDWNUU_9fastskill4core12dependenciesNtB6_15DependencyGraph16topological_sorts0_0Ba_
FNDA:10,_RNCNvMs_NtNtCsjhmHPBDWNUU_9fastskill4core12dependenciesNtB6_15DependencyGraph16topological_sorts_0Ba_
FNDA:2,_RNvMNtNtCsjhmHPBDWNUU_9fastskill4core12dependenciesNtB2_10Dependency5parse
FNDA:4,_RNvMs_NtNtCsjhmHPBDWNUU_9fastskill4core12dependenciesNtB4_15DependencyGraph13detect_cycles
FNDA:8,_RNvMs_NtNtCsjhmHPBDWNUU_9fastskill4core12dependenciesNtB4_15DependencyGraph16dfs_cycle_detect
FNDA:3,_RNvMs_NtNtCsjhmHPBDWNUU_9fastskill4core12dependenciesNtB4_15DependencyGraph16topological_sort
FNDA:16,_RNvMs_NtNtCsjhmHPBDWNUU_9fastskill4core12dependenciesNtB4_15DependencyGraph25dfs_cycle_detect_internal
FNDA:4,_RNvMs_NtNtCsjhmHPBDWNUU_9fastskill4core12dependenciesNtB4_15DependencyGraph3new
FNDA:12,_RNvMs_NtNtCsjhmHPBDWNUU_9fastskill4core12dependenciesNtB4_15DependencyGraph9add_skill
FNDA:1,_RNvNtNtNtCsjhmHPBDWNUU_9fastskill4core12dependencies5testss_20test_cycle_detection
FNDA:1,_RNvNtNtNtCsjhmHPBDWNUU_9fastskill4core12dependencies5testss_21test_parse_dependency
FNDA:1,_RNvNtNtNtCsjhmHPBDWNUU_9fastskill4core12dependencies5testss_21test_topological_sort
FNDA:1,_RNvNtNtNtCsjhmHPBDWNUU_9fastskill4core12dependencies5testss_31test_topological_sort_branching
FNDA:1,_RNvNtNtNtCsjhmHPBDWNUU_9fastskill4core12dependencies5testss_36test_topological_sort_multiple_roots
FNDA:1,_RNCNvNtNtNtCsjhmHPBDWNUU_9fastskill4core12dependencies5testss_21test_topological_sort0B9_
FNDA:3,_RNCNvNtNtNtCsjhmHPBDWNUU_9fastskill4core12dependencies5testss_21test_topological_sorts0_0B9_
FNDA:2,_RNCNvNtNtNtCsjhmHPBDWNUU_9fastskill4core12dependencies5testss_21test_topological_sorts_0B9_
FNDA:2,_RNCNvNtNtNtCsjhmHPBDWNUU_9fastskill4core12dependencies5testss_31test_topological_sort_branching0B9_
FNDA:4,_RNCNvNtNtNtCsjhmHPBDWNUU_9fastskill4core12dependencies5testss_31test_topological_sort_branchings0_0B9_
FNDA:1,_RNCNvNtNtNtCsjhmHPBDWNUU_9fastskill4core12dependencies5testss_31test_topological_sort_branchings1_0B9_
FNDA:3,_RNCNvNtNtNtCsjhmHPBDWNUU_9fastskill4core12dependencies5testss_31test_topological_sort_branchings_0B9_
FNDA:1,_RNCNvNtNtNtCsjhmHPBDWNUU_9fastskill4core12dependencies5testss_36test_topological_sort_multiple_roots0B9_
FNDA:3,_RNCNvNtNtNtCsjhmHPBDWNUU_9fastskill4core12dependencies5testss_36test_topological_sort_multiple_rootss_0B9_
FNF:31
FNH:25
DA:16,2
DA:17,2
DA:18,1
DA:19,1
DA:21,1
DA:22,0
DA:23,0
DA:24,0
DA:25,1
DA:27,1
DA:28,1
DA:30,1
DA:31,1
DA:32,1
DA:33,1
DA:35,1
DA:36,1
DA:37,1
DA:38,1
DA:40,2
DA:43,0
DA:44,0
DA:45,0
DA:74,4
DA:75,4
DA:76,4
DA:77,4
DA:78,4
DA:79,4
DA:82,12
DA:84,12
DA:87,12
DA:88,8
DA:89,8
DA:90,8
DA:91,8
DA:92,8
DA:93,12
DA:96,0
DA:97,0
DA:98,0
DA:99,0
DA:100,0
DA:101,0
DA:102,0
DA:105,4
DA:106,4
DA:107,4
DA:109,11
DA:110,11
DA:111,8
DA:113,1
DA:114,1
DA:115,1
DA:116,10
DA:119,3
DA:120,4
DA:123,8
DA:124,8
DA:125,8
DA:126,8
DA:127,8
DA:128,8
DA:129,8
DA:130,8
DA:133,16
DA:134,16
DA:135,16
DA:136,16
DA:137,16
DA:138,16
DA:139,16
DA:140,1
DA:141,15
DA:143,15
DA:144,3
DA:145,12
DA:147,12
DA:148,12
DA:150,12
DA:151,12
DA:153,8
DA:154,0
DA:155,8
DA:157,8
DA:158,2
DA:159,6
DA:161,0
DA:163,10
DA:164,10
DA:165,16
DA:169,3
DA:171,3
DA:175,3
DA:178,10
DA:180,10
DA:181,10
DA:182,10
DA:183,10
DA:184,10
DA:185,10
DA:186,10
DA:187,10
DA:188,10
DA:189,10
DA:193,3
DA:194,3
DA:195,10
DA:196,5
DA:197,3
DA:199,3
DA:202,13
DA:203,10
DA:207,10
DA:208,6
DA:210,6
DA:211,6
DA:212,6
DA:213,6
DA:214,5
DA:215,5
DA:216,0
DA:217,0
DA:219,4
DA:223,3
DA:226,0
DA:227,0
DA:228,0
DA:229,0
DA:230,0
DA:231,3
DA:233,3
DA:234,3
DA:237,0
DA:238,0
DA:239,0
DA:242,0
DA:243,0
DA:244,0
DA:245,0
DA:246,0
DA:247,0
DA:251,0
DA:252,0
DA:253,0
DA:262,1
DA:263,1
DA:264,1
DA:265,1
DA:267,1
DA:268,1
DA:269,1
DA:270,1
DA:273,1
DA:274,1
DA:275,1
DA:276,1
DA:277,1
DA:278,1
DA:279,1
DA:280,1
DA:282,1
DA:283,1
DA:284,1
DA:285,1
DA:286,1
DA:287,1
DA:290,1
DA:291,1
DA:294,1
DA:295,1
DA:298,1
DA:299,1
DA:300,1
DA:301,1
DA:302,1
DA:303,1
DA:305,1
DA:306,1
DA:307,1
DA:308,1
DA:309,1
DA:310,1
DA:312,1
DA:314,1
DA:316,1
DA:317,1
DA:318,1
DA:319,1
DA:322,1
DA:323,2
DA:324,3
DA:326,1
DA:327,1
DA:332,1
DA:333,1
DA:338,1
DA:341,1
DA:342,1
DA:345,1
DA:346,1
DA:347,1
DA:348,1
DA:349,1
DA:350,1
DA:351,1
DA:352,1
DA:353,1
DA:354,1
DA:355,1
DA:358,1
DA:359,1
DA:360,1
DA:361,1
DA:362,1
DA:363,1
DA:365,1
DA:366,1
DA:368,1
DA:369,1
DA:372,2
DA:373,3
DA:374,4
DA:376,1
DA:377,1
DA:379,1
DA:380,1
DA:381,1
DA:384,1
DA:385,1
DA:388,1
DA:389,1
DA:390,1
DA:391,1
DA:392,1
DA:393,1
DA:395,1
DA:396,1
DA:398,1
DA:399,1
DA:402,1
DA:403,3
DA:404,1
DA:407,1
DA:408,1
BRF:0
BRH:0
LF:259
LH:224
end_of_record
SF:/home/sysuser/ws001/gofastskill/fastskill/src/core/embedding.rs
FN:49,_RNvMNtNtCs26lDL6qRPME_9fastskill4core9embeddingNtB2_22OpenAIEmbeddingService11from_config
FN:58,_RNvMNtNtCs26lDL6qRPME_9fastskill4core9embeddingNtB2_22OpenAIEmbeddingService15call_openai_api
FN:39,_RNvMNtNtCs26lDL6qRPME_9fastskill4core9embeddingNtB2_22OpenAIEmbeddingService3new
FN:108,_RNvXs1_NtNtCs26lDL6qRPME_9fastskill4core9embeddingNtB5_22OpenAIEmbeddingServiceNtB5_16EmbeddingService10embed_text
FN:114,_RNvXs1_NtNtCs26lDL6qRPME_9fastskill4core9embeddingNtB5_22OpenAIEmbeddingServiceNtB5_16EmbeddingService11embed_query
FN:80,_RNCNCNvMNtNtCs26lDL6qRPME_9fastskill4core9embeddingNtB6_22OpenAIEmbeddingService15call_openai_api00Ba_
FN:94,_RNCNCNvMNtNtCs26lDL6qRPME_9fastskill4core9embeddingNtB6_22OpenAIEmbeddingService15call_openai_api0s_0Ba_
FN:58,_RNCNvMNtNtCs26lDL6qRPME_9fastskill4core9embeddingNtB4_22OpenAIEmbeddingService15call_openai_api0B8_
FN:80,_RNCNCNvMNtNtCsjhmHPBDWNUU_9fastskill4core9embeddingNtB6_22OpenAIEmbeddingService15call_openai_api00Ba_
FN:94,_RNCNCNvMNtNtCsjhmHPBDWNUU_9fastskill4core9embeddingNtB6_22OpenAIEmbeddingService15call_openai_api0s_0Ba_
FN:58,_RNCNvMNtNtCsjhmHPBDWNUU_9fastskill4core9embeddingNtB4_22OpenAIEmbeddingService15call_openai_api0B8_
FN:49,_RNvMNtNtCsjhmHPBDWNUU_9fastskill4core9embeddingNtB2_22OpenAIEmbeddingService11from_config
FN:58,_RNvMNtNtCsjhmHPBDWNUU_9fastskill4core9embeddingNtB2_22OpenAIEmbeddingService15call_openai_api
FN:39,_RNvMNtNtCsjhmHPBDWNUU_9fastskill4core9embeddingNtB2_22OpenAIEmbeddingService3new
FN:108,_RNvXs1_NtNtCsjhmHPBDWNUU_9fastskill4core9embeddingNtB5_22OpenAIEmbeddingServiceNtB5_16EmbeddingService10embed_text
FN:114,_RNvXs1_NtNtCsjhmHPBDWNUU_9fastskill4core9embeddingNtB5_22OpenAIEmbeddingServiceNtB5_16EmbeddingService11embed_query
FNDA:0,_RNvMNtNtCs26lDL6qRPME_9fastskill4core9embeddingNtB2_22OpenAIEmbeddingService11from_config
FNDA:0,_RNvMNtNtCs26lDL6qRPME_9fastskill4core9embeddingNtB2_22OpenAIEmbeddingService15call_openai_api
FNDA:0,_RNvMNtNtCs26lDL6qRPME_9fastskill4core9embeddingNtB2_22OpenAIEmbeddingService3new
FNDA:0,_RNvXs1_NtNtCs26lDL6qRPME_9fastskill4core9embeddingNtB5_22OpenAIEmbeddingServiceNtB5_16EmbeddingService10embed_text
FNDA:0,_RNvXs1_NtNtCs26lDL6qRPME_9fastskill4core9embeddingNtB5_22OpenAIEmbeddingServiceNtB5_16EmbeddingService11embed_query
FNDA:0,_RNCNCNvMNtNtCs26lDL6qRPME_9fastskill4core9embeddingNtB6_22OpenAIEmbeddingService15call_openai_api00Ba_
FNDA:0,_RNCNCNvMNtNtCs26lDL6qRPME_9fastskill4core9embeddingNtB6_22OpenAIEmbeddingService15call_openai_api0s_0Ba_
FNDA:0,_RNCNvMNtNtCs26lDL6qRPME_9fastskill4core9embeddingNtB4_22OpenAIEmbeddingService15call_openai_api0B8_
FNDA:0,_RNCNCNvMNtNtCsjhmHPBDWNUU_9fastskill4core9embeddingNtB6_22OpenAIEmbeddingService15call_openai_api00Ba_
FNDA:0,_RNCNCNvMNtNtCsjhmHPBDWNUU_9fastskill4core9embeddingNtB6_22OpenAIEmbeddingService15call_openai_api0s_0Ba_
FNDA:0,_RNCNvMNtNtCsjhmHPBDWNUU_9fastskill4core9embeddingNtB4_22OpenAIEmbeddingService15call_openai_api0B8_
FNDA:0,_RNvMNtNtCsjhmHPBDWNUU_9fastskill4core9embeddingNtB2_22OpenAIEmbeddingService11from_config
FNDA:0,_RNvMNtNtCsjhmHPBDWNUU_9fastskill4core9embeddingNtB2_22OpenAIEmbeddingService15call_openai_api
FNDA:0,_RNvMNtNtCsjhmHPBDWNUU_9fastskill4core9embeddingNtB2_22OpenAIEmbeddingService3new
FNDA:0,_RNvXs1_NtNtCsjhmHPBDWNUU_9fastskill4core9embeddingNtB5_22OpenAIEmbeddingServiceNtB5_16EmbeddingService10embed_text
FNDA:0,_RNvXs1_NtNtCsjhmHPBDWNUU_9fastskill4core9embeddingNtB5_22OpenAIEmbeddingServiceNtB5_16EmbeddingService11embed_query
FNF:8
FNH:0
DA:39,0
DA:40,0
DA:41,0
DA:42,0
DA:43,0
DA:44,0
DA:45,0
DA:46,0
DA:49,0
DA:50,0
DA:51,0
DA:52,0
DA:53,0
DA:55,0
DA:58,0
DA:65,0
DA:66,0
DA:67,0
DA:68,0
DA:70,0
DA:72,0
DA:73,0
DA:74,0
DA:75,0
DA:76,0
DA:77,0
DA:78,0
DA:79,0
DA:80,0
DA:82,0
DA:83,0
DA:84,0
DA:85,0
DA:86,0
DA:87,0
DA:88,0
DA:89,0
DA:91,0
DA:92,0
DA:93,0
DA:94,0
DA:96,0
DA:97,0
DA:98,0
DA:99,0
DA:100,0
DA:102,0
DA:103,0
DA:108,0
DA:112,0
DA:114,0
DA:117,0
BRF:0
BRH:0
LF:55
LH:0
end_of_record
SF:/home/sysuser/ws001/gofastskill/fastskill/src/core/loading.rs
FN:437,_RNvMNtNtCs26lDL6qRPME_9fastskill4core7loadingNtB2_29ProgressiveLoadingServiceImpl11clear_cache
FN:397,_RNvMNtNtCs26lDL6qRPME_9fastskill4core7loadingNtB2_29ProgressiveLoadingServiceImpl15get_cache_stats
FN:221,_RNvMNtNtCs26lDL6qRPME_9fastskill4core7loadingNtB2_29ProgressiveLoadingServiceImpl19load_skill_metadata
FN:269,_RNvMNtNtCs26lDL6qRPME_9fastskill4core7loadingNtB2_29ProgressiveLoadingServiceImpl20parse_skill_metadata
FN:381,_RNvMNtNtCs26lDL6qRPME_9fastskill4core7loadingNtB2_29ProgressiveLoadingServiceImpl23cleanup_expired_content
FN:362,_RNvMNtNtCs26lDL6qRPME_9fastskill4core7loadingNtB2_29ProgressiveLoadingServiceImpl24cleanup_expired_metadata
FN:318,_RNvMNtNtCs26lDL6qRPME_9fastskill4core7loadingNtB2_29ProgressiveLoadingServiceImpl27load_skill_content_internal
FN:204,_RNvMNtNtCs26lDL6qRPME_9fastskill4core7loadingNtB2_29ProgressiveLoadingServiceImpl3new
FN:666,_RNvMs1_NtNtCs26lDL6qRPME_9fastskill4core7loadingNtB5_14LoadingService3new
FN:643,_RNvMs_NtNtCs26lDL6qRPME_9fastskill4core7loadingNtB4_29ProgressiveLoadingServiceImpl15get_asset_paths
FN:591,_RNvMs_NtNtCs26lDL6qRPME_9fastskill4core7loadingNtB4_29ProgressiveLoadingServiceImpl20determine_load_level
FN:617,_RNvMs_NtNtCs26lDL6qRPME_9fastskill4core7loadingNtB4_29ProgressiveLoadingServiceImpl20load_reference_files
FN:660,_RNvXs0_NtNtCs26lDL6qRPME_9fastskill4core7loadingNtB5_14LoadingServiceNtNtCsiJueO4bndGx_4core7default7Default7default
FN:577,_RNvXsn_NtNtCs26lDL6qRPME_9fastskill4core7loadingNtB5_29ProgressiveLoadingServiceImplNtB5_25ProgressiveLoadingService11clear_cache
FN:455,_RNvXsn_NtNtCs26lDL6qRPME_9fastskill4core7loadingNtB5_29ProgressiveLoadingServiceImplNtB5_25ProgressiveLoadingService13load_metadata
FN:583,_RNvXsn_NtNtCs26lDL6qRPME_9fastskill4core7loadingNtB5_29ProgressiveLoadingServiceImplNtB5_25ProgressiveLoadingService15get_cache_stats
FN:476,_RNvXsn_NtNtCs26lDL6qRPME_9fastskill4core7loadingNtB5_29ProgressiveLoadingServiceImplNtB5_25ProgressiveLoadingService18load_skill_content
FN:523,_RNvXsn_NtNtCs26lDL6qRPME_9fastskill4core7loadingNtB5_29ProgressiveLoadingServiceImplNtB5_25ProgressiveLoadingService22load_reference_content
FN:546,_RNvXsn_NtNtCs26lDL6qRPME_9fastskill4core7loadingNtB5_29ProgressiveLoadingServiceImplNtB5_25ProgressiveLoadingService23preload_relevant_skills
FN:556,_RNvXsn_NtNtCs26lDL6qRPME_9fastskill4core7loadingNtB5_29ProgressiveLoadingServiceImplNtB5_25ProgressiveLoadingService25optimize_loading_strategy
FN:714,_RNvXso_NtNtCs26lDL6qRPME_9fastskill4core7loadingNtB5_14LoadingServiceNtB5_25ProgressiveLoadingService11clear_cache
FN:678,_RNvXso_NtNtCs26lDL6qRPME_9fastskill4core7loadingNtB5_14LoadingServiceNtB5_25ProgressiveLoadingService13load_metadata
FN:719,_RNvXso_NtNtCs26lDL6qRPME_9fastskill4core7loadingNtB5_14LoadingServiceNtB5_25ProgressiveLoadingService15get_cache_stats
FN:686,_RNvXso_NtNtCs26lDL6qRPME_9fastskill4core7loadingNtB5_14LoadingServiceNtB5_25ProgressiveLoadingService18load_skill_content
FN:694,_RNvXso_NtNtCs26lDL6qRPME_9fastskill4core7loadingNtB5_14LoadingServiceNtB5_25ProgressiveLoadingService22load_reference_content
FN:703,_RNvXso_NtNtCs26lDL6qRPME_9fastskill4core7loadingNtB5_14LoadingServiceNtB5_25ProgressiveLoadingService23preload_relevant_skills
FN:710,_RNvXso_NtNtCs26lDL6qRPME_9fastskill4core7loadingNtB5_14LoadingServiceNtB5_25ProgressiveLoadingService25optimize_loading_strategy
FN:383,_RNCNCNvMNtNtCs26lDL6qRPME_9fastskill4core7loadingNtB6_29ProgressiveLoadingServiceImpl23cleanup_expired_content00Ba_
FN:387,_RNCNCNvMNtNtCs26lDL6qRPME_9fastskill4core7loadingNtB6_29ProgressiveLoadingServiceImpl23cleanup_expired_content0s_0Ba_
FN:367,_RNCNCNvMNtNtCs26lDL6qRPME_9fastskill4core7loadingNtB6_29ProgressiveLoadingServiceImpl24cleanup_expired_metadata00Ba_
FN:371,_RNCNCNvMNtNtCs26lDL6qRPME_9fastskill4core7loadingNtB6_29ProgressiveLoadingServiceImpl24cleanup_expired_metadata0s_0Ba_
FN:539,_RNCNCNvXsn_NtNtCs26lDL6qRPME_9fastskill4core7loadingNtB9_29ProgressiveLoadingServiceImplNtB9_25ProgressiveLoadingService22load_reference_content00Bd_
FN:437,_RNCNvMNtNtCs26lDL6qRPME_9fastskill4core7loadingNtB4_29ProgressiveLoadingServiceImpl11clear_cache0B8_
FN:397,_RNCNvMNtNtCs26lDL6qRPME_9fastskill4core7loadingNtB4_29ProgressiveLoadingServiceImpl15get_cache_stats0B8_
FN:221,_RNCNvMNtNtCs26lDL6qRPME_9fastskill4core7loadingNtB4_29ProgressiveLoadingServiceImpl19load_skill_metadata0B8_
FN:381,_RNCNvMNtNtCs26lDL6qRPME_9fastskill4core7loadingNtB4_29ProgressiveLoadingServiceImpl23cleanup_expired_content0B8_
FN:365,_RNCNvMNtNtCs26lDL6qRPME_9fastskill4core7loadingNtB4_29ProgressiveLoadingServiceImpl24cleanup_expired_metadata0B8_
FN:318,_RNCNvMNtNtCs26lDL6qRPME_9fastskill4core7loadingNtB4_29ProgressiveLoadingServiceImpl27load_skill_content_internal0B8_
FN:620,_RNCNvMs_NtNtCs26lDL6qRPME_9fastskill4core7loadingNtB6_29ProgressiveLoadingServiceImpl20load_reference_files0Ba_
FN:383,_RNCNCNvMNtNtCsjhmHPBDWNUU_9fastskill4core7loadingNtB6_29ProgressiveLoadingServiceImpl23cleanup_expired_content00Ba_
FN:387,_RNCNCNvMNtNtCsjhmHPBDWNUU_9fastskill4core7loadingNtB6_29ProgressiveLoadingServiceImpl23cleanup_expired_content0s_0Ba_
FN:367,_RNCNCNvMNtNtCsjhmHPBDWNUU_9fastskill4core7loadingNtB6_29ProgressiveLoadingServiceImpl24cleanup_expired_metadata00Ba_
FN:371,_RNCNCNvMNtNtCsjhmHPBDWNUU_9fastskill4core7loadingNtB6_29ProgressiveLoadingServiceImpl24cleanup_expired_metadata0s_0Ba_
FN:539,_RNCNCNvXsn_NtNtCsjhmHPBDWNUU_9fastskill4core7loadingNtB9_29ProgressiveLoadingServiceImplNtB9_25ProgressiveLoadingService22load_reference_content00Bd_
FN:437,_RNCNvMNtNtCsjhmHPBDWNUU_9fastskill4core7loadingNtB4_29ProgressiveLoadingServiceImpl11clear_cache0B8_
FN:397,_RNCNvMNtNtCsjhmHPBDWNUU_9fastskill4core7loadingNtB4_29ProgressiveLoadingServiceImpl15get_cache_stats0B8_
FN:221,_RNCNvMNtNtCsjhmHPBDWNUU_9fastskill4core7loadingNtB4_29ProgressiveLoadingServiceImpl19load_skill_metadata0B8_
FN:381,_RNCNvMNtNtCsjhmHPBDWNUU_9fastskill4core7loadingNtB4_29ProgressiveLoadingServiceImpl23cleanup_expired_content0B8_
FN:365,_RNCNvMNtNtCsjhmHPBDWNUU_9fastskill4core7loadingNtB4_29ProgressiveLoadingServiceImpl24cleanup_expired_metadata0B8_
FN:318,_RNCNvMNtNtCsjhmHPBDWNUU_9fastskill4core7loadingNtB4_29ProgressiveLoadingServiceImpl27load_skill_content_internal0B8_
FN:620,_RNCNvMs_NtNtCsjhmHPBDWNUU_9fastskill4core7loadingNtB6_29ProgressiveLoadingServiceImpl20load_reference_files0Ba_
FN:437,_RNvMNtNtCsjhmHPBDWNUU_9fastskill4core7loadingNtB2_29ProgressiveLoadingServiceImpl11clear_cache
FN:397,_RNvMNtNtCsjhmHPBDWNUU_9fastskill4core7loadingNtB2_29ProgressiveLoadingServiceImpl15get_cache_stats
FN:221,_RNvMNtNtCsjhmHPBDWNUU_9fastskill4core7loadingNtB2_29ProgressiveLoadingServiceImpl19load_skill_metadata
FN:269,_RNvMNtNtCsjhmHPBDWNUU_9fastskill4core7loadingNtB2_29ProgressiveLoadingServiceImpl20parse_skill_metadata
FN:381,_RNvMNtNtCsjhmHPBDWNUU_9fastskill4core7loadingNtB2_29ProgressiveLoadingServiceImpl23cleanup_expired_content
FN:362,_RNvMNtNtCsjhmHPBDWNUU_9fastskill4core7loadingNtB2_29ProgressiveLoadingServiceImpl24cleanup_expired_metadata
FN:318,_RNvMNtNtCsjhmHPBDWNUU_9fastskill4core7loadingNtB2_29ProgressiveLoadingServiceImpl27load_skill_content_internal
FN:204,_RNvMNtNtCsjhmHPBDWNUU_9fastskill4core7loadingNtB2_29ProgressiveLoadingServiceImpl3new
FN:666,_RNvMs1_NtNtCsjhmHPBDWNUU_9fastskill4core7loadingNtB5_14LoadingService3new
FN:643,_RNvMs_NtNtCsjhmHPBDWNUU_9fastskill4core7loadingNtB4_29ProgressiveLoadingServiceImpl15get_asset_paths
FN:591,_RNvMs_NtNtCsjhmHPBDWNUU_9fastskill4core7loadingNtB4_29ProgressiveLoadingServiceImpl20determine_load_level
FN:617,_RNvMs_NtNtCsjhmHPBDWNUU_9fastskill4core7loadingNtB4_29ProgressiveLoadingServiceImpl20load_reference_files
FN:660,_RNvXs0_NtNtCsjhmHPBDWNUU_9fastskill4core7loadingNtB5_14LoadingServiceNtNtCsiJueO4bndGx_4core7default7Default7default
FN:577,_RNvXsn_NtNtCsjhmHPBDWNUU_9fastskill4core7loadingNtB5_29ProgressiveLoadingServiceImplNtB5_25ProgressiveLoadingService11clear_cache
FN:455,_RNvXsn_NtNtCsjhmHPBDWNUU_9fastskill4core7loadingNtB5_29ProgressiveLoadingServiceImplNtB5_25ProgressiveLoadingService13load_metadata
FN:583,_RNvXsn_NtNtCsjhmHPBDWNUU_9fastskill4core7loadingNtB5_29ProgressiveLoadingServiceImplNtB5_25ProgressiveLoadingService15get_cache_stats
FN:476,_RNvXsn_NtNtCsjhmHPBDWNUU_9fastskill4core7loadingNtB5_29ProgressiveLoadingServiceImplNtB5_25ProgressiveLoadingService18load_skill_content
FN:523,_RNvXsn_NtNtCsjhmHPBDWNUU_9fastskill4core7loadingNtB5_29ProgressiveLoadingServiceImplNtB5_25ProgressiveLoadingService22load_reference_content
FN:546,_RNvXsn_NtNtCsjhmHPBDWNUU_9fastskill4core7loadingNtB5_29ProgressiveLoadingServiceImplNtB5_25ProgressiveLoadingService23preload_relevant_skills
FN:556,_RNvXsn_NtNtCsjhmHPBDWNUU_9fastskill4core7loadingNtB5_29ProgressiveLoadingServiceImplNtB5_25ProgressiveLoadingService25optimize_loading_strategy
FN:714,_RNvXso_NtNtCsjhmHPBDWNUU_9fastskill4core7loadingNtB5_14LoadingServiceNtB5_25ProgressiveLoadingService11clear_cache
FN:678,_RNvXso_NtNtCsjhmHPBDWNUU_9fastskill4core7loadingNtB5_14LoadingServiceNtB5_25ProgressiveLoadingService13load_metadata
FN:719,_RNvXso_NtNtCsjhmHPBDWNUU_9fastskill4core7loadingNtB5_14LoadingServiceNtB5_25ProgressiveLoadingService15get_cache_stats
FN:686,_RNvXso_NtNtCsjhmHPBDWNUU_9fastskill4core7loadingNtB5_14LoadingServiceNtB5_25ProgressiveLoadingService18load_skill_content
FN:694,_RNvXso_NtNtCsjhmHPBDWNUU_9fastskill4core7loadingNtB5_14LoadingServiceNtB5_25ProgressiveLoadingService22load_reference_content
FN:703,_RNvXso_NtNtCsjhmHPBDWNUU_9fastskill4core7loadingNtB5_14LoadingServiceNtB5_25ProgressiveLoadingService23preload_relevant_skills
FN:710,_RNvXso_NtNtCsjhmHPBDWNUU_9fastskill4core7loadingNtB5_14LoadingServiceNtB5_25ProgressiveLoadingService25optimize_loading_strategy
FNDA:0,_RNvMNtNtCs26lDL6qRPME_9fastskill4core7loadingNtB2_29ProgressiveLoadingServiceImpl11clear_cache
FNDA:0,_RNvMNtNtCs26lDL6qRPME_9fastskill4core7loadingNtB2_29ProgressiveLoadingServiceImpl15get_cache_stats
FNDA:0,_RNvMNtNtCs26lDL6qRPME_9fastskill4core7loadingNtB2_29ProgressiveLoadingServiceImpl19load_skill_metadata
FNDA:0,_RNvMNtNtCs26lDL6qRPME_9fastskill4core7loadingNtB2_29ProgressiveLoadingServiceImpl20parse_skill_metadata
FNDA:0,_RNvMNtNtCs26lDL6qRPME_9fastskill4core7loadingNtB2_29ProgressiveLoadingServiceImpl23cleanup_expired_content
FNDA:0,_RNvMNtNtCs26lDL6qRPME_9fastskill4core7loadingNtB2_29ProgressiveLoadingServiceImpl24cleanup_expired_metadata
FNDA:0,_RNvMNtNtCs26lDL6qRPME_9fastskill4core7loadingNtB2_29ProgressiveLoadingServiceImpl27load_skill_content_internal
FNDA:0,_RNvMNtNtCs26lDL6qRPME_9fastskill4core7loadingNtB2_29ProgressiveLoadingServiceImpl3new
FNDA:0,_RNvMs1_NtNtCs26lDL6qRPME_9fastskill4core7loadingNtB5_14LoadingService3new
FNDA:0,_RNvMs_NtNtCs26lDL6qRPME_9fastskill4core7loadingNtB4_29ProgressiveLoadingServiceImpl15get_asset_paths
FNDA:0,_RNvMs_NtNtCs26lDL6qRPME_9fastskill4core7loadingNtB4_29ProgressiveLoadingServiceImpl20determine_load_level
FNDA:0,_RNvMs_NtNtCs26lDL6qRPME_9fastskill4core7loadingNtB4_29ProgressiveLoadingServiceImpl20load_reference_files
FNDA:0,_RNvXs0_NtNtCs26lDL6qRPME_9fastskill4core7loadingNtB5_14LoadingServiceNtNtCsiJueO4bndGx_4core7default7Default7default
FNDA:0,_RNvXsn_NtNtCs26lDL6qRPME_9fastskill4core7loadingNtB5_29ProgressiveLoadingServiceImplNtB5_25ProgressiveLoadingService11clear_cache
FNDA:0,_RNvXsn_NtNtCs26lDL6qRPME_9fastskill4core7loadingNtB5_29ProgressiveLoadingServiceImplNtB5_25ProgressiveLoadingService13load_metadata
FNDA:0,_RNvXsn_NtNtCs26lDL6qRPME_9fastskill4core7loadingNtB5_29ProgressiveLoadingServiceImplNtB5_25ProgressiveLoadingService15get_cache_stats
FNDA:0,_RNvXsn_NtNtCs26lDL6qRPME_9fastskill4core7loadingNtB5_29ProgressiveLoadingServiceImplNtB5_25ProgressiveLoadingService18load_skill_content
FNDA:0,_RNvXsn_NtNtCs26lDL6qRPME_9fastskill4core7loadingNtB5_29ProgressiveLoadingServiceImplNtB5_25ProgressiveLoadingService22load_reference_content
FNDA:0,_RNvXsn_NtNtCs26lDL6qRPME_9fastskill4core7loadingNtB5_29ProgressiveLoadingServiceImplNtB5_25ProgressiveLoadingService23preload_relevant_skills
FNDA:0,_RNvXsn_NtNtCs26lDL6qRPME_9fastskill4core7loadingNtB5_29ProgressiveLoadingServiceImplNtB5_25ProgressiveLoadingService25optimize_loading_strategy
FNDA:0,_RNvXso_NtNtCs26lDL6qRPME_9fastskill4core7loadingNtB5_14LoadingServiceNtB5_25ProgressiveLoadingService11clear_cache
FNDA:0,_RNvXso_NtNtCs26lDL6qRPME_9fastskill4core7loadingNtB5_14LoadingServiceNtB5_25ProgressiveLoadingService13load_metadata
FNDA:0,_RNvXso_NtNtCs26lDL6qRPME_9fastskill4core7loadingNtB5_14LoadingServiceNtB5_25ProgressiveLoadingService15get_cache_stats
FNDA:0,_RNvXso_NtNtCs26lDL6qRPME_9fastskill4core7loadingNtB5_14LoadingServiceNtB5_25ProgressiveLoadingService18load_skill_content
FNDA:0,_RNvXso_NtNtCs26lDL6qRPME_9fastskill4core7loadingNtB5_14LoadingServiceNtB5_25ProgressiveLoadingService22load_reference_content
FNDA:0,_RNvXso_NtNtCs26lDL6qRPME_9fastskill4core7loadingNtB5_14LoadingServiceNtB5_25ProgressiveLoadingService23preload_relevant_skills
FNDA:0,_RNvXso_NtNtCs26lDL6qRPME_9fastskill4core7loadingNtB5_14LoadingServiceNtB5_25ProgressiveLoadingService25optimize_loading_strategy
FNDA:0,_RNCNCNvMNtNtCs26lDL6qRPME_9fastskill4core7loadingNtB6_29ProgressiveLoadingServiceImpl23cleanup_expired_content00Ba_
FNDA:0,_RNCNCNvMNtNtCs26lDL6qRPME_9fastskill4core7loadingNtB6_29ProgressiveLoadingServiceImpl23cleanup_expired_content0s_0Ba_
FNDA:0,_RNCNCNvMNtNtCs26lDL6qRPME_9fastskill4core7loadingNtB6_29ProgressiveLoadingServiceImpl24cleanup_expired_metadata00Ba_
FNDA:0,_RNCNCNvMNtNtCs26lDL6qRPME_9fastskill4core7loadingNtB6_29ProgressiveLoadingServiceImpl24cleanup_expired_metadata0s_0Ba_
FNDA:0,_RNCNCNvXsn_NtNtCs26lDL6qRPME_9fastskill4core7loadingNtB9_29ProgressiveLoadingServiceImplNtB9_25ProgressiveLoadingService22load_reference_content00Bd_
FNDA:0,_RNCNvMNtNtCs26lDL6qRPME_9fastskill4core7loadingNtB4_29ProgressiveLoadingServiceImpl11clear_cache0B8_
FNDA:0,_RNCNvMNtNtCs26lDL6qRPME_9fastskill4core7loadingNtB4_29ProgressiveLoadingServiceImpl15get_cache_stats0B8_
FNDA:0,_RNCNvMNtNtCs26lDL6qRPME_9fastskill4core7loadingNtB4_29ProgressiveLoadingServiceImpl19load_skill_metadata0B8_
FNDA:0,_RNCNvMNtNtCs26lDL6qRPME_9fastskill4core7loadingNtB4_29ProgressiveLoadingServiceImpl23cleanup_expired_content0B8_
FNDA:0,_RNCNvMNtNtCs26lDL6qRPME_9fastskill4core7loadingNtB4_29ProgressiveLoadingServiceImpl24cleanup_expired_metadata0B8_
FNDA:0,_RNCNvMNtNtCs26lDL6qRPME_9fastskill4core7loadingNtB4_29ProgressiveLoadingServiceImpl27load_skill_content_internal0B8_
FNDA:0,_RNCNvMs_NtNtCs26lDL6qRPME_9fastskill4core7loadingNtB6_29ProgressiveLoadingServiceImpl20load_reference_files0Ba_
FNDA:0,_RNCNCNvMNtNtCsjhmHPBDWNUU_9fastskill4core7loadingNtB6_29ProgressiveLoadingServiceImpl23cleanup_expired_content00Ba_
FNDA:0,_RNCNCNvMNtNtCsjhmHPBDWNUU_9fastskill4core7loadingNtB6_29ProgressiveLoadingServiceImpl23cleanup_expired_content0s_0Ba_
FNDA:0,_RNCNCNvMNtNtCsjhmHPBDWNUU_9fastskill4core7loadingNtB6_29ProgressiveLoadingServiceImpl24cleanup_expired_metadata00Ba_
FNDA:0,_RNCNCNvMNtNtCsjhmHPBDWNUU_9fastskill4core7loadingNtB6_29ProgressiveLoadingServiceImpl24cleanup_expired_metadata0s_0Ba_
FNDA:0,_RNCNCNvXsn_NtNtCsjhmHPBDWNUU_9fastskill4core7loadingNtB9_29ProgressiveLoadingServiceImplNtB9_25ProgressiveLoadingService22load_reference_content00Bd_
FNDA:0,_RNCNvMNtNtCsjhmHPBDWNUU_9fastskill4core7loadingNtB4_29ProgressiveLoadingServiceImpl11clear_cache0B8_
FNDA:0,_RNCNvMNtNtCsjhmHPBDWNUU_9fastskill4core7loadingNtB4_29ProgressiveLoadingServiceImpl15get_cache_stats0B8_
FNDA:0,_RNCNvMNtNtCsjhmHPBDWNUU_9fastskill4core7loadingNtB4_29ProgressiveLoadingServiceImpl19load_skill_metadata0B8_
FNDA:0,_RNCNvMNtNtCsjhmHPBDWNUU_9fastskill4core7loadingNtB4_29ProgressiveLoadingServiceImpl23cleanup_expired_content0B8_
FNDA:0,_RNCNvMNtNtCsjhmHPBDWNUU_9fastskill4core7loadingNtB4_29ProgressiveLoadingServiceImpl24cleanup_expired_metadata0B8_
FNDA:0,_RNCNvMNtNtCsjhmHPBDWNUU_9fastskill4core7loadingNtB4_29ProgressiveLoadingServiceImpl27load_skill_content_internal0B8_
FNDA:0,_RNCNvMs_NtNtCsjhmHPBDWNUU_9fastskill4core7loadingNtB6_29ProgressiveLoadingServiceImpl20load_reference_files0Ba_
FNDA:0,_RNvMNtNtCsjhmHPBDWNUU_9fastskill4core7loadingNtB2_29ProgressiveLoadingServiceImpl11clear_cache
FNDA:0,_RNvMNtNtCsjhmHPBDWNUU_9fastskill4core7loadingNtB2_29ProgressiveLoadingServiceImpl15get_cache_stats
FNDA:0,_RNvMNtNtCsjhmHPBDWNUU_9fastskill4core7loadingNtB2_29ProgressiveLoadingServiceImpl19load_skill_metadata
FNDA:0,_RNvMNtNtCsjhmHPBDWNUU_9fastskill4core7loadingNtB2_29ProgressiveLoadingServiceImpl20parse_skill_metadata
FNDA:0,_RNvMNtNtCsjhmHPBDWNUU_9fastskill4core7loadingNtB2_29ProgressiveLoadingServiceImpl23cleanup_expired_content
FNDA:0,_RNvMNtNtCsjhmHPBDWNUU_9fastskill4core7loadingNtB2_29ProgressiveLoadingServiceImpl24cleanup_expired_metadata
FNDA:0,_RNvMNtNtCsjhmHPBDWNUU_9fastskill4core7loadingNtB2_29ProgressiveLoadingServiceImpl27load_skill_content_internal
FNDA:0,_RNvMNtNtCsjhmHPBDWNUU_9fastskill4core7loadingNtB2_29ProgressiveLoadingServiceImpl3new
FNDA:0,_RNvMs1_NtNtCsjhmHPBDWNUU_9fastskill4core7loadingNtB5_14LoadingService3new
FNDA:0,_RNvMs_NtNtCsjhmHPBDWNUU_9fastskill4core7loadingNtB4_29ProgressiveLoadingServiceImpl15get_asset_paths
FNDA:0,_RNvMs_NtNtCsjhmHPBDWNUU_9fastskill4core7loadingNtB4_29ProgressiveLoadingServiceImpl20determine_load_level
FNDA:0,_RNvMs_NtNtCsjhmHPBDWNUU_9fastskill4core7loadingNtB4_29ProgressiveLoadingServiceImpl20load_reference_files
FNDA:0,_RNvXs0_NtNtCsjhmHPBDWNUU_9fastskill4core7loadingNtB5_14LoadingServiceNtNtCsiJueO4bndGx_4core7default7Default7default
FNDA:0,_RNvXsn_NtNtCsjhmHPBDWNUU_9fastskill4core7loadingNtB5_29ProgressiveLoadingServiceImplNtB5_25ProgressiveLoadingService11clear_cache
FNDA:0,_RNvXsn_NtNtCsjhmHPBDWNUU_9fastskill4core7loadingNtB5_29ProgressiveLoadingServiceImplNtB5_25ProgressiveLoadingService13load_metadata
FNDA:0,_RNvXsn_NtNtCsjhmHPBDWNUU_9fastskill4core7loadingNtB5_29ProgressiveLoadingServiceImplNtB5_25ProgressiveLoadingService15get_cache_stats
FNDA:0,_RNvXsn_NtNtCsjhmHPBDWNUU_9fastskill4core7loadingNtB5_29ProgressiveLoadingServiceImplNtB5_25ProgressiveLoadingService18load_skill_content
FNDA:0,_RNvXsn_NtNtCsjhmHPBDWNUU_9fastskill4core7loadingNtB5_29ProgressiveLoadingServiceImplNtB5_25ProgressiveLoadingService22load_reference_content
FNDA:0,_RNvXsn_NtNtCsjhmHPBDWNUU_9fastskill4core7loadingNtB5_29ProgressiveLoadingServiceImplNtB5_25ProgressiveLoadingService23preload_relevant_skills
FNDA:0,_RNvXsn_NtNtCsjhmHPBDWNUU_9fastskill4core7loadingNtB5_29ProgressiveLoadingServiceImplNtB5_25ProgressiveLoadingService25optimize_loading_strategy
FNDA:0,_RNvXso_NtNtCsjhmHPBDWNUU_9fastskill4core7loadingNtB5_14LoadingServiceNtB5_25ProgressiveLoadingService11clear_cache
FNDA:0,_RNvXso_NtNtCsjhmHPBDWNUU_9fastskill4core7loadingNtB5_14LoadingServiceNtB5_25ProgressiveLoadingService13load_metadata
FNDA:0,_RNvXso_NtNtCsjhmHPBDWNUU_9fastskill4core7loadingNtB5_14LoadingServiceNtB5_25ProgressiveLoadingService15get_cache_stats
FNDA:0,_RNvXso_NtNtCsjhmHPBDWNUU_9fastskill4core7loadingNtB5_14LoadingServiceNtB5_25ProgressiveLoadingService18load_skill_content
FNDA:0,_RNvXso_NtNtCsjhmHPBDWNUU_9fastskill4core7loadingNtB5_14LoadingServiceNtB5_25ProgressiveLoadingService22load_reference_content
FNDA:0,_RNvXso_NtNtCsjhmHPBDWNUU_9fastskill4core7loadingNtB5_14LoadingServiceNtB5_25ProgressiveLoadingService23preload_relevant_skills
FNDA:0,_RNvXso_NtNtCsjhmHPBDWNUU_9fastskill4core7loadingNtB5_14LoadingServiceNtB5_25ProgressiveLoadingService25optimize_loading_strategy
FNF:39
FNH:0
DA:204,0
DA:205,0
DA:206,0
DA:207,0
DA:208,0
DA:209,0
DA:210,0
DA:211,0
DA:212,0
DA:213,0
DA:214,0
DA:215,0
DA:216,0
DA:217,0
DA:218,0
DA:221,0
DA:224,0
DA:225,0
DA:226,0
DA:227,0
DA:228,0
DA:229,0
DA:230,0
DA:231,0
DA:235,0
DA:236,0
DA:239,0
DA:241,0
DA:242,0
DA:243,0
DA:244,0
DA:245,0
DA:246,0
DA:248,0
DA:251,0
DA:255,0
DA:258,0
DA:259,0
DA:260,0
DA:262,0
DA:265,0
DA:266,0
DA:269,0
DA:270,0
DA:271,0
DA:272,0
DA:273,0
DA:275,0
DA:278,0
DA:279,0
DA:281,0
DA:282,0
DA:283,0
DA:284,0
DA:286,0
DA:287,0
DA:289,0
DA:291,0
DA:292,0
DA:293,0
DA:298,0
DA:299,0
DA:300,0
DA:301,0
DA:302,0
DA:303,0
DA:306,0
DA:307,0
DA:308,0
DA:309,0
DA:310,0
DA:312,0
DA:313,0
DA:315,0
DA:318,0
DA:321,0
DA:322,0
DA:323,0
DA:324,0
DA:325,0
DA:326,0
DA:327,0
DA:328,0
DA:332,0
DA:333,0
DA:335,0
DA:337,0
DA:338,0
DA:339,0
DA:340,0
DA:341,0
DA:342,0
DA:344,0
DA:348,0
DA:351,0
DA:352,0
DA:353,0
DA:355,0
DA:358,0
DA:359,0
DA:362,0
DA:363,0
DA:364,0
DA:365,0
DA:366,0
DA:367,0
DA:370,0
DA:371,0
DA:372,0
DA:374,0
DA:375,0
DA:376,0
DA:377,0
DA:378,0
DA:381,0
DA:382,0
DA:383,0
DA:386,0
DA:387,0
DA:388,0
DA:390,0
DA:391,0
DA:392,0
DA:393,0
DA:394,0
DA:397,0
DA:398,0
DA:399,0
DA:401,0
DA:402,0
DA:403,0
DA:404,0
DA:406,0
DA:407,0
DA:409,0
DA:410,0
DA:412,0
DA:415,0
DA:416,0
DA:418,0
DA:422,0
DA:423,0
DA:425,0
DA:426,0
DA:427,0
DA:428,0
DA:429,0
DA:430,0
DA:431,0
DA:432,0
DA:433,0
DA:434,0
DA:437,0
DA:438,0
DA:439,0
DA:442,0
DA:443,0
DA:444,0
DA:445,0
DA:446,0
DA:455,0
DA:469,0
DA:476,0
DA:516,0
DA:523,0
DA:539,0
DA:540,0
DA:546,0
DA:550,0
DA:556,0
DA:574,0
DA:577,0
DA:580,0
DA:583,0
DA:585,0
DA:591,0
DA:592,0
DA:593,0
DA:594,0
DA:595,0
DA:596,0
DA:597,0
DA:598,0
DA:599,0
DA:600,0
DA:603,0
DA:604,0
DA:606,0
DA:609,0
DA:612,0
DA:614,0
DA:617,0
DA:618,0
DA:619,0
DA:620,0
DA:621,0
DA:623,0
DA:624,0
DA:625,0
DA:627,0
DA:628,0
DA:630,0
DA:631,0
DA:632,0
DA:633,0
DA:635,0
DA:636,0
DA:639,0
DA:640,0
DA:643,0
DA:644,0
DA:646,0
DA:647,0
DA:648,0
DA:652,0
DA:653,0
DA:660,0
DA:661,0
DA:662,0
DA:666,0
DA:667,0
DA:668,0
DA:669,0
DA:670,0
DA:678,0
DA:680,0
DA:686,0
DA:688,0
DA:694,0
DA:698,0
DA:703,0
DA:705,0
DA:710,0
DA:712,0
DA:714,0
DA:717,0
DA:719,0
DA:721,0
BRF:0
BRH:0
LF:249
LH:0
end_of_record
SF:/home/sysuser/ws001/gofastskill/fastskill/src/core/lock.rs
FN:222,_RNvMNtNtCs26lDL6qRPME_9fastskill4core4lockNtB2_10SkillsLock12remove_skill
FN:84,_RNvMNtNtCs26lDL6qRPME_9fastskill4core4lockNtB2_10SkillsLock12save_to_file
FN:163,_RNvMNtNtCs26lDL6qRPME_9fastskill4core4lockNtB2_10SkillsLock12update_skill
FN:70,_RNvMNtNtCs26lDL6qRPME_9fastskill4core4lockNtB2_10SkillsLock14load_from_file
FN:94,_RNvMNtNtCs26lDL6qRPME_9fastskill4core4lockNtB2_10SkillsLock21from_installed_skills
FN:230,_RNvMNtNtCs26lDL6qRPME_9fastskill4core4lockNtB2_10SkillsLock24verify_matches_installed
FN:224,_RNCNvMNtNtCs26lDL6qRPME_9fastskill4core4lockNtB4_10SkillsLock12remove_skill0B8_
FN:86,_RNCNvMNtNtCs26lDL6qRPME_9fastskill4core4lockNtB4_10SkillsLock12save_to_file0B8_
FN:165,_RNCNvMNtNtCs26lDL6qRPME_9fastskill4core4lockNtB4_10SkillsLock12update_skill0B8_
FN:177,_RNCNvMNtNtCs26lDL6qRPME_9fastskill4core4lockNtB4_10SkillsLock12update_skills_0B8_
FN:78,_RNCNvMNtNtCs26lDL6qRPME_9fastskill4core4lockNtB4_10SkillsLock14load_from_file0B8_
FN:108,_RNCNvMNtNtCs26lDL6qRPME_9fastskill4core4lockNtB4_10SkillsLock21from_installed_skills0B8_
FN:238,_RNCNvMNtNtCs26lDL6qRPME_9fastskill4core4lockNtB4_10SkillsLock24verify_matches_installed0B8_
FN:274,_RNCNvMNtNtCs26lDL6qRPME_9fastskill4core4lockNtB4_10SkillsLock24verify_matches_installeds_0B8_
FN:165,_RNCNvMNtNtCsjhmHPBDWNUU_9fastskill4core4lockNtB4_10SkillsLock12update_skill0B8_
FN:177,_RNCNvMNtNtCsjhmHPBDWNUU_9fastskill4core4lockNtB4_10SkillsLock12update_skills_0B8_
FN:238,_RNCNvMNtNtCsjhmHPBDWNUU_9fastskill4core4lockNtB4_10SkillsLock24verify_matches_installed0B8_
FN:274,_RNCNvMNtNtCsjhmHPBDWNUU_9fastskill4core4lockNtB4_10SkillsLock24verify_matches_installeds_0B8_
FN:163,_RNvMNtNtCsjhmHPBDWNUU_9fastskill4core4lockNtB2_10SkillsLock12update_skill
FN:230,_RNvMNtNtCsjhmHPBDWNUU_9fastskill4core4lockNtB2_10SkillsLock24verify_matches_installed
FN:302,_RNvNtNtNtCsjhmHPBDWNUU_9fastskill4core4lock5testss_21test_lock_from_skills
FN:222,_RNvMNtNtCsjhmHPBDWNUU_9fastskill4core4lockNtB2_10SkillsLock12remove_skill
FN:84,_RNvMNtNtCsjhmHPBDWNUU_9fastskill4core4lockNtB2_10SkillsLock12save_to_file
FN:70,_RNvMNtNtCsjhmHPBDWNUU_9fastskill4core4lockNtB2_10SkillsLock14load_from_file
FN:94,_RNvMNtNtCsjhmHPBDWNUU_9fastskill4core4lockNtB2_10SkillsLock21from_installed_skills
FN:224,_RNCNvMNtNtCsjhmHPBDWNUU_9fastskill4core4lockNtB4_10SkillsLock12remove_skill0B8_
FN:86,_RNCNvMNtNtCsjhmHPBDWNUU_9fastskill4core4lockNtB4_10SkillsLock12save_to_file0B8_
FN:78,_RNCNvMNtNtCsjhmHPBDWNUU_9fastskill4core4lockNtB4_10SkillsLock14load_from_file0B8_
FN:108,_RNCNvMNtNtCsjhmHPBDWNUU_9fastskill4core4lockNtB4_10SkillsLock21from_installed_skills0B8_
FNDA:0,_RNvMNtNtCs26lDL6qRPME_9fastskill4core4lockNtB2_10SkillsLock12remove_skill
FNDA:0,_RNvMNtNtCs26lDL6qRPME_9fastskill4core4lockNtB2_10SkillsLock12save_to_file
FNDA:0,_RNvMNtNtCs26lDL6qRPME_9fastskill4core4lockNtB2_10SkillsLock12update_skill
FNDA:0,_RNvMNtNtCs26lDL6qRPME_9fastskill4core4lockNtB2_10SkillsLock14load_from_file
FNDA:0,_RNvMNtNtCs26lDL6qRPME_9fastskill4core4lockNtB2_10SkillsLock21from_installed_skills
FNDA:0,_RNvMNtNtCs26lDL6qRPME_9fastskill4core4lockNtB2_10SkillsLock24verify_matches_installed
FNDA:0,_RNCNvMNtNtCs26lDL6qRPME_9fastskill4core4lockNtB4_10SkillsLock12remove_skill0B8_
FNDA:0,_RNCNvMNtNtCs26lDL6qRPME_9fastskill4core4lockNtB4_10SkillsLock12save_to_file0B8_
FNDA:0,_RNCNvMNtNtCs26lDL6qRPME_9fastskill4core4lockNtB4_10SkillsLock12update_skill0B8_
FNDA:0,_RNCNvMNtNtCs26lDL6qRPME_9fastskill4core4lockNtB4_10SkillsLock12update_skills_0B8_
FNDA:0,_RNCNvMNtNtCs26lDL6qRPME_9fastskill4core4lockNtB4_10SkillsLock14load_from_file0B8_
FNDA:0,_RNCNvMNtNtCs26lDL6qRPME_9fastskill4core4lockNtB4_10SkillsLock21from_installed_skills0B8_
FNDA:0,_RNCNvMNtNtCs26lDL6qRPME_9fastskill4core4lockNtB4_10SkillsLock24verify_matches_installed0B8_
FNDA:0,_RNCNvMNtNtCs26lDL6qRPME_9fastskill4core4lockNtB4_10SkillsLock24verify_matches_installeds_0B8_
FNDA:0,_RNCNvMNtNtCsjhmHPBDWNUU_9fastskill4core4lockNtB4_10SkillsLock12update_skill0B8_
FNDA:0,_RNCNvMNtNtCsjhmHPBDWNUU_9fastskill4core4lockNtB4_10SkillsLock12update_skills_0B8_
FNDA:0,_RNCNvMNtNtCsjhmHPBDWNUU_9fastskill4core4lockNtB4_10SkillsLock24verify_matches_installed0B8_
FNDA:0,_RNCNvMNtNtCsjhmHPBDWNUU_9fastskill4core4lockNtB4_10SkillsLock24verify_matches_installeds_0B8_
FNDA:0,_RNvMNtNtCsjhmHPBDWNUU_9fastskill4core4lockNtB2_10SkillsLock12update_skill
FNDA:0,_RNvMNtNtCsjhmHPBDWNUU_9fastskill4core4lockNtB2_10SkillsLock24verify_matches_installed
FNDA:1,_RNvNtNtNtCsjhmHPBDWNUU_9fastskill4core4lock5testss_21test_lock_from_skills
FNDA:0,_RNvMNtNtCsjhmHPBDWNUU_9fastskill4core4lockNtB2_10SkillsLock12remove_skill
FNDA:0,_RNvMNtNtCsjhmHPBDWNUU_9fastskill4core4lockNtB2_10SkillsLock12save_to_file
FNDA:0,_RNvMNtNtCsjhmHPBDWNUU_9fastskill4core4lockNtB2_10SkillsLock14load_from_file
FNDA:1,_RNvMNtNtCsjhmHPBDWNUU_9fastskill4core4lockNtB2_10SkillsLock21from_installed_skills
FNDA:0,_RNCNvMNtNtCsjhmHPBDWNUU_9fastskill4core4lockNtB4_10SkillsLock12remove_skill0B8_
FNDA:0,_RNCNvMNtNtCsjhmHPBDWNUU_9fastskill4core4lockNtB4_10SkillsLock12save_to_file0B8_
FNDA:0,_RNCNvMNtNtCsjhmHPBDWNUU_9fastskill4core4lockNtB4_10SkillsLock14load_from_file0B8_
FNDA:0,_RNCNvMNtNtCsjhmHPBDWNUU_9fastskill4core4lockNtB4_10SkillsLock21from_installed_skills0B8_
FNF:15
FNH:2
DA:70,0
DA:71,0
DA:72,0
DA:73,0
DA:75,0
DA:77,0
DA:78,0
DA:80,0
DA:81,0
DA:84,0
DA:85,0
DA:86,0
DA:88,0
DA:90,0
DA:91,0
DA:94,1
DA:95,1
DA:97,1
DA:99,1
DA:100,1
DA:101,1
DA:102,1
DA:103,1
DA:104,1
DA:105,1
DA:106,1
DA:108,0
DA:109,0
DA:110,0
DA:111,0
DA:113,0
DA:114,0
DA:115,0
DA:116,0
DA:117,0
DA:118,0
DA:119,0
DA:120,0
DA:121,0
DA:125,0
DA:126,0
DA:127,0
DA:128,0
DA:129,0
DA:130,0
DA:133,1
DA:134,1
DA:135,1
DA:136,1
DA:137,1
DA:138,1
DA:139,1
DA:140,1
DA:141,1
DA:142,1
DA:143,1
DA:144,1
DA:145,1
DA:146,1
DA:147,1
DA:149,1
DA:152,1
DA:153,1
DA:154,1
DA:155,1
DA:156,1
DA:157,1
DA:158,1
DA:159,1
DA:160,1
DA:163,0
DA:165,0
DA:168,0
DA:169,0
DA:170,0
DA:171,0
DA:172,0
DA:173,0
DA:174,0
DA:175,0
DA:177,0
DA:178,0
DA:179,0
DA:180,0
DA:182,0
DA:183,0
DA:184,0
DA:185,0
DA:186,0
DA:187,0
DA:188,0
DA:189,0
DA:190,0
DA:193,0
DA:194,0
DA:195,0
DA:196,0
DA:197,0
DA:198,0
DA:201,0
DA:202,0
DA:203,0
DA:204,0
DA:205,0
DA:206,0
DA:207,0
DA:208,0
DA:209,0
DA:210,0
DA:211,0
DA:212,0
DA:213,0
DA:214,0
DA:215,0
DA:217,0
DA:218,0
DA:219,0
DA:222,0
DA:223,0
DA:224,0
DA:225,0
DA:226,0
DA:227,0
DA:230,0
DA:231,0
DA:232,0
DA:233,0
DA:234,0
DA:237,0
DA:238,0
DA:240,0
DA:241,0
DA:242,0
DA:243,0
DA:244,0
DA:245,0
DA:246,0
DA:247,0
DA:248,0
DA:251,0
DA:252,0
DA:254,0
DA:255,0
DA:256,0
DA:257,0
DA:258,0
DA:259,0
DA:260,0
DA:261,0
DA:262,0
DA:263,0
DA:264,0
DA:265,0
DA:266,0
DA:267,0
DA:268,0
DA:269,0
DA:273,0
DA:274,0
DA:275,0
DA:276,0
DA:277,0
DA:278,0
DA:279,0
DA:282,0
DA:283,0
DA:302,1
DA:303,1
DA:304,1
DA:305,1
DA:306,1
DA:307,1
DA:308,1
DA:309,1
DA:310,1
DA:311,1
DA:312,1
DA:313,1
DA:314,1
DA:315,1
DA:316,1
DA:317,1
DA:318,1
DA:319,1
DA:320,1
DA:321,1
DA:322,1
DA:323,1
DA:324,1
DA:325,1
DA:326,1
DA:327,1
DA:328,1
DA:330,1
DA:331,1
DA:332,1
DA:333,1
BRF:0
BRH:0
LF:205
LH:67
end_of_record
SF:/home/sysuser/ws001/gofastskill/fastskill/src/core/manifest.rs
FN:109,_RNCNCNvMNtNtCs26lDL6qRPME_9fastskill4core8manifestNtB6_14SkillsManifest21get_skills_for_groups00Ba_
FN:115,_RNCNCNvMNtNtCs26lDL6qRPME_9fastskill4core8manifestNtB6_14SkillsManifest21get_skills_for_groups0s_0Ba_
FN:382,_RNCNCNvMs_NtNtCs26lDL6qRPME_9fastskill4core8manifestNtB8_16SkillProjectToml14load_from_file00Bc_
FN:135,_RNCNvMNtNtCs26lDL6qRPME_9fastskill4core8manifestNtB4_14SkillsManifest12remove_skill0B8_
FN:87,_RNCNvMNtNtCs26lDL6qRPME_9fastskill4core8manifestNtB4_14SkillsManifest12save_to_file0B8_
FN:79,_RNCNvMNtNtCs26lDL6qRPME_9fastskill4core8manifestNtB4_14SkillsManifest14load_from_file0B8_
FN:102,_RNCNvMNtNtCs26lDL6qRPME_9fastskill4core8manifestNtB4_14SkillsManifest21get_skills_for_groups0B8_
FN:406,_RNCNvMs_NtNtCs26lDL6qRPME_9fastskill4core8manifestNtB6_16SkillProjectToml12save_to_file0Ba_
FN:375,_RNCNvMs_NtNtCs26lDL6qRPME_9fastskill4core8manifestNtB6_16SkillProjectToml14load_from_file0Ba_
FN:492,_RNCNvMs_NtNtCs26lDL6qRPME_9fastskill4core8manifestNtB6_16SkillProjectToml16to_skill_entries0Ba_
FN:512,_RNCNvMs_NtNtCs26lDL6qRPME_9fastskill4core8manifestNtB6_16SkillProjectToml16to_skill_entriess0_0Ba_
FN:524,_RNCNvMs_NtNtCs26lDL6qRPME_9fastskill4core8manifestNtB6_16SkillProjectToml16to_skill_entriess1_0Ba_
FN:527,_RNCNvMs_NtNtCs26lDL6qRPME_9fastskill4core8manifestNtB6_16SkillProjectToml16to_skill_entriess2_0Ba_
FN:503,_RNCNvMs_NtNtCs26lDL6qRPME_9fastskill4core8manifestNtB6_16SkillProjectToml16to_skill_entriess_0Ba_
FN:420,_RNCNvMs_NtNtCs26lDL6qRPME_9fastskill4core8manifestNtB6_16SkillProjectToml20validate_for_context0Ba_
FN:426,_RNCNvMs_NtNtCs26lDL6qRPME_9fastskill4core8manifestNtB6_16SkillProjectToml20validate_for_contexts_0Ba_
FN:134,_RNvMNtNtCs26lDL6qRPME_9fastskill4core8manifestNtB2_14SkillsManifest12remove_skill
FN:85,_RNvMNtNtCs26lDL6qRPME_9fastskill4core8manifestNtB2_14SkillsManifest12save_to_file
FN:124,_RNvMNtNtCs26lDL6qRPME_9fastskill4core8manifestNtB2_14SkillsManifest14get_all_skills
FN:71,_RNvMNtNtCs26lDL6qRPME_9fastskill4core8manifestNtB2_14SkillsManifest14load_from_file
FN:95,_RNvMNtNtCs26lDL6qRPME_9fastskill4core8manifestNtB2_14SkillsManifest21get_skills_for_groups
FN:129,_RNvMNtNtCs26lDL6qRPME_9fastskill4core8manifestNtB2_14SkillsManifest9add_skill
FN:404,_RNvMs_NtNtCs26lDL6qRPME_9fastskill4core8manifestNtB4_16SkillProjectToml12save_to_file
FN:368,_RNvMs_NtNtCs26lDL6qRPME_9fastskill4core8manifestNtB4_16SkillProjectToml14load_from_file
FN:465,_RNvMs_NtNtCs26lDL6qRPME_9fastskill4core8manifestNtB4_16SkillProjectToml16to_skill_entries
FN:415,_RNvMs_NtNtCs26lDL6qRPME_9fastskill4core8manifestNtB4_16SkillProjectToml20validate_for_context
FN:135,_RNCNvMNtNtCsjhmHPBDWNUU_9fastskill4core8manifestNtB4_14SkillsManifest12remove_skill0B8_
FN:87,_RNCNvMNtNtCsjhmHPBDWNUU_9fastskill4core8manifestNtB4_14SkillsManifest12save_to_file0B8_
FN:79,_RNCNvMNtNtCsjhmHPBDWNUU_9fastskill4core8manifestNtB4_14SkillsManifest14load_from_file0B8_
FN:492,_RNCNvMs_NtNtCsjhmHPBDWNUU_9fastskill4core8manifestNtB6_16SkillProjectToml16to_skill_entries0Ba_
FN:512,_RNCNvMs_NtNtCsjhmHPBDWNUU_9fastskill4core8manifestNtB6_16SkillProjectToml16to_skill_entriess0_0Ba_
FN:524,_RNCNvMs_NtNtCsjhmHPBDWNUU_9fastskill4core8manifestNtB6_16SkillProjectToml16to_skill_entriess1_0Ba_
FN:527,_RNCNvMs_NtNtCsjhmHPBDWNUU_9fastskill4core8manifestNtB6_16SkillProjectToml16to_skill_entriess2_0Ba_
FN:503,_RNCNvMs_NtNtCsjhmHPBDWNUU_9fastskill4core8manifestNtB6_16SkillProjectToml16to_skill_entriess_0Ba_
FN:420,_RNCNvMs_NtNtCsjhmHPBDWNUU_9fastskill4core8manifestNtB6_16SkillProjectToml20validate_for_context0Ba_
FN:426,_RNCNvMs_NtNtCsjhmHPBDWNUU_9fastskill4core8manifestNtB6_16SkillProjectToml20validate_for_contexts_0Ba_
FN:134,_RNvMNtNtCsjhmHPBDWNUU_9fastskill4core8manifestNtB2_14SkillsManifest12remove_skill
FN:85,_RNvMNtNtCsjhmHPBDWNUU_9fastskill4core8manifestNtB2_14SkillsManifest12save_to_file
FN:71,_RNvMNtNtCsjhmHPBDWNUU_9fastskill4core8manifestNtB2_14SkillsManifest14load_from_file
FN:129,_RNvMNtNtCsjhmHPBDWNUU_9fastskill4core8manifestNtB2_14SkillsManifest9add_skill
FN:465,_RNvMs_NtNtCsjhmHPBDWNUU_9fastskill4core8manifestNtB4_16SkillProjectToml16to_skill_entries
FN:415,_RNvMs_NtNtCsjhmHPBDWNUU_9fastskill4core8manifestNtB4_16SkillProjectToml20validate_for_context
FN:583,_RNvNtNtNtCsjhmHPBDWNUU_9fastskill4core8manifest5testss_21test_manifest_parsing
FN:622,_RNvNtNtNtCsjhmHPBDWNUU_9fastskill4core8manifest5testss_26test_skill_source_variants
FN:109,_RNCNCNvMNtNtCsjhmHPBDWNUU_9fastskill4core8manifestNtB6_14SkillsManifest21get_skills_for_groups00Ba_
FN:115,_RNCNCNvMNtNtCsjhmHPBDWNUU_9fastskill4core8manifestNtB6_14SkillsManifest21get_skills_for_groups0s_0Ba_
FN:382,_RNCNCNvMs_NtNtCsjhmHPBDWNUU_9fastskill4core8manifestNtB8_16SkillProjectToml14load_from_file00Bc_
FN:102,_RNCNvMNtNtCsjhmHPBDWNUU_9fastskill4core8manifestNtB4_14SkillsManifest21get_skills_for_groups0B8_
FN:406,_RNCNvMs_NtNtCsjhmHPBDWNUU_9fastskill4core8manifestNtB6_16SkillProjectToml12save_to_file0Ba_
FN:375,_RNCNvMs_NtNtCsjhmHPBDWNUU_9fastskill4core8manifestNtB6_16SkillProjectToml14load_from_file0Ba_
FN:124,_RNvMNtNtCsjhmHPBDWNUU_9fastskill4core8manifestNtB2_14SkillsManifest14get_all_skills
FN:95,_RNvMNtNtCsjhmHPBDWNUU_9fastskill4core8manifestNtB2_14SkillsManifest21get_skills_for_groups
FN:404,_RNvMs_NtNtCsjhmHPBDWNUU_9fastskill4core8manifestNtB4_16SkillProjectToml12save_to_file
FN:368,_RNvMs_NtNtCsjhmHPBDWNUU_9fastskill4core8manifestNtB4_16SkillProjectToml14load_from_file
FNDA:0,_RNCNCNvMNtNtCs26lDL6qRPME_9fastskill4core8manifestNtB6_14SkillsManifest21get_skills_for_groups00Ba_
FNDA:0,_RNCNCNvMNtNtCs26lDL6qRPME_9fastskill4core8manifestNtB6_14SkillsManifest21get_skills_for_groups0s_0Ba_
FNDA:6,_RNCNCNvMs_NtNtCs26lDL6qRPME_9fastskill4core8manifestNtB8_16SkillProjectToml14load_from_file00Bc_
FNDA:0,_RNCNvMNtNtCs26lDL6qRPME_9fastskill4core8manifestNtB4_14SkillsManifest12remove_skill0B8_
FNDA:0,_RNCNvMNtNtCs26lDL6qRPME_9fastskill4core8manifestNtB4_14SkillsManifest12save_to_file0B8_
FNDA:0,_RNCNvMNtNtCs26lDL6qRPME_9fastskill4core8manifestNtB4_14SkillsManifest14load_from_file0B8_
FNDA:0,_RNCNvMNtNtCs26lDL6qRPME_9fastskill4core8manifestNtB4_14SkillsManifest21get_skills_for_groups0B8_
FNDA:0,_RNCNvMs_NtNtCs26lDL6qRPME_9fastskill4core8manifestNtB6_16SkillProjectToml12save_to_file0Ba_
FNDA:2,_RNCNvMs_NtNtCs26lDL6qRPME_9fastskill4core8manifestNtB6_16SkillProjectToml14load_from_file0Ba_
FNDA:0,_RNCNvMs_NtNtCs26lDL6qRPME_9fastskill4core8manifestNtB6_16SkillProjectToml16to_skill_entries0Ba_
FNDA:0,_RNCNvMs_NtNtCs26lDL6qRPME_9fastskill4core8manifestNtB6_16SkillProjectToml16to_skill_entriess0_0Ba_
FNDA:0,_RNCNvMs_NtNtCs26lDL6qRPME_9fastskill4core8manifestNtB6_16SkillProjectToml16to_skill_entriess1_0Ba_
FNDA:0,_RNCNvMs_NtNtCs26lDL6qRPME_9fastskill4core8manifestNtB6_16SkillProjectToml16to_skill_entriess2_0Ba_
FNDA:0,_RNCNvMs_NtNtCs26lDL6qRPME_9fastskill4core8manifestNtB6_16SkillProjectToml16to_skill_entriess_0Ba_
FNDA:2,_RNCNvMs_NtNtCs26lDL6qRPME_9fastskill4core8manifestNtB6_16SkillProjectToml20validate_for_context0Ba_
FNDA:2,_RNCNvMs_NtNtCs26lDL6qRPME_9fastskill4core8manifestNtB6_16SkillProjectToml20validate_for_contexts_0Ba_
FNDA:0,_RNvMNtNtCs26lDL6qRPME_9fastskill4core8manifestNtB2_14SkillsManifest12remove_skill
FNDA:0,_RNvMNtNtCs26lDL6qRPME_9fastskill4core8manifestNtB2_14SkillsManifest12save_to_file
FNDA:0,_RNvMNtNtCs26lDL6qRPME_9fastskill4core8manifestNtB2_14SkillsManifest14get_all_skills
FNDA:0,_RNvMNtNtCs26lDL6qRPME_9fastskill4core8manifestNtB2_14SkillsManifest14load_from_file
FNDA:0,_RNvMNtNtCs26lDL6qRPME_9fastskill4core8manifestNtB2_14SkillsManifest21get_skills_for_groups
FNDA:0,_RNvMNtNtCs26lDL6qRPME_9fastskill4core8manifestNtB2_14SkillsManifest9add_skill
FNDA:8,_RNvMs_NtNtCs26lDL6qRPME_9fastskill4core8manifestNtB4_16SkillProjectToml12save_to_file
FNDA:30,_RNvMs_NtNtCs26lDL6qRPME_9fastskill4core8manifestNtB4_16SkillProjectToml14load_from_file
FNDA:4,_RNvMs_NtNtCs26lDL6qRPME_9fastskill4core8manifestNtB4_16SkillProjectToml16to_skill_entries
FNDA:10,_RNvMs_NtNtCs26lDL6qRPME_9fastskill4core8manifestNtB4_16SkillProjectToml20validate_for_context
FNDA:0,_RNCNvMNtNtCsjhmHPBDWNUU_9fastskill4core8manifestNtB4_14SkillsManifest12remove_skill0B8_
FNDA:0,_RNCNvMNtNtCsjhmHPBDWNUU_9fastskill4core8manifestNtB4_14SkillsManifest12save_to_file0B8_
FNDA:0,_RNCNvMNtNtCsjhmHPBDWNUU_9fastskill4core8manifestNtB4_14SkillsManifest14load_from_file0B8_
FNDA:0,_RNCNvMs_NtNtCsjhmHPBDWNUU_9fastskill4core8manifestNtB6_16SkillProjectToml16to_skill_entries0Ba_
FNDA:0,_RNCNvMs_NtNtCsjhmHPBDWNUU_9fastskill4core8manifestNtB6_16SkillProjectToml16to_skill_entriess0_0Ba_
FNDA:0,_RNCNvMs_NtNtCsjhmHPBDWNUU_9fastskill4core8manifestNtB6_16SkillProjectToml16to_skill_entriess1_0Ba_
FNDA:0,_RNCNvMs_NtNtCsjhmHPBDWNUU_9fastskill4core8manifestNtB6_16SkillProjectToml16to_skill_entriess2_0Ba_
FNDA:0,_RNCNvMs_NtNtCsjhmHPBDWNUU_9fastskill4core8manifestNtB6_16SkillProjectToml16to_skill_entriess_0Ba_
FNDA:0,_RNCNvMs_NtNtCsjhmHPBDWNUU_9fastskill4core8manifestNtB6_16SkillProjectToml20validate_for_context0Ba_
FNDA:0,_RNCNvMs_NtNtCsjhmHPBDWNUU_9fastskill4core8manifestNtB6_16SkillProjectToml20validate_for_contexts_0Ba_
FNDA:0,_RNvMNtNtCsjhmHPBDWNUU_9fastskill4core8manifestNtB2_14SkillsManifest12remove_skill
FNDA:0,_RNvMNtNtCsjhmHPBDWNUU_9fastskill4core8manifestNtB2_14SkillsManifest12save_to_file
FNDA:0,_RNvMNtNtCsjhmHPBDWNUU_9fastskill4core8manifestNtB2_14SkillsManifest14load_from_file
FNDA:0,_RNvMNtNtCsjhmHPBDWNUU_9fastskill4core8manifestNtB2_14SkillsManifest9add_skill
FNDA:0,_RNvMs_NtNtCsjhmHPBDWNUU_9fastskill4core8manifestNtB4_16SkillProjectToml16to_skill_entries
FNDA:0,_RNvMs_NtNtCsjhmHPBDWNUU_9fastskill4core8manifestNtB4_16SkillProjectToml20validate_for_context
FNDA:1,_RNvNtNtNtCsjhmHPBDWNUU_9fastskill4core8manifest5testss_21test_manifest_parsing
FNDA:1,_RNvNtNtNtCsjhmHPBDWNUU_9fastskill4core8manifest5testss_26test_skill_source_variants
FNDA:2,_RNCNCNvMNtNtCsjhmHPBDWNUU_9fastskill4core8manifestNtB6_14SkillsManifest21get_skills_for_groups00Ba_
FNDA:2,_RNCNCNvMNtNtCsjhmHPBDWNUU_9fastskill4core8manifestNtB6_14SkillsManifest21get_skills_for_groups0s_0Ba_
FNDA:0,_RNCNCNvMs_NtNtCsjhmHPBDWNUU_9fastskill4core8manifestNtB8_16SkillProjectToml14load_from_file00Bc_
FNDA:6,_RNCNvMNtNtCsjhmHPBDWNUU_9fastskill4core8manifestNtB4_14SkillsManifest21get_skills_for_groups0B8_
FNDA:0,_RNCNvMs_NtNtCsjhmHPBDWNUU_9fastskill4core8manifestNtB6_16SkillProjectToml12save_to_file0Ba_
FNDA:0,_RNCNvMs_NtNtCsjhmHPBDWNUU_9fastskill4core8manifestNtB6_16SkillProjectToml14load_from_file0Ba_
FNDA:1,_RNvMNtNtCsjhmHPBDWNUU_9fastskill4core8manifestNtB2_14SkillsManifest14get_all_skills
FNDA:2,_RNvMNtNtCsjhmHPBDWNUU_9fastskill4core8manifestNtB2_14SkillsManifest21get_skills_for_groups
FNDA:0,_RNvMs_NtNtCsjhmHPBDWNUU_9fastskill4core8manifestNtB4_16SkillProjectToml12save_to_file
FNDA:3,_RNvMs_NtNtCsjhmHPBDWNUU_9fastskill4core8manifestNtB4_16SkillProjectToml14load_from_file
FNF:28
FNH:15
DA:71,0
DA:72,0
DA:73,0
DA:74,0
DA:76,0
DA:78,0
DA:79,0
DA:81,0
DA:82,0
DA:85,0
DA:86,0
DA:87,0
DA:89,0
DA:91,0
DA:92,0
DA:95,2
DA:96,2
DA:97,2
DA:98,2
DA:99,2
DA:100,2
DA:101,2
DA:102,6
DA:104,6
DA:105,3
DA:106,1
DA:107,2
DA:108,2
DA:109,2
DA:110,0
DA:111,3
DA:114,3
DA:115,3
DA:116,0
DA:118,0
DA:119,6
DA:120,2
DA:121,2
DA:124,1
DA:125,1
DA:126,1
DA:129,0
DA:130,0
DA:131,0
DA:134,0
DA:135,0
DA:136,0
DA:137,0
DA:138,0
DA:139,0
DA:140,0
DA:368,33
DA:369,33
DA:370,0
DA:371,33
DA:373,33
DA:375,33
DA:377,2
DA:379,2
DA:380,2
DA:381,2
DA:382,6
DA:383,2
DA:384,2
DA:385,0
DA:387,2
DA:390,0
DA:393,2
DA:394,0
DA:396,2
DA:398,2
DA:400,31
DA:401,33
DA:404,8
DA:405,8
DA:406,8
DA:408,8
DA:410,8
DA:411,8
DA:415,10
DA:416,10
DA:419,4
DA:420,4
DA:421,2
DA:422,2
DA:423,2
DA:424,2
DA:425,2
DA:426,2
DA:427,0
DA:428,0
DA:429,0
DA:430,0
DA:431,2
DA:433,0
DA:434,0
DA:435,0
DA:436,0
DA:441,5
DA:442,2
DA:443,2
DA:444,2
DA:445,2
DA:446,2
DA:447,3
DA:452,1
DA:453,1
DA:454,1
DA:455,1
DA:456,1
DA:457,1
DA:460,5
DA:461,10
DA:465,4
DA:466,4
DA:468,4
DA:469,9
DA:470,9
DA:471,1
DA:473,1
DA:474,1
DA:475,1
DA:476,1
DA:477,1
DA:478,1
DA:479,1
DA:480,1
DA:481,1
DA:482,1
DA:485,8
DA:486,8
DA:487,8
DA:488,8
DA:490,8
DA:492,3
DA:493,0
DA:494,0
DA:495,3
DA:496,3
DA:497,3
DA:498,3
DA:499,3
DA:500,3
DA:503,3
DA:504,0
DA:505,0
DA:506,3
DA:507,3
DA:508,3
DA:509,3
DA:512,1
DA:513,0
DA:517,0
DA:518,1
DA:519,1
DA:520,1
DA:521,1
DA:524,1
DA:525,0
DA:526,0
DA:527,1
DA:528,0
DA:529,0
DA:530,1
DA:531,1
DA:532,1
DA:533,1
DA:534,1
DA:537,8
DA:538,8
DA:539,8
DA:540,8
DA:541,8
DA:542,8
DA:546,9
DA:547,9
DA:548,9
DA:549,9
DA:550,9
DA:551,9
DA:552,9
DA:554,0
DA:556,4
DA:557,4
DA:583,1
DA:584,1
DA:585,1
DA:586,1
DA:587,1
DA:588,1
DA:589,1
DA:590,1
DA:591,1
DA:592,1
DA:593,1
DA:594,1
DA:595,1
DA:596,1
DA:597,1
DA:598,1
DA:599,1
DA:600,1
DA:601,1
DA:603,1
DA:605,1
DA:606,1
DA:609,1
DA:610,1
DA:613,1
DA:614,1
DA:617,1
DA:618,1
DA:619,1
DA:622,1
DA:624,1
DA:625,1
DA:626,1
DA:627,1
DA:628,1
DA:629,1
DA:632,1
DA:633,1
DA:634,1
DA:635,1
DA:636,1
DA:639,1
DA:640,1
DA:641,1
DA:642,1
DA:645,1
DA:646,1
DA:647,1
DA:648,1
DA:651,1
DA:652,1
DA:654,1
DA:655,1
DA:656,1
BRF:0
BRH:0
LF:260
LH:195
end_of_record
SF:/home/sysuser/ws001/gofastskill/fastskill/src/core/metadata.rs
FN:97,_RNvMs_NtNtCs26lDL6qRPME_9fastskill4core8metadataNtB4_19MetadataServiceImpl11score_skill
FN:70,_RNvMs_NtNtCs26lDL6qRPME_9fastskill4core8metadataNtB4_19MetadataServiceImpl13matches_query
FN:117,_RNvMs_NtNtCs26lDL6qRPME_9fastskill4core8metadataNtB4_19MetadataServiceImpl17parse_frontmatter
FN:65,_RNvMs_NtNtCs26lDL6qRPME_9fastskill4core8metadataNtB4_19MetadataServiceImpl3new
FN:124,_RNvNtNtCs26lDL6qRPME_9fastskill4core8metadata22parse_yaml_frontmatter
FN:22,_RNvXNtNtCs26lDL6qRPME_9fastskill4core8metadataNtB2_13SkillMetadataINtNtCsiJueO4bndGx_4core7convert4FromRNtNtB4_13skill_manager15SkillDefinitionE4from
FN:226,_RNvXs4_NtNtCs26lDL6qRPME_9fastskill4core8metadataNtB5_19MetadataServiceImplNtB5_15MetadataService13search_skills
FN:202,_RNvXs4_NtNtCs26lDL6qRPME_9fastskill4core8metadataNtB5_19MetadataServiceImplNtB5_15MetadataService15discover_skills
FN:234,_RNvXs4_NtNtCs26lDL6qRPME_9fastskill4core8metadataNtB5_19MetadataServiceImplNtB5_15MetadataService21get_skill_frontmatter
FN:208,_RNCNCNvXs4_NtNtCs26lDL6qRPME_9fastskill4core8metadataNtB9_19MetadataServiceImplNtB9_15MetadataService15discover_skills00Bd_
FN:214,_RNCNCNvXs4_NtNtCs26lDL6qRPME_9fastskill4core8metadataNtB9_19MetadataServiceImplNtB9_15MetadataService15discover_skills0s0_0Bd_
FN:220,_RNCNCNvXs4_NtNtCs26lDL6qRPME_9fastskill4core8metadataNtB9_19MetadataServiceImplNtB9_15MetadataService15discover_skills0s1_0Bd_
FN:209,_RNCNCNvXs4_NtNtCs26lDL6qRPME_9fastskill4core8metadataNtB9_19MetadataServiceImplNtB9_15MetadataService15discover_skills0s_0Bd_
FN:241,_RNCNCNvXs4_NtNtCs26lDL6qRPME_9fastskill4core8metadataNtB9_19MetadataServiceImplNtB9_15MetadataService21get_skill_frontmatter00Bd_
FN:156,_RNCNvNtNtCs26lDL6qRPME_9fastskill4core8metadata22parse_yaml_frontmatter0B7_
FN:164,_RNCNvNtNtCs26lDL6qRPME_9fastskill4core8metadata22parse_yaml_frontmatters0_0B7_
FN:168,_RNCNvNtNtCs26lDL6qRPME_9fastskill4core8metadata22parse_yaml_frontmatters1_0B7_
FN:169,_RNCNvNtNtCs26lDL6qRPME_9fastskill4core8metadata22parse_yaml_frontmatters2_0B7_
FN:173,_RNCNvNtNtCs26lDL6qRPME_9fastskill4core8metadata22parse_yaml_frontmatters3_0B7_
FN:177,_RNCNvNtNtCs26lDL6qRPME_9fastskill4core8metadata22parse_yaml_frontmatters4_0B7_
FN:186,_RNCNvNtNtCs26lDL6qRPME_9fastskill4core8metadata22parse_yaml_frontmatters5_0B7_
FN:189,_RNCNvNtNtCs26lDL6qRPME_9fastskill4core8metadata22parse_yaml_frontmatters6_0B7_
FN:192,_RNCNvNtNtCs26lDL6qRPME_9fastskill4core8metadata22parse_yaml_frontmatters7_0B7_
FN:195,_RNCNvNtNtCs26lDL6qRPME_9fastskill4core8metadata22parse_yaml_frontmatters8_0B7_
FN:163,_RNCNvNtNtCs26lDL6qRPME_9fastskill4core8metadata22parse_yaml_frontmatters_0B7_
FN:97,_RNvMs_NtNtCsjhmHPBDWNUU_9fastskill4core8metadataNtB4_19MetadataServiceImpl11score_skill
FN:70,_RNvMs_NtNtCsjhmHPBDWNUU_9fastskill4core8metadataNtB4_19MetadataServiceImpl13matches_query
FN:117,_RNvMs_NtNtCsjhmHPBDWNUU_9fastskill4core8metadataNtB4_19MetadataServiceImpl17parse_frontmatter
FN:65,_RNvMs_NtNtCsjhmHPBDWNUU_9fastskill4core8metadataNtB4_19MetadataServiceImpl3new
FN:124,_RNvNtNtCsjhmHPBDWNUU_9fastskill4core8metadata22parse_yaml_frontmatter
FN:22,_RNvXNtNtCsjhmHPBDWNUU_9fastskill4core8metadataNtB2_13SkillMetadataINtNtCsiJueO4bndGx_4core7convert4FromRNtNtB4_13skill_manager15SkillDefinitionE4from
FN:226,_RNvXs4_NtNtCsjhmHPBDWNUU_9fastskill4core8metadataNtB5_19MetadataServiceImplNtB5_15MetadataService13search_skills
FN:202,_RNvXs4_NtNtCsjhmHPBDWNUU_9fastskill4core8metadataNtB5_19MetadataServiceImplNtB5_15MetadataService15discover_skills
FN:234,_RNvXs4_NtNtCsjhmHPBDWNUU_9fastskill4core8metadataNtB5_19MetadataServiceImplNtB5_15MetadataService21get_skill_frontmatter
FN:208,_RNCNCNvXs4_NtNtCsjhmHPBDWNUU_9fastskill4core8metadataNtB9_19MetadataServiceImplNtB9_15MetadataService15discover_skills00Bd_
FN:214,_RNCNCNvXs4_NtNtCsjhmHPBDWNUU_9fastskill4core8metadataNtB9_19MetadataServiceImplNtB9_15MetadataService15discover_skills0s0_0Bd_
FN:220,_RNCNCNvXs4_NtNtCsjhmHPBDWNUU_9fastskill4core8metadataNtB9_19MetadataServiceImplNtB9_15MetadataService15discover_skills0s1_0Bd_
FN:209,_RNCNCNvXs4_NtNtCsjhmHPBDWNUU_9fastskill4core8metadataNtB9_19MetadataServiceImplNtB9_15MetadataService15discover_skills0s_0Bd_
FN:241,_RNCNCNvXs4_NtNtCsjhmHPBDWNUU_9fastskill4core8metadataNtB9_19MetadataServiceImplNtB9_15MetadataService21get_skill_frontmatter00Bd_
FN:156,_RNCNvNtNtCsjhmHPBDWNUU_9fastskill4core8metadata22parse_yaml_frontmatter0B7_
FN:164,_RNCNvNtNtCsjhmHPBDWNUU_9fastskill4core8metadata22parse_yaml_frontmatters0_0B7_
FN:168,_RNCNvNtNtCsjhmHPBDWNUU_9fastskill4core8metadata22parse_yaml_frontmatters1_0B7_
FN:169,_RNCNvNtNtCsjhmHPBDWNUU_9fastskill4core8metadata22parse_yaml_frontmatters2_0B7_
FN:173,_RNCNvNtNtCsjhmHPBDWNUU_9fastskill4core8metadata22parse_yaml_frontmatters3_0B7_
FN:177,_RNCNvNtNtCsjhmHPBDWNUU_9fastskill4core8metadata22parse_yaml_frontmatters4_0B7_
FN:186,_RNCNvNtNtCsjhmHPBDWNUU_9fastskill4core8metadata22parse_yaml_frontmatters5_0B7_
FN:189,_RNCNvNtNtCsjhmHPBDWNUU_9fastskill4core8metadata22parse_yaml_frontmatters6_0B7_
FN:192,_RNCNvNtNtCsjhmHPBDWNUU_9fastskill4core8metadata22parse_yaml_frontmatters7_0B7_
FN:195,_RNCNvNtNtCsjhmHPBDWNUU_9fastskill4core8metadata22parse_yaml_frontmatters8_0B7_
FN:163,_RNCNvNtNtCsjhmHPBDWNUU_9fastskill4core8metadata22parse_yaml_frontmatters_0B7_
FNDA:3,_RNvMs_NtNtCs26lDL6qRPME_9fastskill4core8metadataNtB4_19MetadataServiceImpl11score_skill
FNDA:3,_RNvMs_NtNtCs26lDL6qRPME_9fastskill4core8metadataNtB4_19MetadataServiceImpl13matches_query
FNDA:0,_RNvMs_NtNtCs26lDL6qRPME_9fastskill4core8metadataNtB4_19MetadataServiceImpl17parse_frontmatter
FNDA:34,_RNvMs_NtNtCs26lDL6qRPME_9fastskill4core8metadataNtB4_19MetadataServiceImpl3new
FNDA:9,_RNvNtNtCs26lDL6qRPME_9fastskill4core8metadata22parse_yaml_frontmatter
FNDA:3,_RNvXNtNtCs26lDL6qRPME_9fastskill4core8metadataNtB2_13SkillMetadataINtNtCsiJueO4bndGx_4core7convert4FromRNtNtB4_13skill_manager15SkillDefinitionE4from
FNDA:0,_RNvXs4_NtNtCs26lDL6qRPME_9fastskill4core8metadataNtB5_19MetadataServiceImplNtB5_15MetadataService13search_skills
FNDA:3,_RNvXs4_NtNtCs26lDL6qRPME_9fastskill4core8metadataNtB5_19MetadataServiceImplNtB5_15MetadataService15discover_skills
FNDA:0,_RNvXs4_NtNtCs26lDL6qRPME_9fastskill4core8metadataNtB5_19MetadataServiceImplNtB5_15MetadataService21get_skill_frontmatter
FNDA:3,_RNCNCNvXs4_NtNtCs26lDL6qRPME_9fastskill4core8metadataNtB9_19MetadataServiceImplNtB9_15MetadataService15discover_skills00Bd_
FNDA:2,_RNCNCNvXs4_NtNtCs26lDL6qRPME_9fastskill4core8metadataNtB9_19MetadataServiceImplNtB9_15MetadataService15discover_skills0s0_0Bd_
FNDA:3,_RNCNCNvXs4_NtNtCs26lDL6qRPME_9fastskill4core8metadataNtB9_19MetadataServiceImplNtB9_15MetadataService15discover_skills0s1_0Bd_
FNDA:3,_RNCNCNvXs4_NtNtCs26lDL6qRPME_9fastskill4core8metadataNtB9_19MetadataServiceImplNtB9_15MetadataService15discover_skills0s_0Bd_
FNDA:0,_RNCNCNvXs4_NtNtCs26lDL6qRPME_9fastskill4core8metadataNtB9_19MetadataServiceImplNtB9_15MetadataService21get_skill_frontmatter00Bd_
FNDA:0,_RNCNvNtNtCs26lDL6qRPME_9fastskill4core8metadata22parse_yaml_frontmatter0B7_
FNDA:0,_RNCNvNtNtCs26lDL6qRPME_9fastskill4core8metadata22parse_yaml_frontmatters0_0B7_
FNDA:9,_RNCNvNtNtCs26lDL6qRPME_9fastskill4core8metadata22parse_yaml_frontmatters1_0B7_
FNDA:0,_RNCNvNtNtCs26lDL6qRPME_9fastskill4core8metadata22parse_yaml_frontmatters2_0B7_
FNDA:9,_RNCNvNtNtCs26lDL6qRPME_9fastskill4core8metadata22parse_yaml_frontmatters3_0B7_
FNDA:0,_RNCNvNtNtCs26lDL6qRPME_9fastskill4core8metadata22parse_yaml_frontmatters4_0B7_
FNDA:0,_RNCNvNtNtCs26lDL6qRPME_9fastskill4core8metadata22parse_yaml_frontmatters5_0B7_
FNDA:0,_RNCNvNtNtCs26lDL6qRPME_9fastskill4core8metadata22parse_yaml_frontmatters6_0B7_
FNDA:0,_RNCNvNtNtCs26lDL6qRPME_9fastskill4core8metadata22parse_yaml_frontmatters7_0B7_
FNDA:0,_RNCNvNtNtCs26lDL6qRPME_9fastskill4core8metadata22parse_yaml_frontmatters8_0B7_
FNDA:9,_RNCNvNtNtCs26lDL6qRPME_9fastskill4core8metadata22parse_yaml_frontmatters_0B7_
FNDA:0,_RNvMs_NtNtCsjhmHPBDWNUU_9fastskill4core8metadataNtB4_19MetadataServiceImpl11score_skill
FNDA:0,_RNvMs_NtNtCsjhmHPBDWNUU_9fastskill4core8metadataNtB4_19MetadataServiceImpl13matches_query
FNDA:0,_RNvMs_NtNtCsjhmHPBDWNUU_9fastskill4core8metadataNtB4_19MetadataServiceImpl17parse_frontmatter
FNDA:3,_RNvMs_NtNtCsjhmHPBDWNUU_9fastskill4core8metadataNtB4_19MetadataServiceImpl3new
FNDA:0,_RNvNtNtCsjhmHPBDWNUU_9fastskill4core8metadata22parse_yaml_frontmatter
FNDA:0,_RNvXNtNtCsjhmHPBDWNUU_9fastskill4core8metadataNtB2_13SkillMetadataINtNtCsiJueO4bndGx_4core7convert4FromRNtNtB4_13skill_manager15SkillDefinitionE4from
FNDA:0,_RNvXs4_NtNtCsjhmHPBDWNUU_9fastskill4core8metadataNtB5_19MetadataServiceImplNtB5_15MetadataService13search_skills
FNDA:0,_RNvXs4_NtNtCsjhmHPBDWNUU_9fastskill4core8metadataNtB5_19MetadataServiceImplNtB5_15MetadataService15discover_skills
FNDA:0,_RNvXs4_NtNtCsjhmHPBDWNUU_9fastskill4core8metadataNtB5_19MetadataServiceImplNtB5_15MetadataService21get_skill_frontmatter
FNDA:0,_RNCNCNvXs4_NtNtCsjhmHPBDWNUU_9fastskill4core8metadataNtB9_19MetadataServiceImplNtB9_15MetadataService15discover_skills00Bd_
FNDA:0,_RNCNCNvXs4_NtNtCsjhmHPBDWNUU_9fastskill4core8metadataNtB9_19MetadataServiceImplNtB9_15MetadataService15discover_skills0s0_0Bd_
FNDA:0,_RNCNCNvXs4_NtNtCsjhmHPBDWNUU_9fastskill4core8metadataNtB9_19MetadataServiceImplNtB9_15MetadataService15discover_skills0s1_0Bd_
FNDA:0,_RNCNCNvXs4_NtNtCsjhmHPBDWNUU_9fastskill4core8metadataNtB9_19MetadataServiceImplNtB9_15MetadataService15discover_skills0s_0Bd_
FNDA:0,_RNCNCNvXs4_NtNtCsjhmHPBDWNUU_9fastskill4core8metadataNtB9_19MetadataServiceImplNtB9_15MetadataService21get_skill_frontmatter00Bd_
FNDA:0,_RNCNvNtNtCsjhmHPBDWNUU_9fastskill4core8metadata22parse_yaml_frontmatter0B7_
FNDA:0,_RNCNvNtNtCsjhmHPBDWNUU_9fastskill4core8metadata22parse_yaml_frontmatters0_0B7_
FNDA:0,_RNCNvNtNtCsjhmHPBDWNUU_9fastskill4core8metadata22parse_yaml_frontmatters1_0B7_
FNDA:0,_RNCNvNtNtCsjhmHPBDWNUU_9fastskill4core8metadata22parse_yaml_frontmatters2_0B7_
FNDA:0,_RNCNvNtNtCsjhmHPBDWNUU_9fastskill4core8metadata22parse_yaml_frontmatters3_0B7_
FNDA:0,_RNCNvNtNtCsjhmHPBDWNUU_9fastskill4core8metadata22parse_yaml_frontmatters4_0B7_
FNDA:0,_RNCNvNtNtCsjhmHPBDWNUU_9fastskill4core8metadata22parse_yaml_frontmatters5_0B7_
FNDA:0,_RNCNvNtNtCsjhmHPBDWNUU_9fastskill4core8metadata22parse_yaml_frontmatters6_0B7_
FNDA:0,_RNCNvNtNtCsjhmHPBDWNUU_9fastskill4core8metadata22parse_yaml_frontmatters7_0B7_
FNDA:0,_RNCNvNtNtCsjhmHPBDWNUU_9fastskill4core8metadata22parse_yaml_frontmatters8_0B7_
FNDA:0,_RNCNvNtNtCsjhmHPBDWNUU_9fastskill4core8metadata22parse_yaml_frontmatters_0B7_
FNF:25
FNH:13
DA:22,3
DA:23,3
DA:24,3
DA:25,3
DA:26,3
DA:27,3
DA:28,3
DA:29,3
DA:30,3
DA:31,3
DA:32,3
DA:33,3
DA:65,37
DA:66,37
DA:67,37
DA:70,3
DA:71,3
DA:74,3
DA:75,3
DA:77,3
DA:78,0
DA:81,0
DA:82,0
DA:83,0
DA:85,0
DA:86,0
DA:88,0
DA:89,0
DA:90,0
DA:93,0
DA:94,3
DA:97,3
DA:98,3
DA:99,3
DA:102,3
DA:103,0
DA:104,3
DA:105,0
DA:106,3
DA:109,3
DA:110,3
DA:111,3
DA:113,3
DA:114,3
DA:117,0
DA:118,0
DA:119,0
DA:124,9
DA:125,9
DA:126,9
DA:127,9
DA:131,53
DA:132,53
DA:133,18
DA:134,9
DA:135,9
DA:136,9
DA:137,9
DA:139,35
DA:140,35
DA:141,35
DA:145,9
DA:148,0
DA:149,0
DA:150,0
DA:151,9
DA:154,9
DA:155,9
DA:156,9
DA:157,0
DA:158,0
DA:161,9
DA:162,9
DA:163,9
DA:164,9
DA:166,9
DA:167,9
DA:168,9
DA:169,9
DA:171,9
DA:172,9
DA:173,9
DA:175,9
DA:176,9
DA:177,9
DA:180,9
DA:181,9
DA:182,9
DA:183,9
DA:184,9
DA:185,9
DA:186,9
DA:187,9
DA:188,9
DA:189,9
DA:190,9
DA:191,9
DA:192,9
DA:193,9
DA:194,9
DA:195,9
DA:196,9
DA:198,9
DA:202,3
DA:208,3
DA:209,3
DA:214,2
DA:220,3
DA:224,3
DA:226,0
DA:229,0
DA:234,0
DA:241,0
DA:257,0
BRF:0
BRH:0
LF:126
LH:92
end_of_record
SF:/home/sysuser/ws001/gofastskill/fastskill/src/core/packaging.rs
FN:322,_RNCNvNtNtCs26lDL6qRPME_9fastskill4core9packaging14get_git_branch0B7_
FN:303,_RNCNvNtNtCs26lDL6qRPME_9fastskill4core9packaging14get_git_commit0B7_
FN:337,_RNCNvNtNtCs26lDL6qRPME_9fastskill4core9packaging16get_rust_version0B7_
FN:266,_RNCNvNtNtCs26lDL6qRPME_9fastskill4core9packaging21create_build_metadata0B7_
FN:56,_RNCNvNtNtCs26lDL6qRPME_9fastskill4core9packaging21package_skill_with_id0B7_
FN:94,_RNCNvNtNtCs26lDL6qRPME_9fastskill4core9packaging21package_skill_with_ids0_0B7_
FN:116,_RNCNvNtNtCs26lDL6qRPME_9fastskill4core9packaging21package_skill_with_ids1_0B7_
FN:117,_RNCNvNtNtCs26lDL6qRPME_9fastskill4core9packaging21package_skill_with_ids2_0B7_
FN:124,_RNCNvNtNtCs26lDL6qRPME_9fastskill4core9packaging21package_skill_with_ids3_0B7_
FN:144,_RNCNvNtNtCs26lDL6qRPME_9fastskill4core9packaging21package_skill_with_ids4_0B7_
FN:145,_RNCNvNtNtCs26lDL6qRPME_9fastskill4core9packaging21package_skill_with_ids5_0B7_
FN:151,_RNCNvNtNtCs26lDL6qRPME_9fastskill4core9packaging21package_skill_with_ids6_0B7_
FN:168,_RNCNvNtNtCs26lDL6qRPME_9fastskill4core9packaging21package_skill_with_ids7_0B7_
FN:180,_RNCNvNtNtCs26lDL6qRPME_9fastskill4core9packaging21package_skill_with_ids8_0B7_
FN:183,_RNCNvNtNtCs26lDL6qRPME_9fastskill4core9packaging21package_skill_with_ids9_0B7_
FN:89,_RNCNvNtNtCs26lDL6qRPME_9fastskill4core9packaging21package_skill_with_ids_0B7_
FN:189,_RNCNvNtNtCs26lDL6qRPME_9fastskill4core9packaging21package_skill_with_idsa_0B7_
FN:207,_RNCNvNtNtCs26lDL6qRPME_9fastskill4core9packaging21package_skill_with_idsb_0B7_
FN:208,_RNCNvNtNtCs26lDL6qRPME_9fastskill4core9packaging21package_skill_with_idsc_0B7_
FN:214,_RNCNvNtNtCs26lDL6qRPME_9fastskill4core9packaging21package_skill_with_idsd_0B7_
FN:228,_RNCNvNtNtCs26lDL6qRPME_9fastskill4core9packaging21package_skill_with_idse_0B7_
FN:236,_RNCNvNtNtCs26lDL6qRPME_9fastskill4core9packaging21package_skill_with_idsf_0B7_
FN:239,_RNCNvNtNtCs26lDL6qRPME_9fastskill4core9packaging21package_skill_with_idsg_0B7_
FN:245,_RNCNvNtNtCs26lDL6qRPME_9fastskill4core9packaging21package_skill_with_idsh_0B7_
FN:249,_RNCNvNtNtCs26lDL6qRPME_9fastskill4core9packaging21package_skill_with_idsi_0B7_
FN:14,_RNvNtNtCs26lDL6qRPME_9fastskill4core9packaging13package_skill
FN:316,_RNvNtNtCs26lDL6qRPME_9fastskill4core9packaging14get_git_branch
FN:297,_RNvNtNtCs26lDL6qRPME_9fastskill4core9packaging14get_git_commit
FN:335,_RNvNtNtCs26lDL6qRPME_9fastskill4core9packaging16get_rust_version
FN:276,_RNvNtNtCs26lDL6qRPME_9fastskill4core9packaging18calculate_checksum
FN:257,_RNvNtNtCs26lDL6qRPME_9fastskill4core9packaging21create_build_metadata
FN:23,_RNvNtNtCs26lDL6qRPME_9fastskill4core9packaging21package_skill_with_id
FN:322,_RNCNvNtNtCsjhmHPBDWNUU_9fastskill4core9packaging14get_git_branch0B7_
FN:303,_RNCNvNtNtCsjhmHPBDWNUU_9fastskill4core9packaging14get_git_commit0B7_
FN:337,_RNCNvNtNtCsjhmHPBDWNUU_9fastskill4core9packaging16get_rust_version0B7_
FN:266,_RNCNvNtNtCsjhmHPBDWNUU_9fastskill4core9packaging21create_build_metadata0B7_
FN:56,_RNCNvNtNtCsjhmHPBDWNUU_9fastskill4core9packaging21package_skill_with_id0B7_
FN:94,_RNCNvNtNtCsjhmHPBDWNUU_9fastskill4core9packaging21package_skill_with_ids0_0B7_
FN:116,_RNCNvNtNtCsjhmHPBDWNUU_9fastskill4core9packaging21package_skill_with_ids1_0B7_
FN:117,_RNCNvNtNtCsjhmHPBDWNUU_9fastskill4core9packaging21package_skill_with_ids2_0B7_
FN:124,_RNCNvNtNtCsjhmHPBDWNUU_9fastskill4core9packaging21package_skill_with_ids3_0B7_
FN:144,_RNCNvNtNtCsjhmHPBDWNUU_9fastskill4core9packaging21package_skill_with_ids4_0B7_
FN:145,_RNCNvNtNtCsjhmHPBDWNUU_9fastskill4core9packaging21package_skill_with_ids5_0B7_
FN:151,_RNCNvNtNtCsjhmHPBDWNUU_9fastskill4core9packaging21package_skill_with_ids6_0B7_
FN:168,_RNCNvNtNtCsjhmHPBDWNUU_9fastskill4core9packaging21package_skill_with_ids7_0B7_
FN:180,_RNCNvNtNtCsjhmHPBDWNUU_9fastskill4core9packaging21package_skill_with_ids8_0B7_
FN:183,_RNCNvNtNtCsjhmHPBDWNUU_9fastskill4core9packaging21package_skill_with_ids9_0B7_
FN:89,_RNCNvNtNtCsjhmHPBDWNUU_9fastskill4core9packaging21package_skill_with_ids_0B7_
FN:189,_RNCNvNtNtCsjhmHPBDWNUU_9fastskill4core9packaging21package_skill_with_idsa_0B7_
FN:207,_RNCNvNtNtCsjhmHPBDWNUU_9fastskill4core9packaging21package_skill_with_idsb_0B7_
FN:208,_RNCNvNtNtCsjhmHPBDWNUU_9fastskill4core9packaging21package_skill_with_idsc_0B7_
FN:214,_RNCNvNtNtCsjhmHPBDWNUU_9fastskill4core9packaging21package_skill_with_idsd_0B7_
FN:228,_RNCNvNtNtCsjhmHPBDWNUU_9fastskill4core9packaging21package_skill_with_idse_0B7_
FN:236,_RNCNvNtNtCsjhmHPBDWNUU_9fastskill4core9packaging21package_skill_with_idsf_0B7_
FN:239,_RNCNvNtNtCsjhmHPBDWNUU_9fastskill4core9packaging21package_skill_with_idsg_0B7_
FN:245,_RNCNvNtNtCsjhmHPBDWNUU_9fastskill4core9packaging21package_skill_with_idsh_0B7_
FN:249,_RNCNvNtNtCsjhmHPBDWNUU_9fastskill4core9packaging21package_skill_with_idsi_0B7_
FN:14,_RNvNtNtCsjhmHPBDWNUU_9fastskill4core9packaging13package_skill
FN:316,_RNvNtNtCsjhmHPBDWNUU_9fastskill4core9packaging14get_git_branch
FN:297,_RNvNtNtCsjhmHPBDWNUU_9fastskill4core9packaging14get_git_commit
FN:335,_RNvNtNtCsjhmHPBDWNUU_9fastskill4core9packaging16get_rust_version
FN:276,_RNvNtNtCsjhmHPBDWNUU_9fastskill4core9packaging18calculate_checksum
FN:257,_RNvNtNtCsjhmHPBDWNUU_9fastskill4core9packaging21create_build_metadata
FN:23,_RNvNtNtCsjhmHPBDWNUU_9fastskill4core9packaging21package_skill_with_id
FNDA:0,_RNCNvNtNtCs26lDL6qRPME_9fastskill4core9packaging14get_git_branch0B7_
FNDA:0,_RNCNvNtNtCs26lDL6qRPME_9fastskill4core9packaging14get_git_commit0B7_
FNDA:1,_RNCNvNtNtCs26lDL6qRPME_9fastskill4core9packaging16get_rust_version0B7_
FNDA:0,_RNCNvNtNtCs26lDL6qRPME_9fastskill4core9packaging21create_build_metadata0B7_
FNDA:0,_RNCNvNtNtCs26lDL6qRPME_9fastskill4core9packaging21package_skill_with_id0B7_
FNDA:1,_RNCNvNtNtCs26lDL6qRPME_9fastskill4core9packaging21package_skill_with_ids0_0B7_
FNDA:0,_RNCNvNtNtCs26lDL6qRPME_9fastskill4core9packaging21package_skill_with_ids1_0B7_
FNDA:0,_RNCNvNtNtCs26lDL6qRPME_9fastskill4core9packaging21package_skill_with_ids2_0B7_
FNDA:0,_RNCNvNtNtCs26lDL6qRPME_9fastskill4core9packaging21package_skill_with_ids3_0B7_
FNDA:3,_RNCNvNtNtCs26lDL6qRPME_9fastskill4core9packaging21package_skill_with_ids4_0B7_
FNDA:3,_RNCNvNtNtCs26lDL6qRPME_9fastskill4core9packaging21package_skill_with_ids5_0B7_
FNDA:0,_RNCNvNtNtCs26lDL6qRPME_9fastskill4core9packaging21package_skill_with_ids6_0B7_
FNDA:0,_RNCNvNtNtCs26lDL6qRPME_9fastskill4core9packaging21package_skill_with_ids7_0B7_
FNDA:0,_RNCNvNtNtCs26lDL6qRPME_9fastskill4core9packaging21package_skill_with_ids8_0B7_
FNDA:0,_RNCNvNtNtCs26lDL6qRPME_9fastskill4core9packaging21package_skill_with_ids9_0B7_
FNDA:1,_RNCNvNtNtCs26lDL6qRPME_9fastskill4core9packaging21package_skill_with_ids_0B7_
FNDA:0,_RNCNvNtNtCs26lDL6qRPME_9fastskill4core9packaging21package_skill_with_idsa_0B7_
FNDA:3,_RNCNvNtNtCs26lDL6qRPME_9fastskill4core9packaging21package_skill_with_idsb_0B7_
FNDA:3,_RNCNvNtNtCs26lDL6qRPME_9fastskill4core9packaging21package_skill_with_idsc_0B7_
FNDA:0,_RNCNvNtNtCs26lDL6qRPME_9fastskill4core9packaging21package_skill_with_idsd_0B7_
FNDA:0,_RNCNvNtNtCs26lDL6qRPME_9fastskill4core9packaging21package_skill_with_idse_0B7_
FNDA:0,_RNCNvNtNtCs26lDL6qRPME_9fastskill4core9packaging21package_skill_with_idsf_0B7_
FNDA:0,_RNCNvNtNtCs26lDL6qRPME_9fastskill4core9packaging21package_skill_with_idsg_0B7_
FNDA:0,_RNCNvNtNtCs26lDL6qRPME_9fastskill4core9packaging21package_skill_with_idsh_0B7_
FNDA:0,_RNCNvNtNtCs26lDL6qRPME_9fastskill4core9packaging21package_skill_with_idsi_0B7_
FNDA:1,_RNvNtNtCs26lDL6qRPME_9fastskill4core9packaging13package_skill
FNDA:1,_RNvNtNtCs26lDL6qRPME_9fastskill4core9packaging14get_git_branch
FNDA:1,_RNvNtNtCs26lDL6qRPME_9fastskill4core9packaging14get_git_commit
FNDA:1,_RNvNtNtCs26lDL6qRPME_9fastskill4core9packaging16get_rust_version
FNDA:1,_RNvNtNtCs26lDL6qRPME_9fastskill4core9packaging18calculate_checksum
FNDA:1,_RNvNtNtCs26lDL6qRPME_9fastskill4core9packaging21create_build_metadata
FNDA:1,_RNvNtNtCs26lDL6qRPME_9fastskill4core9packaging21package_skill_with_id
FNDA:0,_RNCNvNtNtCsjhmHPBDWNUU_9fastskill4core9packaging14get_git_branch0B7_
FNDA:0,_RNCNvNtNtCsjhmHPBDWNUU_9fastskill4core9packaging14get_git_commit0B7_
FNDA:0,_RNCNvNtNtCsjhmHPBDWNUU_9fastskill4core9packaging16get_rust_version0B7_
FNDA:0,_RNCNvNtNtCsjhmHPBDWNUU_9fastskill4core9packaging21create_build_metadata0B7_
FNDA:0,_RNCNvNtNtCsjhmHPBDWNUU_9fastskill4core9packaging21package_skill_with_id0B7_
FNDA:0,_RNCNvNtNtCsjhmHPBDWNUU_9fastskill4core9packaging21package_skill_with_ids0_0B7_
FNDA:0,_RNCNvNtNtCsjhmHPBDWNUU_9fastskill4core9packaging21package_skill_with_ids1_0B7_
FNDA:0,_RNCNvNtNtCsjhmHPBDWNUU_9fastskill4core9packaging21package_skill_with_ids2_0B7_
FNDA:0,_RNCNvNtNtCsjhmHPBDWNUU_9fastskill4core9packaging21package_skill_with_ids3_0B7_
FNDA:0,_RNCNvNtNtCsjhmHPBDWNUU_9fastskill4core9packaging21package_skill_with_ids4_0B7_
FNDA:0,_RNCNvNtNtCsjhmHPBDWNUU_9fastskill4core9packaging21package_skill_with_ids5_0B7_
FNDA:0,_RNCNvNtNtCsjhmHPBDWNUU_9fastskill4core9packaging21package_skill_with_ids6_0B7_
FNDA:0,_RNCNvNtNtCsjhmHPBDWNUU_9fastskill4core9packaging21package_skill_with_ids7_0B7_
FNDA:0,_RNCNvNtNtCsjhmHPBDWNUU_9fastskill4core9packaging21package_skill_with_ids8_0B7_
FNDA:0,_RNCNvNtNtCsjhmHPBDWNUU_9fastskill4core9packaging21package_skill_with_ids9_0B7_
FNDA:0,_RNCNvNtNtCsjhmHPBDWNUU_9fastskill4core9packaging21package_skill_with_ids_0B7_
FNDA:0,_RNCNvNtNtCsjhmHPBDWNUU_9fastskill4core9packaging21package_skill_with_idsa_0B7_
FNDA:0,_RNCNvNtNtCsjhmHPBDWNUU_9fastskill4core9packaging21package_skill_with_idsb_0B7_
FNDA:0,_RNCNvNtNtCsjhmHPBDWNUU_9fastskill4core9packaging21package_skill_with_idsc_0B7_
FNDA:0,_RNCNvNtNtCsjhmHPBDWNUU_9fastskill4core9packaging21package_skill_with_idsd_0B7_
FNDA:0,_RNCNvNtNtCsjhmHPBDWNUU_9fastskill4core9packaging21package_skill_with_idse_0B7_
FNDA:0,_RNCNvNtNtCsjhmHPBDWNUU_9fastskill4core9packaging21package_skill_with_idsf_0B7_
FNDA:0,_RNCNvNtNtCsjhmHPBDWNUU_9fastskill4core9packaging21package_skill_with_idsg_0B7_
FNDA:0,_RNCNvNtNtCsjhmHPBDWNUU_9fastskill4core9packaging21package_skill_with_idsh_0B7_
FNDA:0,_RNCNvNtNtCsjhmHPBDWNUU_9fastskill4core9packaging21package_skill_with_idsi_0B7_
FNDA:0,_RNvNtNtCsjhmHPBDWNUU_9fastskill4core9packaging13package_skill
FNDA:0,_RNvNtNtCsjhmHPBDWNUU_9fastskill4core9packaging14get_git_branch
FNDA:0,_RNvNtNtCsjhmHPBDWNUU_9fastskill4core9packaging14get_git_commit
FNDA:0,_RNvNtNtCsjhmHPBDWNUU_9fastskill4core9packaging16get_rust_version
FNDA:0,_RNvNtNtCsjhmHPBDWNUU_9fastskill4core9packaging18calculate_checksum
FNDA:0,_RNvNtNtCsjhmHPBDWNUU_9fastskill4core9packaging21create_build_metadata
FNDA:0,_RNvNtNtCsjhmHPBDWNUU_9fastskill4core9packaging21package_skill_with_id
FNF:32
FNH:14
DA:14,1
DA:15,1
DA:16,1
DA:17,1
DA:18,1
DA:19,1
DA:20,1
DA:23,1
DA:24,1
DA:25,1
DA:26,1
DA:27,1
DA:28,1
DA:30,1
DA:31,0
DA:32,0
DA:33,0
DA:34,0
DA:35,1
DA:37,1
DA:38,0
DA:39,0
DA:40,0
DA:41,0
DA:42,1
DA:45,1
DA:46,0
DA:47,0
DA:48,0
DA:49,0
DA:50,1
DA:54,1
DA:55,1
DA:56,0
DA:57,0
DA:58,0
DA:59,0
DA:60,0
DA:61,0
DA:62,0
DA:63,0
DA:64,0
DA:65,0
DA:66,0
DA:67,0
DA:68,0
DA:69,0
DA:70,0
DA:71,0
DA:72,0
DA:73,0
DA:75,0
DA:77,0
DA:78,1
DA:81,1
DA:82,1
DA:83,1
DA:84,1
DA:86,1
DA:87,1
DA:88,1
DA:89,1
DA:90,1
DA:91,1
DA:92,1
DA:93,1
DA:94,1
DA:95,1
DA:97,1
DA:101,0
DA:105,0
DA:109,1
DA:110,0
DA:111,1
DA:112,1
DA:114,0
DA:115,0
DA:116,0
DA:117,0
DA:118,0
DA:119,0
DA:120,0
DA:124,1
DA:127,1
DA:130,1
DA:131,1
DA:134,1
DA:136,1
DA:137,1
DA:138,1
DA:139,1
DA:142,1
DA:143,1
DA:144,3
DA:145,3
DA:147,2
DA:148,2
DA:149,2
DA:150,2
DA:151,2
DA:153,2
DA:156,2
DA:157,0
DA:158,2
DA:161,2
DA:162,2
DA:163,2
DA:164,2
DA:167,2
DA:168,2
DA:169,2
DA:173,1
DA:176,1
DA:179,1
DA:180,1
DA:182,1
DA:183,1
DA:184,1
DA:185,1
DA:188,1
DA:189,1
DA:193,1
DA:197,1
DA:200,1
DA:202,1
DA:205,1
DA:206,1
DA:207,3
DA:208,3
DA:210,2
DA:211,2
DA:212,2
DA:213,2
DA:214,2
DA:216,2
DA:218,2
DA:219,0
DA:220,2
DA:222,2
DA:223,2
DA:224,2
DA:225,2
DA:227,2
DA:228,2
DA:229,2
DA:235,1
DA:236,1
DA:238,1
DA:239,1
DA:240,1
DA:241,1
DA:244,1
DA:245,1
DA:246,1
DA:247,1
DA:249,1
DA:250,0
DA:251,0
DA:253,1
DA:254,1
DA:257,1
DA:258,1
DA:259,1
DA:260,1
DA:261,1
DA:263,1
DA:264,1
DA:265,1
DA:266,1
DA:267,1
DA:268,1
DA:269,1
DA:270,1
DA:271,1
DA:273,1
DA:276,1
DA:277,1
DA:279,1
DA:280,1
DA:283,2
DA:285,2
DA:286,1
DA:287,1
DA:289,1
DA:292,1
DA:293,1
DA:294,1
DA:297,1
DA:300,1
DA:301,1
DA:302,1
DA:303,1
DA:305,1
DA:306,1
DA:307,1
DA:308,1
DA:309,0
DA:311,0
DA:312,0
DA:313,1
DA:316,1
DA:319,1
DA:320,1
DA:321,1
DA:322,1
DA:324,1
DA:325,0
DA:326,0
DA:327,0
DA:328,1
DA:330,1
DA:331,1
DA:332,1
DA:335,1
DA:337,1
DA:338,1
BRF:0
BRH:0
LF:244
LH:171
end_of_record
SF:/home/sysuser/ws001/gofastskill/fastskill/src/core/project.rs
FN:81,_RNCNvNtNtCs26lDL6qRPME_9fastskill4core7project14detect_context0B7_
FN:80,_RNvNtNtCs26lDL6qRPME_9fastskill4core7project14detect_context
FN:16,_RNvNtNtCs26lDL6qRPME_9fastskill4core7project20resolve_project_file
FN:100,_RNvNtNtCs26lDL6qRPME_9fastskill4core7project27detect_context_from_content
FN:81,_RNCNvNtNtCsjhmHPBDWNUU_9fastskill4core7project14detect_context0B7_
FN:149,_RNvNtNtNtCsjhmHPBDWNUU_9fastskill4core7project5testss_25test_detect_context_skill
FN:161,_RNvNtNtNtCsjhmHPBDWNUU_9fastskill4core7project5testss_27test_detect_context_project
FN:127,_RNvNtNtNtCsjhmHPBDWNUU_9fastskill4core7project5testss_31test_resolve_project_file_found
FN:173,_RNvNtNtNtCsjhmHPBDWNUU_9fastskill4core7project5testss_33test_resolve_project_file_walk_up
FN:139,_RNvNtNtNtCsjhmHPBDWNUU_9fastskill4core7project5testss_35test_resolve_project_file_not_found
FN:192,_RNvNtNtNtCsjhmHPBDWNUU_9fastskill4core7project5testss_38test_resolve_project_file_closest_wins
FN:80,_RNvNtNtCsjhmHPBDWNUU_9fastskill4core7project14detect_context
FN:16,_RNvNtNtCsjhmHPBDWNUU_9fastskill4core7project20resolve_project_file
FN:100,_RNvNtNtCsjhmHPBDWNUU_9fastskill4core7project27detect_context_from_content
FNDA:0,_RNCNvNtNtCs26lDL6qRPME_9fastskill4core7project14detect_context0B7_
FNDA:17,_RNvNtNtCs26lDL6qRPME_9fastskill4core7project14detect_context
FNDA:28,_RNvNtNtCs26lDL6qRPME_9fastskill4core7project20resolve_project_file
FNDA:16,_RNvNtNtCs26lDL6qRPME_9fastskill4core7project27detect_context_from_content
FNDA:0,_RNCNvNtNtCsjhmHPBDWNUU_9fastskill4core7project14detect_context0B7_
FNDA:1,_RNvNtNtNtCsjhmHPBDWNUU_9fastskill4core7project5testss_25test_detect_context_skill
FNDA:1,_RNvNtNtNtCsjhmHPBDWNUU_9fastskill4core7project5testss_27test_detect_context_project
FNDA:1,_RNvNtNtNtCsjhmHPBDWNUU_9fastskill4core7project5testss_31test_resolve_project_file_found
FNDA:1,_RNvNtNtNtCsjhmHPBDWNUU_9fastskill4core7project5testss_33test_resolve_project_file_walk_up
FNDA:1,_RNvNtNtNtCsjhmHPBDWNUU_9fastskill4core7project5testss_35test_resolve_project_file_not_found
FNDA:1,_RNvNtNtNtCsjhmHPBDWNUU_9fastskill4core7project5testss_38test_resolve_project_file_closest_wins
FNDA:5,_RNvNtNtCsjhmHPBDWNUU_9fastskill4core7project14detect_context
FNDA:4,_RNvNtNtCsjhmHPBDWNUU_9fastskill4core7project20resolve_project_file
FNDA:3,_RNvNtNtCsjhmHPBDWNUU_9fastskill4core7project27detect_context_from_content
FNF:10
FNH:9
DA:16,32
DA:18,32
DA:22,78
DA:24,78
DA:26,11
DA:29,11
DA:32,10
DA:33,10
DA:35,10
DA:38,10
DA:39,0
DA:41,10
DA:44,0
DA:47,1
DA:50,11
DA:51,11
DA:52,11
DA:53,11
DA:54,11
DA:55,67
DA:58,67
DA:59,46
DA:60,46
DA:61,21
DA:66,21
DA:67,21
DA:68,21
DA:69,21
DA:70,21
DA:71,21
DA:72,32
DA:80,22
DA:81,22
DA:82,22
DA:84,22
DA:85,5
DA:86,17
DA:91,17
DA:92,22
DA:100,19
DA:102,19
DA:103,5
DA:104,3
DA:105,2
DA:106,14
DA:109,16
DA:110,13
DA:111,8
DA:112,5
DA:113,3
DA:116,8
DA:117,19
DA:127,1
DA:128,1
DA:129,1
DA:130,1
DA:132,1
DA:134,1
DA:135,1
DA:136,1
DA:139,1
DA:140,1
DA:142,1
DA:144,1
DA:145,1
DA:146,1
DA:149,1
DA:150,1
DA:151,1
DA:152,1
DA:153,1
DA:155,1
DA:157,1
DA:158,1
DA:161,1
DA:162,1
DA:163,1
DA:164,1
DA:167,1
DA:169,1
DA:170,1
DA:173,1
DA:175,1
DA:176,1
DA:177,1
DA:180,1
DA:181,1
DA:184,1
DA:186,1
DA:187,1
DA:188,1
DA:189,1
DA:192,1
DA:194,1
DA:197,1
DA:198,1
DA:201,1
DA:202,1
DA:203,1
DA:204,1
DA:207,1
DA:209,1
DA:210,1
DA:211,1
BRF:0
BRH:0
LF:105
LH:102
end_of_record
SF:/home/sysuser/ws001/gofastskill/fastskill/src/core/reconciliation.rs
FN:75,_RNCNvNtNtCs26lDL6qRPME_9fastskill4core14reconciliation27build_reconciliation_report0B7_
FN:61,_RNvNtNtCs26lDL6qRPME_9fastskill4core14reconciliation27build_reconciliation_report
FN:75,_RNCNvNtNtCsjhmHPBDWNUU_9fastskill4core14reconciliation27build_reconciliation_report0B7_
FN:61,_RNvNtNtCsjhmHPBDWNUU_9fastskill4core14reconciliation27build_reconciliation_report
FNDA:2,_RNCNvNtNtCs26lDL6qRPME_9fastskill4core14reconciliation27build_reconciliation_report0B7_
FNDA:3,_RNvNtNtCs26lDL6qRPME_9fastskill4core14reconciliation27build_reconciliation_report
FNDA:0,_RNCNvNtNtCsjhmHPBDWNUU_9fastskill4core14reconciliation27build_reconciliation_report0B7_
FNDA:0,_RNvNtNtCsjhmHPBDWNUU_9fastskill4core14reconciliation27build_reconciliation_report
FNF:2
FNH:2
DA:61,3
DA:62,3
DA:63,3
DA:64,3
DA:65,3
DA:66,3
DA:67,3
DA:68,3
DA:69,3
DA:70,3
DA:73,3
DA:74,3
DA:75,3
DA:76,3
DA:79,3
DA:80,3
DA:81,2
DA:82,2
DA:83,2
DA:84,2
DA:85,2
DA:89,3
DA:90,2
DA:91,2
DA:92,2
DA:95,2
DA:96,1
DA:97,1
DA:98,1
DA:99,1
DA:101,0
DA:104,0
DA:108,2
DA:109,1
DA:110,1
DA:111,1
DA:112,1
DA:113,1
DA:114,1
DA:115,1
DA:116,1
DA:117,1
DA:118,1
DA:119,1
DA:120,1
DA:122,1
DA:123,1
DA:124,1
DA:125,1
DA:126,1
DA:127,1
DA:128,1
DA:130,0
DA:134,2
DA:135,2
DA:136,2
DA:137,2
DA:138,2
DA:139,2
DA:140,2
DA:141,2
DA:142,2
DA:143,2
DA:146,3
DA:147,3
DA:148,3
DA:149,3
DA:150,3
DA:151,3
DA:152,3
BRF:0
BRH:0
LF:71
LH:68
end_of_record
SF:/home/sysuser/ws001/gofastskill/fastskill/src/core/registry/auth.rs
FN:33,_RNCNvXs1_NtNtNtCs26lDL6qRPME_9fastskill4core8registry4authNtB7_9GitHubPatNtB7_4Auth15get_auth_header0Bd_
FN:24,_RNvMNtNtNtCs26lDL6qRPME_9fastskill4core8registry4authNtB2_9GitHubPat3new
FN:80,_RNvMs0_NtNtNtCs26lDL6qRPME_9fastskill4core8registry4authNtB5_6ApiKey3new
FN:53,_RNvMs_NtNtNtCs26lDL6qRPME_9fastskill4core8registry4authNtB4_6SshKey3new
FN:42,_RNvXs1_NtNtNtCs26lDL6qRPME_9fastskill4core8registry4authNtB5_9GitHubPatNtB5_4Auth13is_configured
FN:32,_RNvXs1_NtNtNtCs26lDL6qRPME_9fastskill4core8registry4authNtB5_9GitHubPatNtB5_4Auth15get_auth_header
FN:68,_RNvXs2_NtNtNtCs26lDL6qRPME_9fastskill4core8registry4authNtB5_6SshKeyNtB5_4Auth13is_configured
FN:60,_RNvXs2_NtNtNtCs26lDL6qRPME_9fastskill4core8registry4authNtB5_6SshKeyNtB5_4Auth15get_auth_header
FN:103,_RNvXs3_NtNtNtCs26lDL6qRPME_9fastskill4core8registry4authNtB5_6ApiKeyNtB5_4Auth13is_configured
FN:88,_RNvXs3_NtNtNtCs26lDL6qRPME_9fastskill4core8registry4authNtB5_6ApiKeyNtB5_4Auth15get_auth_header
FN:33,_RNCNvXs1_NtNtNtCsjhmHPBDWNUU_9fastskill4core8registry4authNtB7_9GitHubPatNtB7_4Auth15get_auth_header0Bd_
FN:24,_RNvMNtNtNtCsjhmHPBDWNUU_9fastskill4core8registry4authNtB2_9GitHubPat3new
FN:80,_RNvMs0_NtNtNtCsjhmHPBDWNUU_9fastskill4core8registry4authNtB5_6ApiKey3new
FN:53,_RNvMs_NtNtNtCsjhmHPBDWNUU_9fastskill4core8registry4authNtB4_6SshKey3new
FN:42,_RNvXs1_NtNtNtCsjhmHPBDWNUU_9fastskill4core8registry4authNtB5_9GitHubPatNtB5_4Auth13is_configured
FN:32,_RNvXs1_NtNtNtCsjhmHPBDWNUU_9fastskill4core8registry4authNtB5_9GitHubPatNtB5_4Auth15get_auth_header
FN:68,_RNvXs2_NtNtNtCsjhmHPBDWNUU_9fastskill4core8registry4authNtB5_6SshKeyNtB5_4Auth13is_configured
FN:60,_RNvXs2_NtNtNtCsjhmHPBDWNUU_9fastskill4core8registry4authNtB5_6SshKeyNtB5_4Auth15get_auth_header
FN:103,_RNvXs3_NtNtNtCsjhmHPBDWNUU_9fastskill4core8registry4authNtB5_6ApiKeyNtB5_4Auth13is_configured
FN:88,_RNvXs3_NtNtNtCsjhmHPBDWNUU_9fastskill4core8registry4authNtB5_6ApiKeyNtB5_4Auth15get_auth_header
FNDA:0,_RNCNvXs1_NtNtNtCs26lDL6qRPME_9fastskill4core8registry4authNtB7_9GitHubPatNtB7_4Auth15get_auth_header0Bd_
FNDA:2,_RNvMNtNtNtCs26lDL6qRPME_9fastskill4core8registry4authNtB2_9GitHubPat3new
FNDA:0,_RNvMs0_NtNtNtCs26lDL6qRPME_9fastskill4core8registry4authNtB5_6ApiKey3new
FNDA:0,_RNvMs_NtNtNtCs26lDL6qRPME_9fastskill4core8registry4authNtB4_6SshKey3new
FNDA:1,_RNvXs1_NtNtNtCs26lDL6qRPME_9fastskill4core8registry4authNtB5_9GitHubPatNtB5_4Auth13is_configured
FNDA:1,_RNvXs1_NtNtNtCs26lDL6qRPME_9fastskill4core8registry4authNtB5_9GitHubPatNtB5_4Auth15get_auth_header
FNDA:0,_RNvXs2_NtNtNtCs26lDL6qRPME_9fastskill4core8registry4authNtB5_6SshKeyNtB5_4Auth13is_configured
FNDA:0,_RNvXs2_NtNtNtCs26lDL6qRPME_9fastskill4core8registry4authNtB5_6SshKeyNtB5_4Auth15get_auth_header
FNDA:0,_RNvXs3_NtNtNtCs26lDL6qRPME_9fastskill4core8registry4authNtB5_6ApiKeyNtB5_4Auth13is_configured
FNDA:0,_RNvXs3_NtNtNtCs26lDL6qRPME_9fastskill4core8registry4authNtB5_6ApiKeyNtB5_4Auth15get_auth_header
FNDA:0,_RNCNvXs1_NtNtNtCsjhmHPBDWNUU_9fastskill4core8registry4authNtB7_9GitHubPatNtB7_4Auth15get_auth_header0Bd_
FNDA:0,_RNvMNtNtNtCsjhmHPBDWNUU_9fastskill4core8registry4authNtB2_9GitHubPat3new
FNDA:0,_RNvMs0_NtNtNtCsjhmHPBDWNUU_9fastskill4core8registry4authNtB5_6ApiKey3new
FNDA:0,_RNvMs_NtNtNtCsjhmHPBDWNUU_9fastskill4core8registry4authNtB4_6SshKey3new
FNDA:0,_RNvXs1_NtNtNtCsjhmHPBDWNUU_9fastskill4core8registry4authNtB5_9GitHubPatNtB5_4Auth13is_configured
FNDA:0,_RNvXs1_NtNtNtCsjhmHPBDWNUU_9fastskill4core8registry4authNtB5_9GitHubPatNtB5_4Auth15get_auth_header
FNDA:0,_RNvXs2_NtNtNtCsjhmHPBDWNUU_9fastskill4core8registry4authNtB5_6SshKeyNtB5_4Auth13is_configured
FNDA:0,_RNvXs2_NtNtNtCsjhmHPBDWNUU_9fastskill4core8registry4authNtB5_6SshKeyNtB5_4Auth15get_auth_header
FNDA:0,_RNvXs3_NtNtNtCsjhmHPBDWNUU_9fastskill4core8registry4authNtB5_6ApiKeyNtB5_4Auth13is_configured
FNDA:0,_RNvXs3_NtNtNtCsjhmHPBDWNUU_9fastskill4core8registry4authNtB5_6ApiKeyNtB5_4Auth15get_auth_header
FNF:10
FNH:3
DA:24,2
DA:25,2
DA:26,2
DA:27,2
DA:32,1
DA:33,1
DA:34,0
DA:35,0
DA:36,0
DA:37,0
DA:38,0
DA:39,1
DA:40,1
DA:42,1
DA:43,1
DA:44,1
DA:53,0
DA:54,0
DA:55,0
DA:60,0
DA:63,0
DA:64,0
DA:65,0
DA:66,0
DA:68,0
DA:69,0
DA:70,0
DA:80,0
DA:81,0
DA:82,0
DA:83,0
DA:88,0
DA:89,0
DA:90,0
DA:91,0
DA:93,0
DA:95,0
DA:96,0
DA:97,0
DA:98,0
DA:100,0
DA:101,0
DA:103,0
DA:104,0
DA:105,0
BRF:0
BRH:0
LF:47
LH:11
end_of_record
SF:/home/sysuser/ws001/gofastskill/fastskill/src/core/registry/client.rs
FN:199,_RNCNCNCNvMNtNtNtCs26lDL6qRPME_9fastskill4core8registry6clientNtB8_14RegistryClient18get_latest_version0s_00Be_
FN:184,_RNCNCNvMNtNtNtCs26lDL6qRPME_9fastskill4core8registry6clientNtB6_14RegistryClient18get_latest_version00Bc_
FN:209,_RNCNCNvMNtNtNtCs26lDL6qRPME_9fastskill4core8registry6clientNtB6_14RegistryClient18get_latest_version0s0_0Bc_
FN:197,_RNCNCNvMNtNtNtCs26lDL6qRPME_9fastskill4core8registry6clientNtB6_14RegistryClient18get_latest_version0s_0Bc_
FN:171,_RNCNvMNtNtNtCs26lDL6qRPME_9fastskill4core8registry6clientNtB4_14RegistryClient18get_latest_version0Ba_
FN:215,_RNvMNtNtNtCs26lDL6qRPME_9fastskill4core8registry6clientNtB2_14RegistryClient11get_version
FN:154,_RNvMNtNtNtCs26lDL6qRPME_9fastskill4core8registry6clientNtB2_14RegistryClient12get_versions
FN:73,_RNvMNtNtNtCs26lDL6qRPME_9fastskill4core8registry6clientNtB2_14RegistryClient13get_index_url
FN:143,_RNvMNtNtNtCs26lDL6qRPME_9fastskill4core8registry6clientNtB2_14RegistryClient15get_index_entry
FN:167,_RNvMNtNtNtCs26lDL6qRPME_9fastskill4core8registry6clientNtB2_14RegistryClient18get_latest_version
FN:42,_RNvMNtNtNtCs26lDL6qRPME_9fastskill4core8registry6clientNtB2_14RegistryClient3new
FN:280,_RNvMNtNtNtCs26lDL6qRPME_9fastskill4core8registry6clientNtB2_14RegistryClient6search
FN:224,_RNvMNtNtNtCs26lDL6qRPME_9fastskill4core8registry6clientNtB2_14RegistryClient8download
FN:85,_RNvMNtNtNtCs26lDL6qRPME_9fastskill4core8registry6clientNtB2_14RegistryClient9get_skill
FN:156,_RNCNCNvMNtNtNtCs26lDL6qRPME_9fastskill4core8registry6clientNtB6_14RegistryClient12get_versions00Bc_
FN:158,_RNCNCNvMNtNtNtCs26lDL6qRPME_9fastskill4core8registry6clientNtB6_14RegistryClient12get_versions0s_0Bc_
FN:150,_RNCNCNvMNtNtNtCs26lDL6qRPME_9fastskill4core8registry6clientNtB6_14RegistryClient15get_index_entry00Bc_
FN:225,_RNCNCNvMNtNtNtCs26lDL6qRPME_9fastskill4core8registry6clientNtB6_14RegistryClient8download00Bc_
FN:265,_RNCNCNvMNtNtNtCs26lDL6qRPME_9fastskill4core8registry6clientNtB6_14RegistryClient8download0s0_0Bc_
FN:253,_RNCNCNvMNtNtNtCs26lDL6qRPME_9fastskill4core8registry6clientNtB6_14RegistryClient8download0s_0Bc_
FN:102,_RNCNCNvMNtNtNtCs26lDL6qRPME_9fastskill4core8registry6clientNtB6_14RegistryClient9get_skill00Bc_
FN:117,_RNCNCNvMNtNtNtCs26lDL6qRPME_9fastskill4core8registry6clientNtB6_14RegistryClient9get_skill0s_0Bc_
FN:219,_RNCNvMNtNtNtCs26lDL6qRPME_9fastskill4core8registry6clientNtB4_14RegistryClient11get_version0Ba_
FN:154,_RNCNvMNtNtNtCs26lDL6qRPME_9fastskill4core8registry6clientNtB4_14RegistryClient12get_versions0Ba_
FN:147,_RNCNvMNtNtNtCs26lDL6qRPME_9fastskill4core8registry6clientNtB4_14RegistryClient15get_index_entry0Ba_
FN:46,_RNCNvMNtNtNtCs26lDL6qRPME_9fastskill4core8registry6clientNtB4_14RegistryClient3new0Ba_
FN:280,_RNCNvMNtNtNtCs26lDL6qRPME_9fastskill4core8registry6clientNtB4_14RegistryClient6search0Ba_
FN:224,_RNCNvMNtNtNtCs26lDL6qRPME_9fastskill4core8registry6clientNtB4_14RegistryClient8download0Ba_
FN:85,_RNCNvMNtNtNtCs26lDL6qRPME_9fastskill4core8registry6clientNtB4_14RegistryClient9get_skill0Ba_
FN:199,_RNCNCNCNvMNtNtNtCsjhmHPBDWNUU_9fastskill4core8registry6clientNtB8_14RegistryClient18get_latest_version0s_00Be_
FN:184,_RNCNCNvMNtNtNtCsjhmHPBDWNUU_9fastskill4core8registry6clientNtB6_14RegistryClient18get_latest_version00Bc_
FN:209,_RNCNCNvMNtNtNtCsjhmHPBDWNUU_9fastskill4core8registry6clientNtB6_14RegistryClient18get_latest_version0s0_0Bc_
FN:197,_RNCNCNvMNtNtNtCsjhmHPBDWNUU_9fastskill4core8registry6clientNtB6_14RegistryClient18get_latest_version0s_0Bc_
FN:171,_RNCNvMNtNtNtCsjhmHPBDWNUU_9fastskill4core8registry6clientNtB4_14RegistryClient18get_latest_version0Ba_
FN:167,_RNvMNtNtNtCsjhmHPBDWNUU_9fastskill4core8registry6clientNtB2_14RegistryClient18get_latest_version
FN:156,_RNCNCNvMNtNtNtCsjhmHPBDWNUU_9fastskill4core8registry6clientNtB6_14RegistryClient12get_versions00Bc_
FN:158,_RNCNCNvMNtNtNtCsjhmHPBDWNUU_9fastskill4core8registry6clientNtB6_14RegistryClient12get_versions0s_0Bc_
FN:150,_RNCNCNvMNtNtNtCsjhmHPBDWNUU_9fastskill4core8registry6clientNtB6_14RegistryClient15get_index_entry00Bc_
FN:225,_RNCNCNvMNtNtNtCsjhmHPBDWNUU_9fastskill4core8registry6clientNtB6_14RegistryClient8download00Bc_
FN:265,_RNCNCNvMNtNtNtCsjhmHPBDWNUU_9fastskill4core8registry6clientNtB6_14RegistryClient8download0s0_0Bc_
FN:253,_RNCNCNvMNtNtNtCsjhmHPBDWNUU_9fastskill4core8registry6clientNtB6_14RegistryClient8download0s_0Bc_
FN:102,_RNCNCNvMNtNtNtCsjhmHPBDWNUU_9fastskill4core8registry6clientNtB6_14RegistryClient9get_skill00Bc_
FN:117,_RNCNCNvMNtNtNtCsjhmHPBDWNUU_9fastskill4core8registry6clientNtB6_14RegistryClient9get_skill0s_0Bc_
FN:219,_RNCNvMNtNtNtCsjhmHPBDWNUU_9fastskill4core8registry6clientNtB4_14RegistryClient11get_version0Ba_
FN:154,_RNCNvMNtNtNtCsjhmHPBDWNUU_9fastskill4core8registry6clientNtB4_14RegistryClient12get_versions0Ba_
FN:147,_RNCNvMNtNtNtCsjhmHPBDWNUU_9fastskill4core8registry6clientNtB4_14RegistryClient15get_index_entry0Ba_
FN:46,_RNCNvMNtNtNtCsjhmHPBDWNUU_9fastskill4core8registry6clientNtB4_14RegistryClient3new0Ba_
FN:280,_RNCNvMNtNtNtCsjhmHPBDWNUU_9fastskill4core8registry6clientNtB4_14RegistryClient6search0Ba_
FN:224,_RNCNvMNtNtNtCsjhmHPBDWNUU_9fastskill4core8registry6clientNtB4_14RegistryClient8download0Ba_
FN:85,_RNCNvMNtNtNtCsjhmHPBDWNUU_9fastskill4core8registry6clientNtB4_14RegistryClient9get_skill0Ba_
FN:215,_RNvMNtNtNtCsjhmHPBDWNUU_9fastskill4core8registry6clientNtB2_14RegistryClient11get_version
FN:154,_RNvMNtNtNtCsjhmHPBDWNUU_9fastskill4core8registry6clientNtB2_14RegistryClient12get_versions
FN:73,_RNvMNtNtNtCsjhmHPBDWNUU_9fastskill4core8registry6clientNtB2_14RegistryClient13get_index_url
FN:143,_RNvMNtNtNtCsjhmHPBDWNUU_9fastskill4core8registry6clientNtB2_14RegistryClient15get_index_entry
FN:42,_RNvMNtNtNtCsjhmHPBDWNUU_9fastskill4core8registry6clientNtB2_14RegistryClient3new
FN:280,_RNvMNtNtNtCsjhmHPBDWNUU_9fastskill4core8registry6clientNtB2_14RegistryClient6search
FN:224,_RNvMNtNtNtCsjhmHPBDWNUU_9fastskill4core8registry6clientNtB2_14RegistryClient8download
FN:85,_RNvMNtNtNtCsjhmHPBDWNUU_9fastskill4core8registry6clientNtB2_14RegistryClient9get_skill
FNDA:0,_RNCNCNCNvMNtNtNtCs26lDL6qRPME_9fastskill4core8registry6clientNtB8_14RegistryClient18get_latest_version0s_00Be_
FNDA:0,_RNCNCNvMNtNtNtCs26lDL6qRPME_9fastskill4core8registry6clientNtB6_14RegistryClient18get_latest_version00Bc_
FNDA:0,_RNCNCNvMNtNtNtCs26lDL6qRPME_9fastskill4core8registry6clientNtB6_14RegistryClient18get_latest_version0s0_0Bc_
FNDA:0,_RNCNCNvMNtNtNtCs26lDL6qRPME_9fastskill4core8registry6clientNtB6_14RegistryClient18get_latest_version0s_0Bc_
FNDA:0,_RNCNvMNtNtNtCs26lDL6qRPME_9fastskill4core8registry6clientNtB4_14RegistryClient18get_latest_version0Ba_
FNDA:0,_RNvMNtNtNtCs26lDL6qRPME_9fastskill4core8registry6clientNtB2_14RegistryClient11get_version
FNDA:0,_RNvMNtNtNtCs26lDL6qRPME_9fastskill4core8registry6clientNtB2_14RegistryClient12get_versions
FNDA:0,_RNvMNtNtNtCs26lDL6qRPME_9fastskill4core8registry6clientNtB2_14RegistryClient13get_index_url
FNDA:0,_RNvMNtNtNtCs26lDL6qRPME_9fastskill4core8registry6clientNtB2_14RegistryClient15get_index_entry
FNDA:0,_RNvMNtNtNtCs26lDL6qRPME_9fastskill4core8registry6clientNtB2_14RegistryClient18get_latest_version
FNDA:13,_RNvMNtNtNtCs26lDL6qRPME_9fastskill4core8registry6clientNtB2_14RegistryClient3new
FNDA:0,_RNvMNtNtNtCs26lDL6qRPME_9fastskill4core8registry6clientNtB2_14RegistryClient6search
FNDA:0,_RNvMNtNtNtCs26lDL6qRPME_9fastskill4core8registry6clientNtB2_14RegistryClient8download
FNDA:0,_RNvMNtNtNtCs26lDL6qRPME_9fastskill4core8registry6clientNtB2_14RegistryClient9get_skill
FNDA:0,_RNCNCNvMNtNtNtCs26lDL6qRPME_9fastskill4core8registry6clientNtB6_14RegistryClient12get_versions00Bc_
FNDA:0,_RNCNCNvMNtNtNtCs26lDL6qRPME_9fastskill4core8registry6clientNtB6_14RegistryClient12get_versions0s_0Bc_
FNDA:0,_RNCNCNvMNtNtNtCs26lDL6qRPME_9fastskill4core8registry6clientNtB6_14RegistryClient15get_index_entry00Bc_
FNDA:0,_RNCNCNvMNtNtNtCs26lDL6qRPME_9fastskill4core8registry6clientNtB6_14RegistryClient8download00Bc_
FNDA:0,_RNCNCNvMNtNtNtCs26lDL6qRPME_9fastskill4core8registry6clientNtB6_14RegistryClient8download0s0_0Bc_
FNDA:0,_RNCNCNvMNtNtNtCs26lDL6qRPME_9fastskill4core8registry6clientNtB6_14RegistryClient8download0s_0Bc_
FNDA:0,_RNCNCNvMNtNtNtCs26lDL6qRPME_9fastskill4core8registry6clientNtB6_14RegistryClient9get_skill00Bc_
FNDA:0,_RNCNCNvMNtNtNtCs26lDL6qRPME_9fastskill4core8registry6clientNtB6_14RegistryClient9get_skill0s_0Bc_
FNDA:0,_RNCNvMNtNtNtCs26lDL6qRPME_9fastskill4core8registry6clientNtB4_14RegistryClient11get_version0Ba_
FNDA:0,_RNCNvMNtNtNtCs26lDL6qRPME_9fastskill4core8registry6clientNtB4_14RegistryClient12get_versions0Ba_
FNDA:0,_RNCNvMNtNtNtCs26lDL6qRPME_9fastskill4core8registry6clientNtB4_14RegistryClient15get_index_entry0Ba_
FNDA:0,_RNCNvMNtNtNtCs26lDL6qRPME_9fastskill4core8registry6clientNtB4_14RegistryClient3new0Ba_
FNDA:0,_RNCNvMNtNtNtCs26lDL6qRPME_9fastskill4core8registry6clientNtB4_14RegistryClient6search0Ba_
FNDA:0,_RNCNvMNtNtNtCs26lDL6qRPME_9fastskill4core8registry6clientNtB4_14RegistryClient8download0Ba_
FNDA:0,_RNCNvMNtNtNtCs26lDL6qRPME_9fastskill4core8registry6clientNtB4_14RegistryClient9get_skill0Ba_
FNDA:0,_RNCNCNCNvMNtNtNtCsjhmHPBDWNUU_9fastskill4core8registry6clientNtB8_14RegistryClient18get_latest_version0s_00Be_
FNDA:0,_RNCNCNvMNtNtNtCsjhmHPBDWNUU_9fastskill4core8registry6clientNtB6_14RegistryClient18get_latest_version00Bc_
FNDA:0,_RNCNCNvMNtNtNtCsjhmHPBDWNUU_9fastskill4core8registry6clientNtB6_14RegistryClient18get_latest_version0s0_0Bc_
FNDA:0,_RNCNCNvMNtNtNtCsjhmHPBDWNUU_9fastskill4core8registry6clientNtB6_14RegistryClient18get_latest_version0s_0Bc_
FNDA:0,_RNCNvMNtNtNtCsjhmHPBDWNUU_9fastskill4core8registry6clientNtB4_14RegistryClient18get_latest_version0Ba_
FNDA:0,_RNvMNtNtNtCsjhmHPBDWNUU_9fastskill4core8registry6clientNtB2_14RegistryClient18get_latest_version
FNDA:0,_RNCNCNvMNtNtNtCsjhmHPBDWNUU_9fastskill4core8registry6clientNtB6_14RegistryClient12get_versions00Bc_
FNDA:0,_RNCNCNvMNtNtNtCsjhmHPBDWNUU_9fastskill4core8registry6clientNtB6_14RegistryClient12get_versions0s_0Bc_
FNDA:0,_RNCNCNvMNtNtNtCsjhmHPBDWNUU_9fastskill4core8registry6clientNtB6_14RegistryClient15get_index_entry00Bc_
FNDA:0,_RNCNCNvMNtNtNtCsjhmHPBDWNUU_9fastskill4core8registry6clientNtB6_14RegistryClient8download00Bc_
FNDA:0,_RNCNCNvMNtNtNtCsjhmHPBDWNUU_9fastskill4core8registry6clientNtB6_14RegistryClient8download0s0_0Bc_
FNDA:0,_RNCNCNvMNtNtNtCsjhmHPBDWNUU_9fastskill4core8registry6clientNtB6_14RegistryClient8download0s_0Bc_
FNDA:0,_RNCNCNvMNtNtNtCsjhmHPBDWNUU_9fastskill4core8registry6clientNtB6_14RegistryClient9get_skill00Bc_
FNDA:0,_RNCNCNvMNtNtNtCsjhmHPBDWNUU_9fastskill4core8registry6clientNtB6_14RegistryClient9get_skill0s_0Bc_
FNDA:0,_RNCNvMNtNtNtCsjhmHPBDWNUU_9fastskill4core8registry6clientNtB4_14RegistryClient11get_version0Ba_
FNDA:0,_RNCNvMNtNtNtCsjhmHPBDWNUU_9fastskill4core8registry6clientNtB4_14RegistryClient12get_versions0Ba_
FNDA:0,_RNCNvMNtNtNtCsjhmHPBDWNUU_9fastskill4core8registry6clientNtB4_14RegistryClient15get_index_entry0Ba_
FNDA:0,_RNCNvMNtNtNtCsjhmHPBDWNUU_9fastskill4core8registry6clientNtB4_14RegistryClient3new0Ba_
FNDA:0,_RNCNvMNtNtNtCsjhmHPBDWNUU_9fastskill4core8registry6clientNtB4_14RegistryClient6search0Ba_
FNDA:0,_RNCNvMNtNtNtCsjhmHPBDWNUU_9fastskill4core8registry6clientNtB4_14RegistryClient8download0Ba_
FNDA:0,_RNCNvMNtNtNtCsjhmHPBDWNUU_9fastskill4core8registry6clientNtB4_14RegistryClient9get_skill0Ba_
FNDA:0,_RNvMNtNtNtCsjhmHPBDWNUU_9fastskill4core8registry6clientNtB2_14RegistryClient11get_version
FNDA:0,_RNvMNtNtNtCsjhmHPBDWNUU_9fastskill4core8registry6clientNtB2_14RegistryClient12get_versions
FNDA:0,_RNvMNtNtNtCsjhmHPBDWNUU_9fastskill4core8registry6clientNtB2_14RegistryClient13get_index_url
FNDA:0,_RNvMNtNtNtCsjhmHPBDWNUU_9fastskill4core8registry6clientNtB2_14RegistryClient15get_index_entry
FNDA:0,_RNvMNtNtNtCsjhmHPBDWNUU_9fastskill4core8registry6clientNtB2_14RegistryClient3new
FNDA:0,_RNvMNtNtNtCsjhmHPBDWNUU_9fastskill4core8registry6clientNtB2_14RegistryClient6search
FNDA:0,_RNvMNtNtNtCsjhmHPBDWNUU_9fastskill4core8registry6clientNtB2_14RegistryClient8download
FNDA:0,_RNvMNtNtNtCsjhmHPBDWNUU_9fastskill4core8registry6clientNtB2_14RegistryClient9get_skill
FNF:29
FNH:1
DA:42,13
DA:43,13
DA:44,13
DA:45,13
DA:46,13
DA:49,13
DA:50,1
DA:51,1
DA:52,1
DA:53,1
DA:54,0
DA:55,0
DA:56,0
DA:57,0
DA:58,0
DA:59,0
DA:62,12
DA:65,13
DA:66,13
DA:67,13
DA:68,13
DA:69,13
DA:70,13
DA:73,0
DA:76,0
DA:78,0
DA:81,0
DA:85,0
DA:86,0
DA:88,0
DA:91,0
DA:92,0
DA:93,0
DA:94,0
DA:95,0
DA:96,0
DA:97,0
DA:99,0
DA:100,0
DA:101,0
DA:102,0
DA:104,0
DA:105,0
DA:106,0
DA:107,0
DA:108,0
DA:109,0
DA:110,0
DA:111,0
DA:112,0
DA:114,0
DA:115,0
DA:116,0
DA:117,0
DA:120,0
DA:121,0
DA:122,0
DA:123,0
DA:124,0
DA:125,0
DA:127,0
DA:128,0
DA:129,0
DA:130,0
DA:131,0
DA:132,0
DA:133,0
DA:134,0
DA:135,0
DA:139,0
DA:140,0
DA:143,0
DA:144,0
DA:145,0
DA:146,0
DA:147,0
DA:149,0
DA:150,0
DA:151,0
DA:154,0
DA:155,0
DA:156,0
DA:158,0
DA:161,0
DA:162,0
DA:163,0
DA:164,0
DA:167,0
DA:168,0
DA:169,0
DA:170,0
DA:171,0
DA:172,0
DA:174,0
DA:175,0
DA:176,0
DA:179,0
DA:180,0
DA:182,0
DA:183,0
DA:184,0
DA:185,0
DA:188,0
DA:190,0
DA:191,0
DA:195,0
DA:196,0
DA:197,0
DA:199,0
DA:200,0
DA:201,0
DA:203,0
DA:205,0
DA:206,0
DA:209,0
DA:211,0
DA:212,0
DA:215,0
DA:216,0
DA:217,0
DA:218,0
DA:219,0
DA:220,0
DA:221,0
DA:224,0
DA:225,0
DA:226,0
DA:227,0
DA:228,0
DA:229,0
DA:230,0
DA:232,0
DA:233,0
DA:234,0
DA:235,0
DA:236,0
DA:237,0
DA:239,0
DA:242,0
DA:243,0
DA:244,0
DA:245,0
DA:246,0
DA:247,0
DA:248,0
DA:250,0
DA:251,0
DA:252,0
DA:253,0
DA:255,0
DA:256,0
DA:257,0
DA:258,0
DA:259,0
DA:260,0
DA:262,0
DA:263,0
DA:264,0
DA:265,0
DA:268,0
DA:269,0
DA:270,0
DA:271,0
DA:272,0
DA:273,0
DA:274,0
DA:276,0
DA:277,0
DA:280,0
DA:284,0
DA:285,0
BRF:0
BRH:0
LF:192
LH:17
end_of_record
SF:/home/sysuser/ws001/gofastskill/fastskill/src/core/registry/config.rs
FN:132,_RNvMNtNtNtCs26lDL6qRPME_9fastskill4core8registry6configNtB2_21RegistryConfigManager12get_registry
FN:162,_RNvMNtNtNtCs26lDL6qRPME_9fastskill4core8registry6configNtB2_21RegistryConfigManager15list_registries
FN:112,_RNvMNtNtNtCs26lDL6qRPME_9fastskill4core8registry6configNtB2_21RegistryConfigManager20get_default_registry
FN:83,_RNvMNtNtNtCs26lDL6qRPME_9fastskill4core8registry6configNtB2_21RegistryConfigManager3new
FN:91,_RNvMNtNtNtCs26lDL6qRPME_9fastskill4core8registry6configNtB2_21RegistryConfigManager4load
FN:136,_RNCNvMNtNtNtCs26lDL6qRPME_9fastskill4core8registry6configNtB4_21RegistryConfigManager12get_registry0Ba_
FN:166,_RNCNvMNtNtNtCs26lDL6qRPME_9fastskill4core8registry6configNtB4_21RegistryConfigManager15list_registries0Ba_
FN:116,_RNCNvMNtNtNtCs26lDL6qRPME_9fastskill4core8registry6configNtB4_21RegistryConfigManager20get_default_registry0Ba_
FN:103,_RNCNvMNtNtNtCs26lDL6qRPME_9fastskill4core8registry6configNtB4_21RegistryConfigManager4load0Ba_
FN:166,_RNCNvMNtNtNtCsjhmHPBDWNUU_9fastskill4core8registry6configNtB4_21RegistryConfigManager15list_registries0Ba_
FN:162,_RNvMNtNtNtCsjhmHPBDWNUU_9fastskill4core8registry6configNtB2_21RegistryConfigManager15list_registries
FN:136,_RNCNvMNtNtNtCsjhmHPBDWNUU_9fastskill4core8registry6configNtB4_21RegistryConfigManager12get_registry0Ba_
FN:116,_RNCNvMNtNtNtCsjhmHPBDWNUU_9fastskill4core8registry6configNtB4_21RegistryConfigManager20get_default_registry0Ba_
FN:103,_RNCNvMNtNtNtCsjhmHPBDWNUU_9fastskill4core8registry6configNtB4_21RegistryConfigManager4load0Ba_
FN:189,_RNvNtNtNtNtCsjhmHPBDWNUU_9fastskill4core8registry6config5testss_25test_load_registry_config
FN:132,_RNvMNtNtNtCsjhmHPBDWNUU_9fastskill4core8registry6configNtB2_21RegistryConfigManager12get_registry
FN:112,_RNvMNtNtNtCsjhmHPBDWNUU_9fastskill4core8registry6configNtB2_21RegistryConfigManager20get_default_registry
FN:83,_RNvMNtNtNtCsjhmHPBDWNUU_9fastskill4core8registry6configNtB2_21RegistryConfigManager3new
FN:91,_RNvMNtNtNtCsjhmHPBDWNUU_9fastskill4core8registry6configNtB2_21RegistryConfigManager4load
FNDA:0,_RNvMNtNtNtCs26lDL6qRPME_9fastskill4core8registry6configNtB2_21RegistryConfigManager12get_registry
FNDA:0,_RNvMNtNtNtCs26lDL6qRPME_9fastskill4core8registry6configNtB2_21RegistryConfigManager15list_registries
FNDA:0,_RNvMNtNtNtCs26lDL6qRPME_9fastskill4core8registry6configNtB2_21RegistryConfigManager20get_default_registry
FNDA:0,_RNvMNtNtNtCs26lDL6qRPME_9fastskill4core8registry6configNtB2_21RegistryConfigManager3new
FNDA:0,_RNvMNtNtNtCs26lDL6qRPME_9fastskill4core8registry6configNtB2_21RegistryConfigManager4load
FNDA:0,_RNCNvMNtNtNtCs26lDL6qRPME_9fastskill4core8registry6configNtB4_21RegistryConfigManager12get_registry0Ba_
FNDA:0,_RNCNvMNtNtNtCs26lDL6qRPME_9fastskill4core8registry6configNtB4_21RegistryConfigManager15list_registries0Ba_
FNDA:0,_RNCNvMNtNtNtCs26lDL6qRPME_9fastskill4core8registry6configNtB4_21RegistryConfigManager20get_default_registry0Ba_
FNDA:0,_RNCNvMNtNtNtCs26lDL6qRPME_9fastskill4core8registry6configNtB4_21RegistryConfigManager4load0Ba_
FNDA:0,_RNCNvMNtNtNtCsjhmHPBDWNUU_9fastskill4core8registry6configNtB4_21RegistryConfigManager15list_registries0Ba_
FNDA:0,_RNvMNtNtNtCsjhmHPBDWNUU_9fastskill4core8registry6configNtB2_21RegistryConfigManager15list_registries
FNDA:0,_RNCNvMNtNtNtCsjhmHPBDWNUU_9fastskill4core8registry6configNtB4_21RegistryConfigManager12get_registry0Ba_
FNDA:0,_RNCNvMNtNtNtCsjhmHPBDWNUU_9fastskill4core8registry6configNtB4_21RegistryConfigManager20get_default_registry0Ba_
FNDA:0,_RNCNvMNtNtNtCsjhmHPBDWNUU_9fastskill4core8registry6configNtB4_21RegistryConfigManager4load0Ba_
FNDA:1,_RNvNtNtNtNtCsjhmHPBDWNUU_9fastskill4core8registry6config5testss_25test_load_registry_config
FNDA:1,_RNvMNtNtNtCsjhmHPBDWNUU_9fastskill4core8registry6configNtB2_21RegistryConfigManager12get_registry
FNDA:1,_RNvMNtNtNtCsjhmHPBDWNUU_9fastskill4core8registry6configNtB2_21RegistryConfigManager20get_default_registry
FNDA:1,_RNvMNtNtNtCsjhmHPBDWNUU_9fastskill4core8registry6configNtB2_21RegistryConfigManager3new
FNDA:1,_RNvMNtNtNtCsjhmHPBDWNUU_9fastskill4core8registry6configNtB2_21RegistryConfigManager4load
FNF:10
FNH:5
DA:83,1
DA:84,1
DA:85,1
DA:86,1
DA:87,1
DA:88,1
DA:91,1
DA:92,1
DA:94,0
DA:95,0
DA:96,0
DA:97,0
DA:98,0
DA:99,1
DA:101,1
DA:103,1
DA:104,0
DA:105,0
DA:107,1
DA:108,1
DA:109,1
DA:112,1
DA:113,1
DA:114,1
DA:115,1
DA:116,1
DA:118,1
DA:119,1
DA:120,1
DA:121,1
DA:122,1
DA:123,1
DA:124,1
DA:125,1
DA:127,0
DA:129,1
DA:132,1
DA:133,1
DA:134,1
DA:135,1
DA:136,1
DA:139,1
DA:140,1
DA:141,0
DA:142,0
DA:143,0
DA:144,0
DA:145,0
DA:146,0
DA:147,0
DA:148,1
DA:149,0
DA:152,1
DA:153,1
DA:154,1
DA:155,0
DA:158,0
DA:159,1
DA:162,0
DA:163,0
DA:164,0
DA:165,0
DA:166,0
DA:168,0
DA:170,0
DA:171,0
DA:172,0
DA:174,0
DA:175,0
DA:176,0
DA:178,0
DA:179,0
DA:189,1
DA:190,1
DA:191,1
DA:193,1
DA:194,1
DA:195,1
DA:196,1
DA:197,1
DA:198,1
DA:199,1
DA:200,1
DA:201,1
DA:202,1
DA:203,1
DA:205,1
DA:207,1
DA:208,1
DA:210,1
DA:211,1
DA:212,1
DA:214,1
DA:215,1
DA:216,1
DA:217,1
BRF:0
BRH:0
LF:101
LH:64
end_of_record
SF:/home/sysuser/ws001/gofastskill/fastskill/src/core/registry/index_manager.rs
FN:173,_RNvXNvMNtNtNtCs26lDL6qRPME_9fastskill4core8registry13index_managerNtB5_12IndexManager13atomic_updateNtB2_9LockGuardNtNtNtCsiJueO4bndGx_4core3ops4drop4Drop4drop
FN:72,_RNvMNtNtNtCs26lDL6qRPME_9fastskill4core8registry13index_managerNtB2_12IndexManager13atomic_update
FN:361,_RNvMNtNtNtCs26lDL6qRPME_9fastskill4core8registry13index_managerNtB2_12IndexManager22read_entries_from_path
FN:40,_RNvMNtNtNtCs26lDL6qRPME_9fastskill4core8registry13index_managerNtB2_12IndexManager3new
FN:183,_RNCNvMNtNtNtCs26lDL6qRPME_9fastskill4core8registry13index_managerNtB4_12IndexManager13atomic_update0Ba_
FN:291,_RNCNvMNtNtNtCs26lDL6qRPME_9fastskill4core8registry13index_managerNtB4_12IndexManager13atomic_updates0_0Ba_
FN:339,_RNCNvMNtNtNtCs26lDL6qRPME_9fastskill4core8registry13index_managerNtB4_12IndexManager13atomic_updates1_0Ba_
FN:224,_RNCNvMNtNtNtCs26lDL6qRPME_9fastskill4core8registry13index_managerNtB4_12IndexManager13atomic_updates_0Ba_
FN:72,_RNvMNtNtNtCsjhmHPBDWNUU_9fastskill4core8registry13index_managerNtB2_12IndexManager13atomic_update
FN:361,_RNvMNtNtNtCsjhmHPBDWNUU_9fastskill4core8registry13index_managerNtB2_12IndexManager22read_entries_from_path
FN:40,_RNvMNtNtNtCsjhmHPBDWNUU_9fastskill4core8registry13index_managerNtB2_12IndexManager3new
FN:173,_RNvXNvMNtNtNtCsjhmHPBDWNUU_9fastskill4core8registry13index_managerNtB5_12IndexManager13atomic_updateNtB2_9LockGuardNtNtNtCsiJueO4bndGx_4core3ops4drop4Drop4drop
FN:183,_RNCNvMNtNtNtCsjhmHPBDWNUU_9fastskill4core8registry13index_managerNtB4_12IndexManager13atomic_update0Ba_
FN:291,_RNCNvMNtNtNtCsjhmHPBDWNUU_9fastskill4core8registry13index_managerNtB4_12IndexManager13atomic_updates0_0Ba_
FN:339,_RNCNvMNtNtNtCsjhmHPBDWNUU_9fastskill4core8registry13index_managerNtB4_12IndexManager13atomic_updates1_0Ba_
FN:224,_RNCNvMNtNtNtCsjhmHPBDWNUU_9fastskill4core8registry13index_managerNtB4_12IndexManager13atomic_updates_0Ba_
FNDA:132,_RNvXNvMNtNtNtCs26lDL6qRPME_9fastskill4core8registry13index_managerNtB5_12IndexManager13atomic_updateNtB2_9LockGuardNtNtNtCsiJueO4bndGx_4core3ops4drop4Drop4drop
FNDA:133,_RNvMNtNtNtCs26lDL6qRPME_9fastskill4core8registry13index_managerNtB2_12IndexManager13atomic_update
FNDA:249,_RNvMNtNtNtCs26lDL6qRPME_9fastskill4core8registry13index_managerNtB2_12IndexManager22read_entries_from_path
FNDA:12,_RNvMNtNtNtCs26lDL6qRPME_9fastskill4core8registry13index_managerNtB2_12IndexManager3new
FNDA:0,_RNCNvMNtNtNtCs26lDL6qRPME_9fastskill4core8registry13index_managerNtB4_12IndexManager13atomic_update0Ba_
FNDA:0,_RNCNvMNtNtNtCs26lDL6qRPME_9fastskill4core8registry13index_managerNtB4_12IndexManager13atomic_updates0_0Ba_
FNDA:0,_RNCNvMNtNtNtCs26lDL6qRPME_9fastskill4core8registry13index_managerNtB4_12IndexManager13atomic_updates1_0Ba_
FNDA:0,_RNCNvMNtNtNtCs26lDL6qRPME_9fastskill4core8registry13index_managerNtB4_12IndexManager13atomic_updates_0Ba_
FNDA:0,_RNvMNtNtNtCsjhmHPBDWNUU_9fastskill4core8registry13index_managerNtB2_12IndexManager13atomic_update
FNDA:0,_RNvMNtNtNtCsjhmHPBDWNUU_9fastskill4core8registry13index_managerNtB2_12IndexManager22read_entries_from_path
FNDA:0,_RNvMNtNtNtCsjhmHPBDWNUU_9fastskill4core8registry13index_managerNtB2_12IndexManager3new
FNDA:0,_RNvXNvMNtNtNtCsjhmHPBDWNUU_9fastskill4core8registry13index_managerNtB5_12IndexManager13atomic_updateNtB2_9LockGuardNtNtNtCsiJueO4bndGx_4core3ops4drop4Drop4drop
FNDA:0,_RNCNvMNtNtNtCsjhmHPBDWNUU_9fastskill4core8registry13index_managerNtB4_12IndexManager13atomic_update0Ba_
FNDA:0,_RNCNvMNtNtNtCsjhmHPBDWNUU_9fastskill4core8registry13index_managerNtB4_12IndexManager13atomic_updates0_0Ba_
FNDA:0,_RNCNvMNtNtNtCsjhmHPBDWNUU_9fastskill4core8registry13index_managerNtB4_12IndexManager13atomic_updates1_0Ba_
FNDA:0,_RNCNvMNtNtNtCsjhmHPBDWNUU_9fastskill4core8registry13index_managerNtB4_12IndexManager13atomic_updates_0Ba_
FNF:8
FNH:4
DA:40,12
DA:41,12
DA:42,12
DA:43,12
DA:44,12
DA:45,12
DA:46,12
DA:72,133
DA:73,133
DA:74,133
DA:75,133
DA:76,133
DA:77,133
DA:79,133
DA:80,133
DA:83,133
DA:86,133
DA:87,133
DA:88,0
DA:92,133
DA:93,117
DA:95,16
DA:99,133
DA:100,101
DA:101,1
DA:102,1
DA:103,1
DA:104,1
DA:105,100
DA:109,132
DA:110,132
DA:111,223
DA:112,223
DA:113,223
DA:114,223
DA:115,223
DA:116,223
DA:117,223
DA:120,223
DA:122,132
DA:123,132
DA:124,19
DA:127,0
DA:130,113
DA:132,132
DA:134,91
DA:136,91
DA:137,91
DA:138,0
DA:141,0
DA:143,0
DA:144,0
DA:145,0
DA:146,0
DA:147,0
DA:148,91
DA:150,91
DA:151,0
DA:154,0
DA:155,0
DA:157,91
DA:159,91
DA:160,91
DA:162,0
DA:163,0
DA:164,0
DA:173,132
DA:174,132
DA:175,0
DA:176,132
DA:177,132
DA:179,132
DA:182,132
DA:183,132
DA:184,0
DA:185,0
DA:186,0
DA:187,0
DA:188,132
DA:189,119
DA:190,119
DA:191,119
DA:192,119
DA:193,119
DA:194,119
DA:196,119
DA:197,47
DA:199,72
DA:203,47
DA:205,0
DA:206,0
DA:209,13
DA:210,132
DA:211,0
DA:214,132
DA:215,132
DA:217,0
DA:221,132
DA:222,132
DA:223,132
DA:224,132
DA:225,0
DA:226,0
DA:227,0
DA:228,0
DA:229,0
DA:230,132
DA:231,132
DA:232,132
DA:233,132
DA:234,132
DA:235,132
DA:236,132
DA:237,0
DA:238,0
DA:239,0
DA:242,132
DA:243,0
DA:244,0
DA:248,0
DA:249,0
DA:250,0
DA:251,0
DA:252,0
DA:255,132
DA:259,0
DA:263,132
DA:266,132
DA:267,132
DA:268,132
DA:269,0
DA:271,0
DA:272,0
DA:273,0
DA:274,0
DA:276,0
DA:280,0
DA:281,0
DA:282,0
DA:283,0
DA:284,0
DA:285,0
DA:290,132
DA:291,132
DA:292,0
DA:293,0
DA:294,132
DA:296,0
DA:297,0
DA:298,0
DA:299,0
DA:301,0
DA:306,0
DA:307,0
DA:308,0
DA:309,0
DA:310,0
DA:311,0
DA:312,0
DA:313,132
DA:316,132
DA:318,0
DA:319,0
DA:320,0
DA:321,0
DA:323,0
DA:328,0
DA:329,0
DA:330,0
DA:331,0
DA:332,0
DA:333,0
DA:334,0
DA:335,132
DA:336,132
DA:339,132
DA:340,0
DA:345,0
DA:346,0
DA:347,0
DA:349,132
DA:353,0
DA:356,132
DA:357,133
DA:361,249
DA:364,249
DA:365,0
DA:366,249
DA:368,249
DA:369,249
DA:372,249
DA:373,101
DA:374,101
DA:375,0
DA:376,101
DA:378,101
DA:379,101
DA:380,0
DA:382,0
DA:387,249
DA:388,249
BRF:0
BRH:0
LF:209
LH:114
end_of_record
SF:/home/sysuser/ws001/gofastskill/fastskill/src/core/registry/staging.rs
FN:41,_RNvMNtNtNtCs26lDL6qRPME_9fastskill4core8registry7stagingNtB2_13StagingStatus6as_str
FN:64,_RNvMs_NtNtNtCs26lDL6qRPME_9fastskill4core8registry7stagingNtB4_14StagingManager10initialize
FN:167,_RNvMs_NtNtNtCs26lDL6qRPME_9fastskill4core8registry7stagingNtB4_14StagingManager13load_metadata
FN:80,_RNvMs_NtNtNtCs26lDL6qRPME_9fastskill4core8registry7stagingNtB4_14StagingManager13store_package
FN:192,_RNvMs_NtNtNtCs26lDL6qRPME_9fastskill4core8registry7stagingNtB4_14StagingManager13update_status
FN:235,_RNvMs_NtNtNtCs26lDL6qRPME_9fastskill4core8registry7stagingNtB4_14StagingManager16get_package_path
FN:71,_RNvMs_NtNtNtCs26lDL6qRPME_9fastskill4core8registry7stagingNtB4_14StagingManager16get_staging_path
FN:59,_RNvMs_NtNtNtCs26lDL6qRPME_9fastskill4core8registry7stagingNtB4_14StagingManager3new
FN:270,_RNvNtNtNtCs26lDL6qRPME_9fastskill4core8registry7staging13sanitize_path
FN:147,_RNCNCNvMs_NtNtNtCs26lDL6qRPME_9fastskill4core8registry7stagingNtB8_14StagingManager13store_package00Be_
FN:160,_RNCNCNvMs_NtNtNtCs26lDL6qRPME_9fastskill4core8registry7stagingNtB8_14StagingManager13store_package0s_0Be_
FN:175,_RNCNvMs_NtNtNtCs26lDL6qRPME_9fastskill4core8registry7stagingNtB6_14StagingManager13load_metadata0Bc_
FN:176,_RNCNvMs_NtNtNtCs26lDL6qRPME_9fastskill4core8registry7stagingNtB6_14StagingManager13load_metadatas_0Bc_
FN:87,_RNCNvMs_NtNtNtCs26lDL6qRPME_9fastskill4core8registry7stagingNtB6_14StagingManager13store_package0Bc_
FN:200,_RNCNvMs_NtNtNtCs26lDL6qRPME_9fastskill4core8registry7stagingNtB6_14StagingManager13update_status0Bc_
FN:228,_RNCNvMs_NtNtNtCs26lDL6qRPME_9fastskill4core8registry7stagingNtB6_14StagingManager13update_statuss_0Bc_
FN:238,_RNCNvMs_NtNtNtCs26lDL6qRPME_9fastskill4core8registry7stagingNtB6_14StagingManager16get_package_path0Bc_
FN:273,_RNCNvNtNtNtCs26lDL6qRPME_9fastskill4core8registry7staging13sanitize_path0B9_
FN:147,_RNCNCNvMs_NtNtNtCsjhmHPBDWNUU_9fastskill4core8registry7stagingNtB8_14StagingManager13store_package00Be_
FN:160,_RNCNCNvMs_NtNtNtCsjhmHPBDWNUU_9fastskill4core8registry7stagingNtB8_14StagingManager13store_package0s_0Be_
FN:175,_RNCNvMs_NtNtNtCsjhmHPBDWNUU_9fastskill4core8registry7stagingNtB6_14StagingManager13load_metadata0Bc_
FN:176,_RNCNvMs_NtNtNtCsjhmHPBDWNUU_9fastskill4core8registry7stagingNtB6_14StagingManager13load_metadatas_0Bc_
FN:87,_RNCNvMs_NtNtNtCsjhmHPBDWNUU_9fastskill4core8registry7stagingNtB6_14StagingManager13store_package0Bc_
FN:200,_RNCNvMs_NtNtNtCsjhmHPBDWNUU_9fastskill4core8registry7stagingNtB6_14StagingManager13update_status0Bc_
FN:228,_RNCNvMs_NtNtNtCsjhmHPBDWNUU_9fastskill4core8registry7stagingNtB6_14StagingManager13update_statuss_0Bc_
FN:238,_RNCNvMs_NtNtNtCsjhmHPBDWNUU_9fastskill4core8registry7stagingNtB6_14StagingManager16get_package_path0Bc_
FN:273,_RNCNvNtNtNtCsjhmHPBDWNUU_9fastskill4core8registry7staging13sanitize_path0B9_
FN:284,_RNvNtNtNtNtCsjhmHPBDWNUU_9fastskill4core8registry7staging5testss_27test_store_and_load_package
FN:284,_RNCNvNtNtNtNtCsjhmHPBDWNUU_9fastskill4core8registry7staging5testss_27test_store_and_load_package0Bb_
FN:41,_RNvMNtNtNtCsjhmHPBDWNUU_9fastskill4core8registry7stagingNtB2_13StagingStatus6as_str
FN:64,_RNvMs_NtNtNtCsjhmHPBDWNUU_9fastskill4core8registry7stagingNtB4_14StagingManager10initialize
FN:167,_RNvMs_NtNtNtCsjhmHPBDWNUU_9fastskill4core8registry7stagingNtB4_14StagingManager13load_metadata
FN:80,_RNvMs_NtNtNtCsjhmHPBDWNUU_9fastskill4core8registry7stagingNtB4_14StagingManager13store_package
FN:192,_RNvMs_NtNtNtCsjhmHPBDWNUU_9fastskill4core8registry7stagingNtB4_14StagingManager13update_status
FN:235,_RNvMs_NtNtNtCsjhmHPBDWNUU_9fastskill4core8registry7stagingNtB4_14StagingManager16get_package_path
FN:71,_RNvMs_NtNtNtCsjhmHPBDWNUU_9fastskill4core8registry7stagingNtB4_14StagingManager16get_staging_path
FN:59,_RNvMs_NtNtNtCsjhmHPBDWNUU_9fastskill4core8registry7stagingNtB4_14StagingManager3new
FN:270,_RNvNtNtNtCsjhmHPBDWNUU_9fastskill4core8registry7staging13sanitize_path
FNDA:0,_RNvMNtNtNtCs26lDL6qRPME_9fastskill4core8registry7stagingNtB2_13StagingStatus6as_str
FNDA:0,_RNvMs_NtNtNtCs26lDL6qRPME_9fastskill4core8registry7stagingNtB4_14StagingManager10initialize
FNDA:0,_RNvMs_NtNtNtCs26lDL6qRPME_9fastskill4core8registry7stagingNtB4_14StagingManager13load_metadata
FNDA:0,_RNvMs_NtNtNtCs26lDL6qRPME_9fastskill4core8registry7stagingNtB4_14StagingManager13store_package
FNDA:0,_RNvMs_NtNtNtCs26lDL6qRPME_9fastskill4core8registry7stagingNtB4_14StagingManager13update_status
FNDA:0,_RNvMs_NtNtNtCs26lDL6qRPME_9fastskill4core8registry7stagingNtB4_14StagingManager16get_package_path
FNDA:0,_RNvMs_NtNtNtCs26lDL6qRPME_9fastskill4core8registry7stagingNtB4_14StagingManager16get_staging_path
FNDA:0,_RNvMs_NtNtNtCs26lDL6qRPME_9fastskill4core8registry7stagingNtB4_14StagingManager3new
FNDA:0,_RNvNtNtNtCs26lDL6qRPME_9fastskill4core8registry7staging13sanitize_path
FNDA:0,_RNCNCNvMs_NtNtNtCs26lDL6qRPME_9fastskill4core8registry7stagingNtB8_14StagingManager13store_package00Be_
FNDA:0,_RNCNCNvMs_NtNtNtCs26lDL6qRPME_9fastskill4core8registry7stagingNtB8_14StagingManager13store_package0s_0Be_
FNDA:0,_RNCNvMs_NtNtNtCs26lDL6qRPME_9fastskill4core8registry7stagingNtB6_14StagingManager13load_metadata0Bc_
FNDA:0,_RNCNvMs_NtNtNtCs26lDL6qRPME_9fastskill4core8registry7stagingNtB6_14StagingManager13load_metadatas_0Bc_
FNDA:0,_RNCNvMs_NtNtNtCs26lDL6qRPME_9fastskill4core8registry7stagingNtB6_14StagingManager13store_package0Bc_
FNDA:0,_RNCNvMs_NtNtNtCs26lDL6qRPME_9fastskill4core8registry7stagingNtB6_14StagingManager13update_status0Bc_
FNDA:0,_RNCNvMs_NtNtNtCs26lDL6qRPME_9fastskill4core8registry7stagingNtB6_14StagingManager13update_statuss_0Bc_
FNDA:0,_RNCNvMs_NtNtNtCs26lDL6qRPME_9fastskill4core8registry7stagingNtB6_14StagingManager16get_package_path0Bc_
FNDA:0,_RNCNvNtNtNtCs26lDL6qRPME_9fastskill4core8registry7staging13sanitize_path0B9_
FNDA:1,_RNCNCNvMs_NtNtNtCsjhmHPBDWNUU_9fastskill4core8registry7stagingNtB8_14StagingManager13store_package00Be_
FNDA:0,_RNCNCNvMs_NtNtNtCsjhmHPBDWNUU_9fastskill4core8registry7stagingNtB8_14StagingManager13store_package0s_0Be_
FNDA:6,_RNCNvMs_NtNtNtCsjhmHPBDWNUU_9fastskill4core8registry7stagingNtB6_14StagingManager13load_metadata0Bc_
FNDA:6,_RNCNvMs_NtNtNtCsjhmHPBDWNUU_9fastskill4core8registry7stagingNtB6_14StagingManager13load_metadatas_0Bc_
FNDA:1,_RNCNvMs_NtNtNtCsjhmHPBDWNUU_9fastskill4core8registry7stagingNtB6_14StagingManager13store_package0Bc_
FNDA:0,_RNCNvMs_NtNtNtCsjhmHPBDWNUU_9fastskill4core8registry7stagingNtB6_14StagingManager13update_status0Bc_
FNDA:0,_RNCNvMs_NtNtNtCsjhmHPBDWNUU_9fastskill4core8registry7stagingNtB6_14StagingManager13update_statuss_0Bc_
FNDA:0,_RNCNvMs_NtNtNtCsjhmHPBDWNUU_9fastskill4core8registry7stagingNtB6_14StagingManager16get_package_path0Bc_
FNDA:25,_RNCNvNtNtNtCsjhmHPBDWNUU_9fastskill4core8registry7staging13sanitize_path0B9_
FNDA:1,_RNvNtNtNtNtCsjhmHPBDWNUU_9fastskill4core8registry7staging5testss_27test_store_and_load_package
FNDA:1,_RNCNvNtNtNtNtCsjhmHPBDWNUU_9fastskill4core8registry7staging5testss_27test_store_and_load_package0Bb_
FNDA:0,_RNvMNtNtNtCsjhmHPBDWNUU_9fastskill4core8registry7stagingNtB2_13StagingStatus6as_str
FNDA:1,_RNvMs_NtNtNtCsjhmHPBDWNUU_9fastskill4core8registry7stagingNtB4_14StagingManager10initialize
FNDA:1,_RNvMs_NtNtNtCsjhmHPBDWNUU_9fastskill4core8registry7stagingNtB4_14StagingManager13load_metadata
FNDA:1,_RNvMs_NtNtNtCsjhmHPBDWNUU_9fastskill4core8registry7stagingNtB4_14StagingManager13store_package
FNDA:0,_RNvMs_NtNtNtCsjhmHPBDWNUU_9fastskill4core8registry7stagingNtB4_14StagingManager13update_status
FNDA:0,_RNvMs_NtNtNtCsjhmHPBDWNUU_9fastskill4core8registry7stagingNtB4_14StagingManager16get_package_path
FNDA:1,_RNvMs_NtNtNtCsjhmHPBDWNUU_9fastskill4core8registry7stagingNtB4_14StagingManager16get_staging_path
FNDA:1,_RNvMs_NtNtNtCsjhmHPBDWNUU_9fastskill4core8registry7stagingNtB4_14StagingManager3new
FNDA:3,_RNvNtNtNtCsjhmHPBDWNUU_9fastskill4core8registry7staging13sanitize_path
FNF:20
FNH:13
DA:41,0
DA:42,0
DA:43,0
DA:44,0
DA:45,0
DA:46,0
DA:48,0
DA:59,1
DA:60,1
DA:61,1
DA:64,1
DA:65,1
DA:66,1
DA:67,1
DA:71,1
DA:72,1
DA:73,1
DA:74,1
DA:75,1
DA:76,1
DA:80,1
DA:81,1
DA:82,1
DA:83,1
DA:84,1
DA:85,1
DA:86,1
DA:87,1
DA:88,1
DA:89,1
DA:91,0
DA:93,1
DA:95,1
DA:97,0
DA:100,0
DA:101,0
DA:103,0
DA:106,0
DA:107,0
DA:109,0
DA:110,0
DA:112,0
DA:114,0
DA:115,0
DA:116,0
DA:121,1
DA:125,1
DA:126,1
DA:127,1
DA:130,1
DA:131,1
DA:132,1
DA:134,0
DA:136,1
DA:139,1
DA:140,1
DA:141,1
DA:142,1
DA:143,1
DA:144,1
DA:145,1
DA:146,1
DA:147,1
DA:148,1
DA:149,1
DA:150,1
DA:154,1
DA:155,1
DA:157,0
DA:159,1
DA:160,1
DA:161,1
DA:163,1
DA:164,1
DA:167,1
DA:169,1
DA:170,0
DA:171,1
DA:173,1
DA:174,1
DA:175,6
DA:176,6
DA:178,1
DA:179,1
DA:180,1
DA:181,1
DA:182,1
DA:183,0
DA:184,0
DA:185,0
DA:188,0
DA:189,1
DA:192,0
DA:193,0
DA:194,0
DA:195,0
DA:196,0
DA:197,0
DA:198,0
DA:199,0
DA:200,0
DA:203,0
DA:205,0
DA:208,0
DA:209,0
DA:210,0
DA:212,0
DA:213,0
DA:214,0
DA:215,0
DA:218,0
DA:219,0
DA:221,0
DA:222,0
DA:223,0
DA:224,0
DA:225,0
DA:227,0
DA:228,0
DA:229,0
DA:231,0
DA:232,0
DA:235,0
DA:236,0
DA:237,0
DA:238,0
DA:241,0
DA:243,0
DA:246,0
DA:247,0
DA:248,0
DA:250,0
DA:251,0
DA:252,0
DA:253,0
DA:256,0
DA:258,0
DA:259,0
DA:261,0
DA:262,0
DA:264,0
DA:266,0
DA:270,3
DA:271,3
DA:272,3
DA:273,25
DA:274,3
DA:275,3
DA:284,1
DA:285,1
DA:286,1
DA:287,1
DA:289,1
DA:290,1
DA:291,1
DA:292,1
DA:293,1
DA:294,1
DA:295,1
DA:296,1
DA:297,1
DA:298,1
DA:299,1
DA:301,1
DA:302,1
DA:304,1
DA:305,1
DA:306,1
DA:307,1
DA:308,1
DA:309,1
DA:310,1
DA:311,1
BRF:0
BRH:0
LF:184
LH:103
end_of_record
SF:/home/sysuser/ws001/gofastskill/fastskill/src/core/registry/validation_worker.rs
FN:194,_RNCNCNvMs_NtNtNtCs26lDL6qRPME_9fastskill4core8registry17validation_workerNtB8_16ValidationWorker16validate_package00Be_
FN:216,_RNCNCNvMs_NtNtNtCs26lDL6qRPME_9fastskill4core8registry17validation_workerNtB8_16ValidationWorker16validate_package0s0_0Be_
FN:200,_RNCNCNvMs_NtNtNtCs26lDL6qRPME_9fastskill4core8registry17validation_workerNtB8_16ValidationWorker16validate_package0s_0Be_
FN:356,_RNCNCNvMs_NtNtNtCs26lDL6qRPME_9fastskill4core8registry17validation_workerNtB8_16ValidationWorker18accept_and_publish00Be_
FN:387,_RNCNCNvMs_NtNtNtCs26lDL6qRPME_9fastskill4core8registry17validation_workerNtB8_16ValidationWorker18accept_and_publish0s0_0Be_
FN:394,_RNCNCNvMs_NtNtNtCs26lDL6qRPME_9fastskill4core8registry17validation_workerNtB8_16ValidationWorker18accept_and_publish0s1_0Be_
FN:395,_RNCNCNvMs_NtNtNtCs26lDL6qRPME_9fastskill4core8registry17validation_workerNtB8_16ValidationWorker18accept_and_publish0s2_0Be_
FN:405,_RNCNCNvMs_NtNtNtCs26lDL6qRPME_9fastskill4core8registry17validation_workerNtB8_16ValidationWorker18accept_and_publish0s3_0Be_
FN:440,_RNCNCNvMs_NtNtNtCs26lDL6qRPME_9fastskill4core8registry17validation_workerNtB8_16ValidationWorker18accept_and_publish0s4_0Be_
FN:444,_RNCNCNvMs_NtNtNtCs26lDL6qRPME_9fastskill4core8registry17validation_workerNtB8_16ValidationWorker18accept_and_publish0s5_0Be_
FN:452,_RNCNCNvMs_NtNtNtCs26lDL6qRPME_9fastskill4core8registry17validation_workerNtB8_16ValidationWorker18accept_and_publish0s6_0Be_
FN:378,_RNCNCNvMs_NtNtNtCs26lDL6qRPME_9fastskill4core8registry17validation_workerNtB8_16ValidationWorker18accept_and_publish0s_0Be_
FN:317,_RNCNvMs_NtNtNtCs26lDL6qRPME_9fastskill4core8registry17validation_workerNtB6_16ValidationWorker16extract_skill_md0Bc_
FN:327,_RNCNvMs_NtNtNtCs26lDL6qRPME_9fastskill4core8registry17validation_workerNtB6_16ValidationWorker16extract_skill_mds0_0Bc_
FN:321,_RNCNvMs_NtNtNtCs26lDL6qRPME_9fastskill4core8registry17validation_workerNtB6_16ValidationWorker16extract_skill_mds_0Bc_
FN:188,_RNCNvMs_NtNtNtCs26lDL6qRPME_9fastskill4core8registry17validation_workerNtB6_16ValidationWorker16validate_package0Bc_
FN:164,_RNCNvMs_NtNtNtCs26lDL6qRPME_9fastskill4core8registry17validation_workerNtB6_16ValidationWorker17find_pending_jobs0Bc_
FN:165,_RNCNvMs_NtNtNtCs26lDL6qRPME_9fastskill4core8registry17validation_workerNtB6_16ValidationWorker17find_pending_jobss_0Bc_
FN:352,_RNCNvMs_NtNtNtCs26lDL6qRPME_9fastskill4core8registry17validation_workerNtB6_16ValidationWorker18accept_and_publish0Bc_
FN:255,_RNCNvMs_NtNtNtCs26lDL6qRPME_9fastskill4core8registry17validation_workerNtB6_16ValidationWorker19extract_zip_to_temp0Bc_
FN:258,_RNCNvMs_NtNtNtCs26lDL6qRPME_9fastskill4core8registry17validation_workerNtB6_16ValidationWorker19extract_zip_to_temps_0Bc_
FN:108,_RNCNvMs_NtNtNtCs26lDL6qRPME_9fastskill4core8registry17validation_workerNtB6_16ValidationWorker24process_pending_packages0Bc_
FN:74,_RNCNvMs_NtNtNtCs26lDL6qRPME_9fastskill4core8registry17validation_workerNtB6_16ValidationWorker5start0Bc_
FN:309,_RNvMs_NtNtNtCs26lDL6qRPME_9fastskill4core8registry17validation_workerNtB4_16ValidationWorker16extract_skill_md
FN:183,_RNvMs_NtNtNtCs26lDL6qRPME_9fastskill4core8registry17validation_workerNtB4_16ValidationWorker16validate_package
FN:151,_RNvMs_NtNtNtCs26lDL6qRPME_9fastskill4core8registry17validation_workerNtB4_16ValidationWorker17find_pending_jobs
FN:348,_RNvMs_NtNtNtCs26lDL6qRPME_9fastskill4core8registry17validation_workerNtB4_16ValidationWorker18accept_and_publish
FN:249,_RNvMs_NtNtNtCs26lDL6qRPME_9fastskill4core8registry17validation_workerNtB4_16ValidationWorker19extract_zip_to_temp
FN:281,_RNvMs_NtNtNtCs26lDL6qRPME_9fastskill4core8registry17validation_workerNtB4_16ValidationWorker20find_skill_directory
FN:103,_RNvMs_NtNtNtCs26lDL6qRPME_9fastskill4core8registry17validation_workerNtB4_16ValidationWorker24process_pending_packages
FN:54,_RNvMs_NtNtNtCs26lDL6qRPME_9fastskill4core8registry17validation_workerNtB4_16ValidationWorker3new
FN:97,_RNvMs_NtNtNtCs26lDL6qRPME_9fastskill4core8registry17validation_workerNtB4_16ValidationWorker4stop
FN:65,_RNvMs_NtNtNtCs26lDL6qRPME_9fastskill4core8registry17validation_workerNtB4_16ValidationWorker5start
FN:33,_RNvXNtNtNtCs26lDL6qRPME_9fastskill4core8registry17validation_workerNtB2_22ValidationWorkerConfigNtNtCsiJueO4bndGx_4core7default7Default7default
FN:97,_RNvMs_NtNtNtCsjhmHPBDWNUU_9fastskill4core8registry17validation_workerNtB4_16ValidationWorker4stop
FN:33,_RNvXNtNtNtCsjhmHPBDWNUU_9fastskill4core8registry17validation_workerNtB2_22ValidationWorkerConfigNtNtCsiJueO4bndGx_4core7default7Default7default
FN:194,_RNCNCNvMs_NtNtNtCsjhmHPBDWNUU_9fastskill4core8registry17validation_workerNtB8_16ValidationWorker16validate_package00Be_
FN:216,_RNCNCNvMs_NtNtNtCsjhmHPBDWNUU_9fastskill4core8registry17validation_workerNtB8_16ValidationWorker16validate_package0s0_0Be_
FN:200,_RNCNCNvMs_NtNtNtCsjhmHPBDWNUU_9fastskill4core8registry17validation_workerNtB8_16ValidationWorker16validate_package0s_0Be_
FN:356,_RNCNCNvMs_NtNtNtCsjhmHPBDWNUU_9fastskill4core8registry17validation_workerNtB8_16ValidationWorker18accept_and_publish00Be_
FN:387,_RNCNCNvMs_NtNtNtCsjhmHPBDWNUU_9fastskill4core8registry17validation_workerNtB8_16ValidationWorker18accept_and_publish0s0_0Be_
FN:394,_RNCNCNvMs_NtNtNtCsjhmHPBDWNUU_9fastskill4core8registry17validation_workerNtB8_16ValidationWorker18accept_and_publish0s1_0Be_
FN:395,_RNCNCNvMs_NtNtNtCsjhmHPBDWNUU_9fastskill4core8registry17validation_workerNtB8_16ValidationWorker18accept_and_publish0s2_0Be_
FN:405,_RNCNCNvMs_NtNtNtCsjhmHPBDWNUU_9fastskill4core8registry17validation_workerNtB8_16ValidationWorker18accept_and_publish0s3_0Be_
FN:440,_RNCNCNvMs_NtNtNtCsjhmHPBDWNUU_9fastskill4core8registry17validation_workerNtB8_16ValidationWorker18accept_and_publish0s4_0Be_
FN:444,_RNCNCNvMs_NtNtNtCsjhmHPBDWNUU_9fastskill4core8registry17validation_workerNtB8_16ValidationWorker18accept_and_publish0s5_0Be_
FN:452,_RNCNCNvMs_NtNtNtCsjhmHPBDWNUU_9fastskill4core8registry17validation_workerNtB8_16ValidationWorker18accept_and_publish0s6_0Be_
FN:378,_RNCNCNvMs_NtNtNtCsjhmHPBDWNUU_9fastskill4core8registry17validation_workerNtB8_16ValidationWorker18accept_and_publish0s_0Be_
FN:317,_RNCNvMs_NtNtNtCsjhmHPBDWNUU_9fastskill4core8registry17validation_workerNtB6_16ValidationWorker16extract_skill_md0Bc_
FN:327,_RNCNvMs_NtNtNtCsjhmHPBDWNUU_9fastskill4core8registry17validation_workerNtB6_16ValidationWorker16extract_skill_mds0_0Bc_
FN:321,_RNCNvMs_NtNtNtCsjhmHPBDWNUU_9fastskill4core8registry17validation_workerNtB6_16ValidationWorker16extract_skill_mds_0Bc_
FN:188,_RNCNvMs_NtNtNtCsjhmHPBDWNUU_9fastskill4core8registry17validation_workerNtB6_16ValidationWorker16validate_package0Bc_
FN:164,_RNCNvMs_NtNtNtCsjhmHPBDWNUU_9fastskill4core8registry17validation_workerNtB6_16ValidationWorker17find_pending_jobs0Bc_
FN:165,_RNCNvMs_NtNtNtCsjhmHPBDWNUU_9fastskill4core8registry17validation_workerNtB6_16ValidationWorker17find_pending_jobss_0Bc_
FN:352,_RNCNvMs_NtNtNtCsjhmHPBDWNUU_9fastskill4core8registry17validation_workerNtB6_16ValidationWorker18accept_and_publish0Bc_
FN:255,_RNCNvMs_NtNtNtCsjhmHPBDWNUU_9fastskill4core8registry17validation_workerNtB6_16ValidationWorker19extract_zip_to_temp0Bc_
FN:258,_RNCNvMs_NtNtNtCsjhmHPBDWNUU_9fastskill4core8registry17validation_workerNtB6_16ValidationWorker19extract_zip_to_temps_0Bc_
FN:108,_RNCNvMs_NtNtNtCsjhmHPBDWNUU_9fastskill4core8registry17validation_workerNtB6_16ValidationWorker24process_pending_packages0Bc_
FN:74,_RNCNvMs_NtNtNtCsjhmHPBDWNUU_9fastskill4core8registry17validation_workerNtB6_16ValidationWorker5start0Bc_
FN:309,_RNvMs_NtNtNtCsjhmHPBDWNUU_9fastskill4core8registry17validation_workerNtB4_16ValidationWorker16extract_skill_md
FN:183,_RNvMs_NtNtNtCsjhmHPBDWNUU_9fastskill4core8registry17validation_workerNtB4_16ValidationWorker16validate_package
FN:151,_RNvMs_NtNtNtCsjhmHPBDWNUU_9fastskill4core8registry17validation_workerNtB4_16ValidationWorker17find_pending_jobs
FN:348,_RNvMs_NtNtNtCsjhmHPBDWNUU_9fastskill4core8registry17validation_workerNtB4_16ValidationWorker18accept_and_publish
FN:249,_RNvMs_NtNtNtCsjhmHPBDWNUU_9fastskill4core8registry17validation_workerNtB4_16ValidationWorker19extract_zip_to_temp
FN:281,_RNvMs_NtNtNtCsjhmHPBDWNUU_9fastskill4core8registry17validation_workerNtB4_16ValidationWorker20find_skill_directory
FN:103,_RNvMs_NtNtNtCsjhmHPBDWNUU_9fastskill4core8registry17validation_workerNtB4_16ValidationWorker24process_pending_packages
FN:54,_RNvMs_NtNtNtCsjhmHPBDWNUU_9fastskill4core8registry17validation_workerNtB4_16ValidationWorker3new
FN:65,_RNvMs_NtNtNtCsjhmHPBDWNUU_9fastskill4core8registry17validation_workerNtB4_16ValidationWorker5start
FNDA:0,_RNCNCNvMs_NtNtNtCs26lDL6qRPME_9fastskill4core8registry17validation_workerNtB8_16ValidationWorker16validate_package00Be_
FNDA:0,_RNCNCNvMs_NtNtNtCs26lDL6qRPME_9fastskill4core8registry17validation_workerNtB8_16ValidationWorker16validate_package0s0_0Be_
FNDA:0,_RNCNCNvMs_NtNtNtCs26lDL6qRPME_9fastskill4core8registry17validation_workerNtB8_16ValidationWorker16validate_package0s_0Be_
FNDA:0,_RNCNCNvMs_NtNtNtCs26lDL6qRPME_9fastskill4core8registry17validation_workerNtB8_16ValidationWorker18accept_and_publish00Be_
FNDA:0,_RNCNCNvMs_NtNtNtCs26lDL6qRPME_9fastskill4core8registry17validation_workerNtB8_16ValidationWorker18accept_and_publish0s0_0Be_
FNDA:0,_RNCNCNvMs_NtNtNtCs26lDL6qRPME_9fastskill4core8registry17validation_workerNtB8_16ValidationWorker18accept_and_publish0s1_0Be_
FNDA:0,_RNCNCNvMs_NtNtNtCs26lDL6qRPME_9fastskill4core8registry17validation_workerNtB8_16ValidationWorker18accept_and_publish0s2_0Be_
FNDA:0,_RNCNCNvMs_NtNtNtCs26lDL6qRPME_9fastskill4core8registry17validation_workerNtB8_16ValidationWorker18accept_and_publish0s3_0Be_
FNDA:0,_RNCNCNvMs_NtNtNtCs26lDL6qRPME_9fastskill4core8registry17validation_workerNtB8_16ValidationWorker18accept_and_publish0s4_0Be_
FNDA:0,_RNCNCNvMs_NtNtNtCs26lDL6qRPME_9fastskill4core8registry17validation_workerNtB8_16ValidationWorker18accept_and_publish0s5_0Be_
FNDA:0,_RNCNCNvMs_NtNtNtCs26lDL6qRPME_9fastskill4core8registry17validation_workerNtB8_16ValidationWorker18accept_and_publish0s6_0Be_
FNDA:0,_RNCNCNvMs_NtNtNtCs26lDL6qRPME_9fastskill4core8registry17validation_workerNtB8_16ValidationWorker18accept_and_publish0s_0Be_
FNDA:0,_RNCNvMs_NtNtNtCs26lDL6qRPME_9fastskill4core8registry17validation_workerNtB6_16ValidationWorker16extract_skill_md0Bc_
FNDA:0,_RNCNvMs_NtNtNtCs26lDL6qRPME_9fastskill4core8registry17validation_workerNtB6_16ValidationWorker16extract_skill_mds0_0Bc_
FNDA:0,_RNCNvMs_NtNtNtCs26lDL6qRPME_9fastskill4core8registry17validation_workerNtB6_16ValidationWorker16extract_skill_mds_0Bc_
FNDA:0,_RNCNvMs_NtNtNtCs26lDL6qRPME_9fastskill4core8registry17validation_workerNtB6_16ValidationWorker16validate_package0Bc_
FNDA:0,_RNCNvMs_NtNtNtCs26lDL6qRPME_9fastskill4core8registry17validation_workerNtB6_16ValidationWorker17find_pending_jobs0Bc_
FNDA:0,_RNCNvMs_NtNtNtCs26lDL6qRPME_9fastskill4core8registry17validation_workerNtB6_16ValidationWorker17find_pending_jobss_0Bc_
FNDA:0,_RNCNvMs_NtNtNtCs26lDL6qRPME_9fastskill4core8registry17validation_workerNtB6_16ValidationWorker18accept_and_publish0Bc_
FNDA:0,_RNCNvMs_NtNtNtCs26lDL6qRPME_9fastskill4core8registry17validation_workerNtB6_16ValidationWorker19extract_zip_to_temp0Bc_
FNDA:0,_RNCNvMs_NtNtNtCs26lDL6qRPME_9fastskill4core8registry17validation_workerNtB6_16ValidationWorker19extract_zip_to_temps_0Bc_
FNDA:0,_RNCNvMs_NtNtNtCs26lDL6qRPME_9fastskill4core8registry17validation_workerNtB6_16ValidationWorker24process_pending_packages0Bc_
FNDA:0,_RNCNvMs_NtNtNtCs26lDL6qRPME_9fastskill4core8registry17validation_workerNtB6_16ValidationWorker5start0Bc_
FNDA:0,_RNvMs_NtNtNtCs26lDL6qRPME_9fastskill4core8registry17validation_workerNtB4_16ValidationWorker16extract_skill_md
FNDA:0,_RNvMs_NtNtNtCs26lDL6qRPME_9fastskill4core8registry17validation_workerNtB4_16ValidationWorker16validate_package
FNDA:0,_RNvMs_NtNtNtCs26lDL6qRPME_9fastskill4core8registry17validation_workerNtB4_16ValidationWorker17find_pending_jobs
FNDA:0,_RNvMs_NtNtNtCs26lDL6qRPME_9fastskill4core8registry17validation_workerNtB4_16ValidationWorker18accept_and_publish
FNDA:0,_RNvMs_NtNtNtCs26lDL6qRPME_9fastskill4core8registry17validation_workerNtB4_16ValidationWorker19extract_zip_to_temp
FNDA:0,_RNvMs_NtNtNtCs26lDL6qRPME_9fastskill4core8registry17validation_workerNtB4_16ValidationWorker20find_skill_directory
FNDA:0,_RNvMs_NtNtNtCs26lDL6qRPME_9fastskill4core8registry17validation_workerNtB4_16ValidationWorker24process_pending_packages
FNDA:0,_RNvMs_NtNtNtCs26lDL6qRPME_9fastskill4core8registry17validation_workerNtB4_16ValidationWorker3new
FNDA:0,_RNvMs_NtNtNtCs26lDL6qRPME_9fastskill4core8registry17validation_workerNtB4_16ValidationWorker4stop
FNDA:0,_RNvMs_NtNtNtCs26lDL6qRPME_9fastskill4core8registry17validation_workerNtB4_16ValidationWorker5start
FNDA:0,_RNvXNtNtNtCs26lDL6qRPME_9fastskill4core8registry17validation_workerNtB2_22ValidationWorkerConfigNtNtCsiJueO4bndGx_4core7default7Default7default
FNDA:0,_RNvMs_NtNtNtCsjhmHPBDWNUU_9fastskill4core8registry17validation_workerNtB4_16ValidationWorker4stop
FNDA:0,_RNvXNtNtNtCsjhmHPBDWNUU_9fastskill4core8registry17validation_workerNtB2_22ValidationWorkerConfigNtNtCsiJueO4bndGx_4core7default7Default7default
FNDA:0,_RNCNCNvMs_NtNtNtCsjhmHPBDWNUU_9fastskill4core8registry17validation_workerNtB8_16ValidationWorker16validate_package00Be_
FNDA:0,_RNCNCNvMs_NtNtNtCsjhmHPBDWNUU_9fastskill4core8registry17validation_workerNtB8_16ValidationWorker16validate_package0s0_0Be_
FNDA:0,_RNCNCNvMs_NtNtNtCsjhmHPBDWNUU_9fastskill4core8registry17validation_workerNtB8_16ValidationWorker16validate_package0s_0Be_
FNDA:0,_RNCNCNvMs_NtNtNtCsjhmHPBDWNUU_9fastskill4core8registry17validation_workerNtB8_16ValidationWorker18accept_and_publish00Be_
FNDA:0,_RNCNCNvMs_NtNtNtCsjhmHPBDWNUU_9fastskill4core8registry17validation_workerNtB8_16ValidationWorker18accept_and_publish0s0_0Be_
FNDA:0,_RNCNCNvMs_NtNtNtCsjhmHPBDWNUU_9fastskill4core8registry17validation_workerNtB8_16ValidationWorker18accept_and_publish0s1_0Be_
FNDA:0,_RNCNCNvMs_NtNtNtCsjhmHPBDWNUU_9fastskill4core8registry17validation_workerNtB8_16ValidationWorker18accept_and_publish0s2_0Be_
FNDA:0,_RNCNCNvMs_NtNtNtCsjhmHPBDWNUU_9fastskill4core8registry17validation_workerNtB8_16ValidationWorker18accept_and_publish0s3_0Be_
FNDA:0,_RNCNCNvMs_NtNtNtCsjhmHPBDWNUU_9fastskill4core8registry17validation_workerNtB8_16ValidationWorker18accept_and_publish0s4_0Be_
FNDA:0,_RNCNCNvMs_NtNtNtCsjhmHPBDWNUU_9fastskill4core8registry17validation_workerNtB8_16ValidationWorker18accept_and_publish0s5_0Be_
FNDA:0,_RNCNCNvMs_NtNtNtCsjhmHPBDWNUU_9fastskill4core8registry17validation_workerNtB8_16ValidationWorker18accept_and_publish0s6_0Be_
FNDA:0,_RNCNCNvMs_NtNtNtCsjhmHPBDWNUU_9fastskill4core8registry17validation_workerNtB8_16ValidationWorker18accept_and_publish0s_0Be_
FNDA:0,_RNCNvMs_NtNtNtCsjhmHPBDWNUU_9fastskill4core8registry17validation_workerNtB6_16ValidationWorker16extract_skill_md0Bc_
FNDA:0,_RNCNvMs_NtNtNtCsjhmHPBDWNUU_9fastskill4core8registry17validation_workerNtB6_16ValidationWorker16extract_skill_mds0_0Bc_
FNDA:0,_RNCNvMs_NtNtNtCsjhmHPBDWNUU_9fastskill4core8registry17validation_workerNtB6_16ValidationWorker16extract_skill_mds_0Bc_
FNDA:0,_RNCNvMs_NtNtNtCsjhmHPBDWNUU_9fastskill4core8registry17validation_workerNtB6_16ValidationWorker16validate_package0Bc_
FNDA:0,_RNCNvMs_NtNtNtCsjhmHPBDWNUU_9fastskill4core8registry17validation_workerNtB6_16ValidationWorker17find_pending_jobs0Bc_
FNDA:0,_RNCNvMs_NtNtNtCsjhmHPBDWNUU_9fastskill4core8registry17validation_workerNtB6_16ValidationWorker17find_pending_jobss_0Bc_
FNDA:0,_RNCNvMs_NtNtNtCsjhmHPBDWNUU_9fastskill4core8registry17validation_workerNtB6_16ValidationWorker18accept_and_publish0Bc_
FNDA:0,_RNCNvMs_NtNtNtCsjhmHPBDWNUU_9fastskill4core8registry17validation_workerNtB6_16ValidationWorker19extract_zip_to_temp0Bc_
FNDA:0,_RNCNvMs_NtNtNtCsjhmHPBDWNUU_9fastskill4core8registry17validation_workerNtB6_16ValidationWorker19extract_zip_to_temps_0Bc_
FNDA:0,_RNCNvMs_NtNtNtCsjhmHPBDWNUU_9fastskill4core8registry17validation_workerNtB6_16ValidationWorker24process_pending_packages0Bc_
FNDA:0,_RNCNvMs_NtNtNtCsjhmHPBDWNUU_9fastskill4core8registry17validation_workerNtB6_16ValidationWorker5start0Bc_
FNDA:0,_RNvMs_NtNtNtCsjhmHPBDWNUU_9fastskill4core8registry17validation_workerNtB4_16ValidationWorker16extract_skill_md
FNDA:0,_RNvMs_NtNtNtCsjhmHPBDWNUU_9fastskill4core8registry17validation_workerNtB4_16ValidationWorker16validate_package
FNDA:0,_RNvMs_NtNtNtCsjhmHPBDWNUU_9fastskill4core8registry17validation_workerNtB4_16ValidationWorker17find_pending_jobs
FNDA:0,_RNvMs_NtNtNtCsjhmHPBDWNUU_9fastskill4core8registry17validation_workerNtB4_16ValidationWorker18accept_and_publish
FNDA:0,_RNvMs_NtNtNtCsjhmHPBDWNUU_9fastskill4core8registry17validation_workerNtB4_16ValidationWorker19extract_zip_to_temp
FNDA:0,_RNvMs_NtNtNtCsjhmHPBDWNUU_9fastskill4core8registry17validation_workerNtB4_16ValidationWorker20find_skill_directory
FNDA:0,_RNvMs_NtNtNtCsjhmHPBDWNUU_9fastskill4core8registry17validation_workerNtB4_16ValidationWorker24process_pending_packages
FNDA:0,_RNvMs_NtNtNtCsjhmHPBDWNUU_9fastskill4core8registry17validation_workerNtB4_16ValidationWorker3new
FNDA:0,_RNvMs_NtNtNtCsjhmHPBDWNUU_9fastskill4core8registry17validation_workerNtB4_16ValidationWorker5start
FNF:34
FNH:0
DA:33,0
DA:34,0
DA:35,0
DA:36,0
DA:37,0
DA:38,0
DA:39,0
DA:40,0
DA:54,0
DA:55,0
DA:56,0
DA:57,0
DA:58,0
DA:59,0
DA:60,0
DA:61,0
DA:62,0
DA:65,0
DA:66,0
DA:67,0
DA:68,0
DA:69,0
DA:70,0
DA:72,0
DA:74,0
DA:75,0
DA:77,0
DA:78,0
DA:79,0
DA:80,0
DA:81,0
DA:82,0
DA:84,0
DA:86,0
DA:87,0
DA:89,0
DA:92,0
DA:93,0
DA:94,0
DA:97,0
DA:98,0
DA:99,0
DA:100,0
DA:103,0
DA:104,0
DA:105,0
DA:106,0
DA:107,0
DA:108,0
DA:110,0
DA:112,0
DA:113,0
DA:116,0
DA:119,0
DA:120,0
DA:124,0
DA:126,0
DA:127,0
DA:128,0
DA:129,0
DA:130,0
DA:131,0
DA:133,0
DA:136,0
DA:137,0
DA:138,0
DA:139,0
DA:140,0
DA:141,0
DA:142,0
DA:147,0
DA:148,0
DA:151,0
DA:155,0
DA:156,0
DA:157,0
DA:158,0
DA:160,0
DA:162,0
DA:163,0
DA:164,0
DA:165,0
DA:167,0
DA:168,0
DA:169,0
DA:170,0
DA:172,0
DA:173,0
DA:174,0
DA:175,0
DA:176,0
DA:179,0
DA:180,0
DA:183,0
DA:184,0
DA:185,0
DA:186,0
DA:187,0
DA:188,0
DA:192,0
DA:193,0
DA:194,0
DA:197,0
DA:200,0
DA:201,0
DA:202,0
DA:203,0
DA:204,0
DA:205,0
DA:207,0
DA:210,0
DA:213,0
DA:215,0
DA:216,0
DA:217,0
DA:218,0
DA:219,0
DA:220,0
DA:221,0
DA:222,0
DA:223,0
DA:224,0
DA:225,0
DA:226,0
DA:227,0
DA:228,0
DA:229,0
DA:230,0
DA:231,0
DA:232,0
DA:233,0
DA:235,0
DA:237,0
DA:238,0
DA:241,0
DA:242,0
DA:245,0
DA:246,0
DA:249,0
DA:250,0
DA:251,0
DA:252,0
DA:253,0
DA:254,0
DA:255,0
DA:257,0
DA:258,0
DA:259,0
DA:260,0
DA:262,0
DA:264,0
DA:265,0
DA:267,0
DA:268,0
DA:269,0
DA:270,0
DA:271,0
DA:272,0
DA:273,0
DA:277,0
DA:278,0
DA:281,0
DA:282,0
DA:283,0
DA:285,0
DA:286,0
DA:287,0
DA:288,0
DA:291,0
DA:292,0
DA:293,0
DA:295,0
DA:296,0
DA:297,0
DA:298,0
DA:299,0
DA:300,0
DA:303,0
DA:304,0
DA:305,0
DA:306,0
DA:309,0
DA:313,0
DA:315,0
DA:316,0
DA:317,0
DA:319,0
DA:320,0
DA:321,0
DA:322,0
DA:323,0
DA:325,0
DA:326,0
DA:327,0
DA:328,0
DA:329,0
DA:330,0
DA:331,0
DA:334,0
DA:335,0
DA:336,0
DA:337,0
DA:338,0
DA:340,0
DA:341,0
DA:348,0
DA:349,0
DA:350,0
DA:351,0
DA:352,0
DA:354,0
DA:355,0
DA:356,0
DA:359,0
DA:361,0
DA:364,0
DA:365,0
DA:366,0
DA:368,0
DA:369,0
DA:370,0
DA:371,0
DA:376,0
DA:377,0
DA:378,0
DA:382,0
DA:383,0
DA:385,0
DA:386,0
DA:387,0
DA:388,0
DA:389,0
DA:390,0
DA:392,0
DA:393,0
DA:394,0
DA:395,0
DA:398,0
DA:399,0
DA:402,0
DA:403,0
DA:404,0
DA:405,0
DA:406,0
DA:410,0
DA:411,0
DA:412,0
DA:413,0
DA:414,0
DA:417,0
DA:418,0
DA:419,0
DA:420,0
DA:422,0
DA:425,0
DA:429,0
DA:431,0
DA:432,0
DA:437,0
DA:438,0
DA:439,0
DA:440,0
DA:443,0
DA:444,0
DA:445,0
DA:446,0
DA:449,0
DA:450,0
DA:451,0
DA:452,0
DA:455,0
DA:456,0
DA:457,0
DA:458,0
DA:459,0
DA:460,0
DA:462,0
DA:463,0
DA:464,0
DA:465,0
DA:466,0
DA:467,0
DA:468,0
DA:469,0
DA:470,0
DA:471,0
DA:472,0
DA:474,0
DA:479,0
DA:480,0
DA:482,0
DA:487,0
DA:491,0
DA:493,0
DA:494,0
BRF:0
BRH:0
LF:326
LH:0
end_of_record
SF:/home/sysuser/ws001/gofastskill/fastskill/src/core/registry_index.rs
FN:25,_RNvMNtNtCs26lDL6qRPME_9fastskill4core14registry_indexNtB2_15ScopedSkillName9normalize
FN:390,_RNvNtNtCs26lDL6qRPME_9fastskill4core14registry_index13extract_scope
FN:400,_RNvNtNtCs26lDL6qRPME_9fastskill4core14registry_index14is_pre_release
FN:115,_RNvNtNtCs26lDL6qRPME_9fastskill4core14registry_index19read_skill_versions
FN:439,_RNvNtNtCs26lDL6qRPME_9fastskill4core14registry_index19scan_registry_index
FN:45,_RNvNtNtCs26lDL6qRPME_9fastskill4core14registry_index20get_skill_index_path
FN:155,_RNvNtNtCs26lDL6qRPME_9fastskill4core14registry_index20get_version_metadata
FN:313,_RNvNtNtCs26lDL6qRPME_9fastskill4core14registry_index20migrate_index_format
FN:68,_RNvNtNtCs26lDL6qRPME_9fastskill4core14registry_index20update_skill_version
FN:290,_RNvNtNtCs26lDL6qRPME_9fastskill4core14registry_index23calculate_file_checksum
FN:408,_RNvNtNtCs26lDL6qRPME_9fastskill4core14registry_index24determine_latest_version
FN:378,_RNvNtNtCs26lDL6qRPME_9fastskill4core14registry_index24parse_old_index_filename
FN:37,_RNvNtNtCs26lDL6qRPME_9fastskill4core14registry_index25create_registry_structure
FN:261,_RINvNtNtCs26lDL6qRPME_9fastskill4core14registry_index25serialize_datetime_optionINtNtCseH6nbJrdgGl_10serde_json3ser18RawValueStrEmitterQINtNtNtCs2qxQS2MOnST_5bytes3buf6writer6WriterNtNtB2h_9bytes_mut8BytesMutENtB1j_16CompactFormatterEEB6_
FN:261,_RINvNtNtCs26lDL6qRPME_9fastskill4core14registry_index25serialize_datetime_optionQINtNtCseH6nbJrdgGl_10serde_json3ser10SerializerQINtNtNtCs2qxQS2MOnST_5bytes3buf6writer6WriterNtNtB2a_9bytes_mut8BytesMutEEEB6_
FN:275,_RINvNtNtCs26lDL6qRPME_9fastskill4core14registry_index27deserialize_datetime_optionQINtNtCseH6nbJrdgGl_10serde_json2de12DeserializerNtNtB1o_4read9SliceReadEEB6_
FN:283,_RNCINvNtNtCs26lDL6qRPME_9fastskill4core14registry_index27deserialize_datetime_optionQINtNtCseH6nbJrdgGl_10serde_json2de12DeserializerNtNtB1q_4read9SliceReadEE0B8_
FN:454,_RNCNCNvNtNtCs26lDL6qRPME_9fastskill4core14registry_index19scan_registry_index00B9_
FN:462,_RNCNCNvNtNtCs26lDL6qRPME_9fastskill4core14registry_index19scan_registry_index0s0_0B9_
FN:470,_RNCNCNvNtNtCs26lDL6qRPME_9fastskill4core14registry_index19scan_registry_index0s1_0B9_
FN:479,_RNCNCNvNtNtCs26lDL6qRPME_9fastskill4core14registry_index19scan_registry_index0s2_0B9_
FN:525,_RNCNCNvNtNtCs26lDL6qRPME_9fastskill4core14registry_index19scan_registry_index0s3_0B9_
FN:560,_RNCNCNvNtNtCs26lDL6qRPME_9fastskill4core14registry_index19scan_registry_index0s4_0B9_
FN:585,_RNCNCNvNtNtCs26lDL6qRPME_9fastskill4core14registry_index19scan_registry_index0s5_0B9_
FN:593,_RNCNCNvNtNtCs26lDL6qRPME_9fastskill4core14registry_index19scan_registry_index0s6_0B9_
FN:594,_RNCNCNvNtNtCs26lDL6qRPME_9fastskill4core14registry_index19scan_registry_index0s7_0B9_
FN:601,_RNCNCNvNtNtCs26lDL6qRPME_9fastskill4core14registry_index19scan_registry_index0s8_0B9_
FN:602,_RNCNCNvNtNtCs26lDL6qRPME_9fastskill4core14registry_index19scan_registry_index0s9_0B9_
FN:461,_RNCNCNvNtNtCs26lDL6qRPME_9fastskill4core14registry_index19scan_registry_index0s_0B9_
FN:621,_RNCNCNvNtNtCs26lDL6qRPME_9fastskill4core14registry_index19scan_registry_index0sa_0B9_
FN:402,_RNCNvNtNtCs26lDL6qRPME_9fastskill4core14registry_index14is_pre_release0B7_
FN:442,_RNCNvNtNtCs26lDL6qRPME_9fastskill4core14registry_index19scan_registry_index0B7_
FN:332,_RNCNvNtNtCs26lDL6qRPME_9fastskill4core14registry_index20migrate_index_format0B7_
FN:367,_RNCNvNtNtCs26lDL6qRPME_9fastskill4core14registry_index20migrate_index_formats0_0B7_
FN:337,_RNCNvNtNtCs26lDL6qRPME_9fastskill4core14registry_index20migrate_index_formats_0B7_
FN:99,_RNCNvNtNtCs26lDL6qRPME_9fastskill4core14registry_index20update_skill_version0B7_
FN:414,_RNCNvNtNtCs26lDL6qRPME_9fastskill4core14registry_index24determine_latest_version0B7_
FN:423,_RNCNvNtNtCs26lDL6qRPME_9fastskill4core14registry_index24determine_latest_versions0_0B7_
FN:415,_RNCNvNtNtCs26lDL6qRPME_9fastskill4core14registry_index24determine_latest_versions_0B7_
FN:261,_RINvNtNtCs26lDL6qRPME_9fastskill4core14registry_index25serialize_datetime_optionINtNtCseH6nbJrdgGl_10serde_json3ser18RawValueStrEmitterQINtNtCs6oyAry3tzoT_5alloc3vec3VechENtB1j_15PrettyFormatterEECsfVElPQFRzD4_9fastskill
FN:261,_RINvNtNtCs26lDL6qRPME_9fastskill4core14registry_index25serialize_datetime_optionQINtNtCseH6nbJrdgGl_10serde_json3ser10SerializerQINtNtCs6oyAry3tzoT_5alloc3vec3VechENtB1k_15PrettyFormatterEECsfVElPQFRzD4_9fastskill
FN:332,_RNCNvNtNtCsjhmHPBDWNUU_9fastskill4core14registry_index20migrate_index_format0B7_
FN:367,_RNCNvNtNtCsjhmHPBDWNUU_9fastskill4core14registry_index20migrate_index_formats0_0B7_
FN:337,_RNCNvNtNtCsjhmHPBDWNUU_9fastskill4core14registry_index20migrate_index_formats_0B7_
FN:313,_RNvNtNtCsjhmHPBDWNUU_9fastskill4core14registry_index20migrate_index_format
FN:378,_RNvNtNtCsjhmHPBDWNUU_9fastskill4core14registry_index24parse_old_index_filename
FN:37,_RNvNtNtCsjhmHPBDWNUU_9fastskill4core14registry_index25create_registry_structure
FN:633,_RNvNtNtNtCsjhmHPBDWNUU_9fastskill4core14registry_index5testss_25test_get_skill_index_path
FN:707,_RNvNtNtNtCsjhmHPBDWNUU_9fastskill4core14registry_index5testss_29test_newline_delimited_format
FN:658,_RNvNtNtNtCsjhmHPBDWNUU_9fastskill4core14registry_index5testss_35test_update_and_read_skill_versions
FN:261,_RINvNtNtCsjhmHPBDWNUU_9fastskill4core14registry_index25serialize_datetime_optionINtNtCseH6nbJrdgGl_10serde_json3ser18RawValueStrEmitterQINtNtNtCs2qxQS2MOnST_5bytes3buf6writer6WriterNtNtB2h_9bytes_mut8BytesMutENtB1j_16CompactFormatterEEB6_
FN:261,_RINvNtNtCsjhmHPBDWNUU_9fastskill4core14registry_index25serialize_datetime_optionQINtNtCseH6nbJrdgGl_10serde_json3ser10SerializerQINtNtNtCs2qxQS2MOnST_5bytes3buf6writer6WriterNtNtB2a_9bytes_mut8BytesMutEEEB6_
FN:275,_RINvNtNtCsjhmHPBDWNUU_9fastskill4core14registry_index27deserialize_datetime_optionQINtNtCseH6nbJrdgGl_10serde_json2de12DeserializerNtNtB1o_4read9SliceReadEEB6_
FN:283,_RNCINvNtNtCsjhmHPBDWNUU_9fastskill4core14registry_index27deserialize_datetime_optionQINtNtCseH6nbJrdgGl_10serde_json2de12DeserializerNtNtB1q_4read9SliceReadEE0B8_
FN:454,_RNCNCNvNtNtCsjhmHPBDWNUU_9fastskill4core14registry_index19scan_registry_index00B9_
FN:462,_RNCNCNvNtNtCsjhmHPBDWNUU_9fastskill4core14registry_index19scan_registry_index0s0_0B9_
FN:470,_RNCNCNvNtNtCsjhmHPBDWNUU_9fastskill4core14registry_index19scan_registry_index0s1_0B9_
FN:479,_RNCNCNvNtNtCsjhmHPBDWNUU_9fastskill4core14registry_index19scan_registry_index0s2_0B9_
FN:525,_RNCNCNvNtNtCsjhmHPBDWNUU_9fastskill4core14registry_index19scan_registry_index0s3_0B9_
FN:560,_RNCNCNvNtNtCsjhmHPBDWNUU_9fastskill4core14registry_index19scan_registry_index0s4_0B9_
FN:585,_RNCNCNvNtNtCsjhmHPBDWNUU_9fastskill4core14registry_index19scan_registry_index0s5_0B9_
FN:593,_RNCNCNvNtNtCsjhmHPBDWNUU_9fastskill4core14registry_index19scan_registry_index0s6_0B9_
FN:594,_RNCNCNvNtNtCsjhmHPBDWNUU_9fastskill4core14registry_index19scan_registry_index0s7_0B9_
FN:601,_RNCNCNvNtNtCsjhmHPBDWNUU_9fastskill4core14registry_index19scan_registry_index0s8_0B9_
FN:602,_RNCNCNvNtNtCsjhmHPBDWNUU_9fastskill4core14registry_index19scan_registry_index0s9_0B9_
FN:461,_RNCNCNvNtNtCsjhmHPBDWNUU_9fastskill4core14registry_index19scan_registry_index0s_0B9_
FN:621,_RNCNCNvNtNtCsjhmHPBDWNUU_9fastskill4core14registry_index19scan_registry_index0sa_0B9_
FN:402,_RNCNvNtNtCsjhmHPBDWNUU_9fastskill4core14registry_index14is_pre_release0B7_
FN:442,_RNCNvNtNtCsjhmHPBDWNUU_9fastskill4core14registry_index19scan_registry_index0B7_
FN:99,_RNCNvNtNtCsjhmHPBDWNUU_9fastskill4core14registry_index20update_skill_version0B7_
FN:414,_RNCNvNtNtCsjhmHPBDWNUU_9fastskill4core14registry_index24determine_latest_version0B7_
FN:423,_RNCNvNtNtCsjhmHPBDWNUU_9fastskill4core14registry_index24determine_latest_versions0_0B7_
FN:415,_RNCNvNtNtCsjhmHPBDWNUU_9fastskill4core14registry_index24determine_latest_versions_0B7_
FN:25,_RNvMNtNtCsjhmHPBDWNUU_9fastskill4core14registry_indexNtB2_15ScopedSkillName9normalize
FN:390,_RNvNtNtCsjhmHPBDWNUU_9fastskill4core14registry_index13extract_scope
FN:400,_RNvNtNtCsjhmHPBDWNUU_9fastskill4core14registry_index14is_pre_release
FN:115,_RNvNtNtCsjhmHPBDWNUU_9fastskill4core14registry_index19read_skill_versions
FN:439,_RNvNtNtCsjhmHPBDWNUU_9fastskill4core14registry_index19scan_registry_index
FN:45,_RNvNtNtCsjhmHPBDWNUU_9fastskill4core14registry_index20get_skill_index_path
FN:155,_RNvNtNtCsjhmHPBDWNUU_9fastskill4core14registry_index20get_version_metadata
FN:68,_RNvNtNtCsjhmHPBDWNUU_9fastskill4core14registry_index20update_skill_version
FN:290,_RNvNtNtCsjhmHPBDWNUU_9fastskill4core14registry_index23calculate_file_checksum
FN:408,_RNvNtNtCsjhmHPBDWNUU_9fastskill4core14registry_index24determine_latest_version
FN:261,_RINvNtNtCs26lDL6qRPME_9fastskill4core14registry_index25serialize_datetime_optionINtNtCseH6nbJrdgGl_10serde_json3ser18RawValueStrEmitterQINtNtCs6oyAry3tzoT_5alloc3vec3VechENtB1j_15PrettyFormatterEECs4etJKk8xmvn_9fastskill
FN:261,_RINvNtNtCs26lDL6qRPME_9fastskill4core14registry_index25serialize_datetime_optionQINtNtCseH6nbJrdgGl_10serde_json3ser10SerializerQINtNtCs6oyAry3tzoT_5alloc3vec3VechENtB1k_15PrettyFormatterEECs4etJKk8xmvn_9fastskill
FN:261,_RINvNtNtCs26lDL6qRPME_9fastskill4core14registry_index25serialize_datetime_optionINtNtCseH6nbJrdgGl_10serde_json3ser18RawValueStrEmitterQINtNtCs6oyAry3tzoT_5alloc3vec3VechENtB1j_15PrettyFormatterEECsjg5Q3WfS3vj_30integration_registry_list_test
FN:261,_RINvNtNtCs26lDL6qRPME_9fastskill4core14registry_index25serialize_datetime_optionINtNtCseH6nbJrdgGl_10serde_json3ser18RawValueStrEmitterQINtNtCs6oyAry3tzoT_5alloc3vec3VechENtB1j_16CompactFormatterEECsjg5Q3WfS3vj_30integration_registry_list_test
FN:261,_RINvNtNtCs26lDL6qRPME_9fastskill4core14registry_index25serialize_datetime_optionQINtNtCseH6nbJrdgGl_10serde_json3ser10SerializerQINtNtCs6oyAry3tzoT_5alloc3vec3VechEEECsjg5Q3WfS3vj_30integration_registry_list_test
FN:261,_RINvNtNtCs26lDL6qRPME_9fastskill4core14registry_index25serialize_datetime_optionQINtNtCseH6nbJrdgGl_10serde_json3ser10SerializerQINtNtCs6oyAry3tzoT_5alloc3vec3VechENtB1k_15PrettyFormatterEECsjg5Q3WfS3vj_30integration_registry_list_test
FN:275,_RINvNtNtCs26lDL6qRPME_9fastskill4core14registry_index27deserialize_datetime_optionQINtNtCseH6nbJrdgGl_10serde_json2de12DeserializerNtNtB1o_4read7StrReadEECsjg5Q3WfS3vj_30integration_registry_list_test
FN:283,_RNCINvNtNtCs26lDL6qRPME_9fastskill4core14registry_index27deserialize_datetime_optionQINtNtCseH6nbJrdgGl_10serde_json2de12DeserializerNtNtB1q_4read7StrReadEE0Csjg5Q3WfS3vj_30integration_registry_list_test
FNDA:139,_RNvMNtNtCs26lDL6qRPME_9fastskill4core14registry_indexNtB2_15ScopedSkillName9normalize
FNDA:2116,_RNvNtNtCs26lDL6qRPME_9fastskill4core14registry_index13extract_scope
FNDA:210,_RNvNtNtCs26lDL6qRPME_9fastskill4core14registry_index14is_pre_release
FNDA:237,_RNvNtNtCs26lDL6qRPME_9fastskill4core14registry_index19read_skill_versions
FNDA:5,_RNvNtNtCs26lDL6qRPME_9fastskill4core14registry_index19scan_registry_index
FNDA:1392,_RNvNtNtCs26lDL6qRPME_9fastskill4core14registry_index20get_skill_index_path
FNDA:0,_RNvNtNtCs26lDL6qRPME_9fastskill4core14registry_index20get_version_metadata
FNDA:0,_RNvNtNtCs26lDL6qRPME_9fastskill4core14registry_index20migrate_index_format
FNDA:1020,_RNvNtNtCs26lDL6qRPME_9fastskill4core14registry_index20update_skill_version
FNDA:0,_RNvNtNtCs26lDL6qRPME_9fastskill4core14registry_index23calculate_file_checksum
FNDA:102,_RNvNtNtCs26lDL6qRPME_9fastskill4core14registry_index24determine_latest_version
FNDA:0,_RNvNtNtCs26lDL6qRPME_9fastskill4core14registry_index24parse_old_index_filename
FNDA:0,_RNvNtNtCs26lDL6qRPME_9fastskill4core14registry_index25create_registry_structure
FNDA:0,_RINvNtNtCs26lDL6qRPME_9fastskill4core14registry_index25serialize_datetime_optionINtNtCseH6nbJrdgGl_10serde_json3ser18RawValueStrEmitterQINtNtNtCs2qxQS2MOnST_5bytes3buf6writer6WriterNtNtB2h_9bytes_mut8BytesMutENtB1j_16CompactFormatterEEB6_
FNDA:0,_RINvNtNtCs26lDL6qRPME_9fastskill4core14registry_index25serialize_datetime_optionQINtNtCseH6nbJrdgGl_10serde_json3ser10SerializerQINtNtNtCs2qxQS2MOnST_5bytes3buf6writer6WriterNtNtB2a_9bytes_mut8BytesMutEEEB6_
FNDA:1032,_RINvNtNtCs26lDL6qRPME_9fastskill4core14registry_index27deserialize_datetime_optionQINtNtCseH6nbJrdgGl_10serde_json2de12DeserializerNtNtB1o_4read9SliceReadEEB6_
FNDA:1032,_RNCINvNtNtCs26lDL6qRPME_9fastskill4core14registry_index27deserialize_datetime_optionQINtNtCseH6nbJrdgGl_10serde_json2de12DeserializerNtNtB1q_4read9SliceReadEE0B8_
FNDA:0,_RNCNCNvNtNtCs26lDL6qRPME_9fastskill4core14registry_index19scan_registry_index00B9_
FNDA:1007,_RNCNCNvNtNtCs26lDL6qRPME_9fastskill4core14registry_index19scan_registry_index0s0_0B9_
FNDA:0,_RNCNCNvNtNtCs26lDL6qRPME_9fastskill4core14registry_index19scan_registry_index0s1_0B9_
FNDA:2014,_RNCNCNvNtNtCs26lDL6qRPME_9fastskill4core14registry_index19scan_registry_index0s2_0B9_
FNDA:0,_RNCNCNvNtNtCs26lDL6qRPME_9fastskill4core14registry_index19scan_registry_index0s3_0B9_
FNDA:5,_RNCNCNvNtNtCs26lDL6qRPME_9fastskill4core14registry_index19scan_registry_index0s4_0B9_
FNDA:102,_RNCNCNvNtNtCs26lDL6qRPME_9fastskill4core14registry_index19scan_registry_index0s5_0B9_
FNDA:0,_RNCNCNvNtNtCs26lDL6qRPME_9fastskill4core14registry_index19scan_registry_index0s6_0B9_
FNDA:0,_RNCNCNvNtNtCs26lDL6qRPME_9fastskill4core14registry_index19scan_registry_index0s7_0B9_
FNDA:102,_RNCNCNvNtNtCs26lDL6qRPME_9fastskill4core14registry_index19scan_registry_index0s8_0B9_
FNDA:102,_RNCNCNvNtNtCs26lDL6qRPME_9fastskill4core14registry_index19scan_registry_index0s9_0B9_
FNDA:1007,_RNCNCNvNtNtCs26lDL6qRPME_9fastskill4core14registry_index19scan_registry_index0s_0B9_
FNDA:736,_RNCNCNvNtNtCs26lDL6qRPME_9fastskill4core14registry_index19scan_registry_index0sa_0B9_
FNDA:210,_RNCNvNtNtCs26lDL6qRPME_9fastskill4core14registry_index14is_pre_release0B7_
FNDA:5,_RNCNvNtNtCs26lDL6qRPME_9fastskill4core14registry_index19scan_registry_index0B7_
FNDA:0,_RNCNvNtNtCs26lDL6qRPME_9fastskill4core14registry_index20migrate_index_format0B7_
FNDA:0,_RNCNvNtNtCs26lDL6qRPME_9fastskill4core14registry_index20migrate_index_formats0_0B7_
FNDA:0,_RNCNvNtNtCs26lDL6qRPME_9fastskill4core14registry_index20migrate_index_formats_0B7_
FNDA:0,_RNCNvNtNtCs26lDL6qRPME_9fastskill4core14registry_index20update_skill_version0B7_
FNDA:102,_RNCNvNtNtCs26lDL6qRPME_9fastskill4core14registry_index24determine_latest_version0B7_
FNDA:0,_RNCNvNtNtCs26lDL6qRPME_9fastskill4core14registry_index24determine_latest_versions0_0B7_
FNDA:102,_RNCNvNtNtCs26lDL6qRPME_9fastskill4core14registry_index24determine_latest_versions_0B7_
FNDA:0,_RINvNtNtCs26lDL6qRPME_9fastskill4core14registry_index25serialize_datetime_optionINtNtCseH6nbJrdgGl_10serde_json3ser18RawValueStrEmitterQINtNtCs6oyAry3tzoT_5alloc3vec3VechENtB1j_15PrettyFormatterEECsfVElPQFRzD4_9fastskill
FNDA:0,_RINvNtNtCs26lDL6qRPME_9fastskill4core14registry_index25serialize_datetime_optionQINtNtCseH6nbJrdgGl_10serde_json3ser10SerializerQINtNtCs6oyAry3tzoT_5alloc3vec3VechENtB1k_15PrettyFormatterEECsfVElPQFRzD4_9fastskill
FNDA:0,_RNCNvNtNtCsjhmHPBDWNUU_9fastskill4core14registry_index20migrate_index_format0B7_
FNDA:0,_RNCNvNtNtCsjhmHPBDWNUU_9fastskill4core14registry_index20migrate_index_formats0_0B7_
FNDA:0,_RNCNvNtNtCsjhmHPBDWNUU_9fastskill4core14registry_index20migrate_index_formats_0B7_
FNDA:0,_RNvNtNtCsjhmHPBDWNUU_9fastskill4core14registry_index20migrate_index_format
FNDA:0,_RNvNtNtCsjhmHPBDWNUU_9fastskill4core14registry_index24parse_old_index_filename
FNDA:0,_RNvNtNtCsjhmHPBDWNUU_9fastskill4core14registry_index25create_registry_structure
FNDA:1,_RNvNtNtNtCsjhmHPBDWNUU_9fastskill4core14registry_index5testss_25test_get_skill_index_path
FNDA:1,_RNvNtNtNtCsjhmHPBDWNUU_9fastskill4core14registry_index5testss_29test_newline_delimited_format
FNDA:1,_RNvNtNtNtCsjhmHPBDWNUU_9fastskill4core14registry_index5testss_35test_update_and_read_skill_versions
FNDA:0,_RINvNtNtCsjhmHPBDWNUU_9fastskill4core14registry_index25serialize_datetime_optionINtNtCseH6nbJrdgGl_10serde_json3ser18RawValueStrEmitterQINtNtNtCs2qxQS2MOnST_5bytes3buf6writer6WriterNtNtB2h_9bytes_mut8BytesMutENtB1j_16CompactFormatterEEB6_
FNDA:0,_RINvNtNtCsjhmHPBDWNUU_9fastskill4core14registry_index25serialize_datetime_optionQINtNtCseH6nbJrdgGl_10serde_json3ser10SerializerQINtNtNtCs2qxQS2MOnST_5bytes3buf6writer6WriterNtNtB2a_9bytes_mut8BytesMutEEEB6_
FNDA:0,_RINvNtNtCsjhmHPBDWNUU_9fastskill4core14registry_index27deserialize_datetime_optionQINtNtCseH6nbJrdgGl_10serde_json2de12DeserializerNtNtB1o_4read9SliceReadEEB6_
FNDA:0,_RNCINvNtNtCsjhmHPBDWNUU_9fastskill4core14registry_index27deserialize_datetime_optionQINtNtCseH6nbJrdgGl_10serde_json2de12DeserializerNtNtB1q_4read9SliceReadEE0B8_
FNDA:0,_RNCNCNvNtNtCsjhmHPBDWNUU_9fastskill4core14registry_index19scan_registry_index00B9_
FNDA:0,_RNCNCNvNtNtCsjhmHPBDWNUU_9fastskill4core14registry_index19scan_registry_index0s0_0B9_
FNDA:0,_RNCNCNvNtNtCsjhmHPBDWNUU_9fastskill4core14registry_index19scan_registry_index0s1_0B9_
FNDA:0,_RNCNCNvNtNtCsjhmHPBDWNUU_9fastskill4core14registry_index19scan_registry_index0s2_0B9_
FNDA:0,_RNCNCNvNtNtCsjhmHPBDWNUU_9fastskill4core14registry_index19scan_registry_index0s3_0B9_
FNDA:0,_RNCNCNvNtNtCsjhmHPBDWNUU_9fastskill4core14registry_index19scan_registry_index0s4_0B9_
FNDA:0,_RNCNCNvNtNtCsjhmHPBDWNUU_9fastskill4core14registry_index19scan_registry_index0s5_0B9_
FNDA:0,_RNCNCNvNtNtCsjhmHPBDWNUU_9fastskill4core14registry_index19scan_registry_index0s6_0B9_
FNDA:0,_RNCNCNvNtNtCsjhmHPBDWNUU_9fastskill4core14registry_index19scan_registry_index0s7_0B9_
FNDA:0,_RNCNCNvNtNtCsjhmHPBDWNUU_9fastskill4core14registry_index19scan_registry_index0s8_0B9_
FNDA:0,_RNCNCNvNtNtCsjhmHPBDWNUU_9fastskill4core14registry_index19scan_registry_index0s9_0B9_
FNDA:0,_RNCNCNvNtNtCsjhmHPBDWNUU_9fastskill4core14registry_index19scan_registry_index0s_0B9_
FNDA:0,_RNCNCNvNtNtCsjhmHPBDWNUU_9fastskill4core14registry_index19scan_registry_index0sa_0B9_
FNDA:0,_RNCNvNtNtCsjhmHPBDWNUU_9fastskill4core14registry_index14is_pre_release0B7_
FNDA:0,_RNCNvNtNtCsjhmHPBDWNUU_9fastskill4core14registry_index19scan_registry_index0B7_
FNDA:0,_RNCNvNtNtCsjhmHPBDWNUU_9fastskill4core14registry_index20update_skill_version0B7_
FNDA:0,_RNCNvNtNtCsjhmHPBDWNUU_9fastskill4core14registry_index24determine_latest_version0B7_
FNDA:0,_RNCNvNtNtCsjhmHPBDWNUU_9fastskill4core14registry_index24determine_latest_versions0_0B7_
FNDA:0,_RNCNvNtNtCsjhmHPBDWNUU_9fastskill4core14registry_index24determine_latest_versions_0B7_
FNDA:0,_RNvMNtNtCsjhmHPBDWNUU_9fastskill4core14registry_indexNtB2_15ScopedSkillName9normalize
FNDA:0,_RNvNtNtCsjhmHPBDWNUU_9fastskill4core14registry_index13extract_scope
FNDA:0,_RNvNtNtCsjhmHPBDWNUU_9fastskill4core14registry_index14is_pre_release
FNDA:1,_RNvNtNtCsjhmHPBDWNUU_9fastskill4core14registry_index19read_skill_versions
FNDA:0,_RNvNtNtCsjhmHPBDWNUU_9fastskill4core14registry_index19scan_registry_index
FNDA:8,_RNvNtNtCsjhmHPBDWNUU_9fastskill4core14registry_index20get_skill_index_path
FNDA:0,_RNvNtNtCsjhmHPBDWNUU_9fastskill4core14registry_index20get_version_metadata
FNDA:3,_RNvNtNtCsjhmHPBDWNUU_9fastskill4core14registry_index20update_skill_version
FNDA:0,_RNvNtNtCsjhmHPBDWNUU_9fastskill4core14registry_index23calculate_file_checksum
FNDA:0,_RNvNtNtCsjhmHPBDWNUU_9fastskill4core14registry_index24determine_latest_version
FNDA:0,_RINvNtNtCs26lDL6qRPME_9fastskill4core14registry_index25serialize_datetime_optionINtNtCseH6nbJrdgGl_10serde_json3ser18RawValueStrEmitterQINtNtCs6oyAry3tzoT_5alloc3vec3VechENtB1j_15PrettyFormatterEECs4etJKk8xmvn_9fastskill
FNDA:0,_RINvNtNtCs26lDL6qRPME_9fastskill4core14registry_index25serialize_datetime_optionQINtNtCseH6nbJrdgGl_10serde_json3ser10SerializerQINtNtCs6oyAry3tzoT_5alloc3vec3VechENtB1k_15PrettyFormatterEECs4etJKk8xmvn_9fastskill
FNDA:0,_RINvNtNtCs26lDL6qRPME_9fastskill4core14registry_index25serialize_datetime_optionINtNtCseH6nbJrdgGl_10serde_json3ser18RawValueStrEmitterQINtNtCs6oyAry3tzoT_5alloc3vec3VechENtB1j_15PrettyFormatterEECsjg5Q3WfS3vj_30integration_registry_list_test
FNDA:0,_RINvNtNtCs26lDL6qRPME_9fastskill4core14registry_index25serialize_datetime_optionINtNtCseH6nbJrdgGl_10serde_json3ser18RawValueStrEmitterQINtNtCs6oyAry3tzoT_5alloc3vec3VechENtB1j_16CompactFormatterEECsjg5Q3WfS3vj_30integration_registry_list_test
FNDA:1026,_RINvNtNtCs26lDL6qRPME_9fastskill4core14registry_index25serialize_datetime_optionQINtNtCseH6nbJrdgGl_10serde_json3ser10SerializerQINtNtCs6oyAry3tzoT_5alloc3vec3VechEEECsjg5Q3WfS3vj_30integration_registry_list_test
FNDA:5,_RINvNtNtCs26lDL6qRPME_9fastskill4core14registry_index25serialize_datetime_optionQINtNtCseH6nbJrdgGl_10serde_json3ser10SerializerQINtNtCs6oyAry3tzoT_5alloc3vec3VechENtB1k_15PrettyFormatterEECsjg5Q3WfS3vj_30integration_registry_list_test
FNDA:5,_RINvNtNtCs26lDL6qRPME_9fastskill4core14registry_index27deserialize_datetime_optionQINtNtCseH6nbJrdgGl_10serde_json2de12DeserializerNtNtB1o_4read7StrReadEECsjg5Q3WfS3vj_30integration_registry_list_test
FNDA:5,_RNCINvNtNtCs26lDL6qRPME_9fastskill4core14registry_index27deserialize_datetime_optionQINtNtCseH6nbJrdgGl_10serde_json2de12DeserializerNtNtB1q_4read7StrReadEE0Csjg5Q3WfS3vj_30integration_registry_list_test
FNF:41
FNH:26
DA:25,139
DA:26,139
DA:29,139
DA:32,139
DA:33,139
DA:37,0
DA:38,0
DA:39,0
DA:40,0
DA:45,1400
DA:48,1400
DA:53,1400
DA:54,0
DA:58,1400
DA:60,1400
DA:61,1400
DA:63,1400
DA:64,1400
DA:68,1023
DA:69,1023
DA:70,1023
DA:71,1023
DA:72,1023
DA:73,1023
DA:75,1023
DA:78,1023
DA:79,1023
DA:80,0
DA:83,1023
DA:84,1023
DA:85,1023
DA:86,1023
DA:87,1023
DA:88,1023
DA:89,1023
DA:90,1023
DA:91,1023
DA:92,1023
DA:93,1023
DA:94,1023
DA:95,1023
DA:98,1023
DA:99,1023
DA:102,1023
DA:103,1023
DA:104,1023
DA:105,1023
DA:106,1023
DA:108,1023
DA:110,1023
DA:111,1023
DA:115,238
DA:116,238
DA:117,238
DA:118,238
DA:119,238
DA:121,238
DA:122,1
DA:123,237
DA:125,237
DA:127,237
DA:130,297
DA:131,297
DA:132,297
DA:133,0
DA:134,297
DA:136,297
DA:137,297
DA:138,0
DA:142,0
DA:151,237
DA:152,238
DA:155,0
DA:156,0
DA:157,0
DA:158,0
DA:159,0
DA:161,0
DA:163,0
DA:164,0
DA:165,0
DA:166,0
DA:167,0
DA:168,0
DA:169,0
DA:170,0
DA:171,0
DA:172,0
DA:173,0
DA:174,0
DA:175,0
DA:261,1031
DA:262,1031
DA:263,1031
DA:264,1031
DA:265,1031
DA:266,1031
DA:268,1031
DA:269,1031
DA:270,0
DA:272,1031
DA:275,1037
DA:276,1037
DA:277,1037
DA:280,1037
DA:281,1037
DA:282,1037
DA:283,1037
DA:284,1037
DA:285,0
DA:287,1037
DA:290,0
DA:291,0
DA:293,0
DA:294,0
DA:297,0
DA:299,0
DA:300,0
DA:301,0
DA:303,0
DA:306,0
DA:307,0
DA:308,0
DA:313,0
DA:314,0
DA:315,0
DA:316,0
DA:319,0
DA:322,0
DA:323,0
DA:324,0
DA:325,0
DA:328,0
DA:329,0
DA:331,0
DA:332,0
DA:333,0
DA:335,0
DA:337,0
DA:338,0
DA:340,0
DA:342,0
DA:343,0
DA:344,0
DA:345,0
DA:346,0
DA:347,0
DA:348,0
DA:349,0
DA:350,0
DA:354,0
DA:355,0
DA:358,0
DA:359,0
DA:360,0
DA:363,0
DA:365,0
DA:366,0
DA:367,0
DA:368,0
DA:371,0
DA:374,0
DA:375,0
DA:378,0
DA:379,0
DA:380,0
DA:381,0
DA:382,0
DA:383,0
DA:385,0
DA:387,0
DA:390,2116
DA:391,2116
DA:392,2116
DA:393,2116
DA:395,0
DA:397,2116
DA:400,210
DA:401,210
DA:402,210
DA:403,210
DA:404,210
DA:408,102
DA:409,102
DA:410,102
DA:411,102
DA:412,102
DA:413,102
DA:414,102
DA:415,102
DA:416,102
DA:418,102
DA:419,0
DA:420,102
DA:423,102
DA:424,0
DA:425,0
DA:426,0
DA:427,0
DA:428,0
DA:429,0
DA:430,0
DA:432,0
DA:434,102
DA:435,102
DA:439,5
DA:440,5
DA:441,5
DA:442,5
DA:445,5
DA:446,0
DA:447,5
DA:449,5
DA:450,5
DA:453,1023
DA:454,1023
DA:455,1023
DA:458,1023
DA:459,1007
DA:460,1007
DA:461,1007
DA:462,1007
DA:463,1007
DA:465,16
DA:466,1007
DA:470,1007
DA:471,0
DA:472,0
DA:473,0
DA:474,0
DA:475,0
DA:477,1007
DA:478,1007
DA:479,2014
DA:480,1007
DA:483,1007
DA:484,0
DA:485,0
DA:486,1007
DA:489,1007
DA:492,1007
DA:493,0
DA:494,0
DA:495,1007
DA:498,1007
DA:499,1005
DA:500,1005
DA:501,903
DA:502,102
DA:504,0
DA:506,2
DA:509,104
DA:510,104
DA:511,104
DA:512,104
DA:513,104
DA:515,0
DA:516,0
DA:522,5
DA:524,104
DA:525,104
DA:526,0
DA:527,0
DA:529,104
DA:531,2
DA:532,6
DA:534,6
DA:535,0
DA:536,6
DA:539,6
DA:540,0
DA:541,6
DA:544,6
DA:545,1
DA:549,1
DA:550,5
DA:551,5
DA:554,5
DA:557,5
DA:558,5
DA:559,5
DA:560,5
DA:561,5
DA:563,5
DA:564,5
DA:565,5
DA:566,5
DA:567,5
DA:568,5
DA:569,5
DA:570,5
DA:571,5
DA:575,102
DA:576,102
DA:579,102
DA:582,102
DA:583,102
DA:584,102
DA:585,102
DA:586,102
DA:589,102
DA:591,0
DA:592,0
DA:593,0
DA:594,0
DA:595,0
DA:599,102
DA:600,102
DA:601,102
DA:602,102
DA:603,102
DA:607,102
DA:608,102
DA:609,102
DA:610,102
DA:611,102
DA:612,102
DA:613,102
DA:614,102
DA:615,102
DA:616,0
DA:621,736
DA:623,5
DA:624,5
DA:633,1
DA:634,1
DA:635,1
DA:638,1
DA:639,1
DA:642,1
DA:643,1
DA:646,1
DA:647,1
DA:655,1
DA:658,1
DA:659,1
DA:660,1
DA:662,1
DA:663,1
DA:664,1
DA:667,1
DA:668,1
DA:669,1
DA:670,1
DA:671,1
DA:672,1
DA:673,1
DA:674,1
DA:675,1
DA:676,1
DA:677,1
DA:678,1
DA:680,1
DA:681,1
DA:682,1
DA:683,1
DA:684,1
DA:685,1
DA:686,1
DA:687,1
DA:688,1
DA:689,1
DA:690,1
DA:691,1
DA:694,1
DA:697,1
DA:700,1
DA:701,1
DA:702,1
DA:703,1
DA:704,1
DA:707,1
DA:708,1
DA:709,1
DA:711,1
DA:712,1
DA:713,1
DA:714,1
DA:715,1
DA:716,1
DA:717,1
DA:718,1
DA:719,1
DA:720,1
DA:721,1
DA:722,1
DA:723,1
DA:725,1
DA:728,1
DA:729,1
DA:732,1
DA:733,1
DA:736,1
DA:737,1
DA:738,1
BRF:0
BRH:0
LF:420
LH:285
end_of_record
SF:/home/sysuser/ws001/gofastskill/fastskill/src/core/repository.rs
FN:270,_RNCNCNvMNtNtCs26lDL6qRPME_9fastskill4core10repositoryNtB6_17RepositoryManager10get_client00Ba_
FN:257,_RNCNvMNtNtCs26lDL6qRPME_9fastskill4core10repositoryNtB4_17RepositoryManager10get_client0B8_
FN:201,_RNCNvMNtNtCs26lDL6qRPME_9fastskill4core10repositoryNtB4_17RepositoryManager11save_config0B8_
FN:156,_RNCNvMNtNtCs26lDL6qRPME_9fastskill4core10repositoryNtB4_17RepositoryManager4load0B8_
FN:254,_RNvMNtNtCs26lDL6qRPME_9fastskill4core10repositoryNtB2_17RepositoryManager10get_client
FN:195,_RNvMNtNtCs26lDL6qRPME_9fastskill4core10repositoryNtB2_17RepositoryManager11save_config
FN:211,_RNvMNtNtCs26lDL6qRPME_9fastskill4core10repositoryNtB2_17RepositoryManager14add_repository
FN:242,_RNvMNtNtCs26lDL6qRPME_9fastskill4core10repositoryNtB2_17RepositoryManager14get_repository
FN:133,_RNvMNtNtCs26lDL6qRPME_9fastskill4core10repositoryNtB2_17RepositoryManager16from_definitions
FN:247,_RNvMNtNtCs26lDL6qRPME_9fastskill4core10repositoryNtB2_17RepositoryManager17list_repositories
FN:228,_RNvMNtNtCs26lDL6qRPME_9fastskill4core10repositoryNtB2_17RepositoryManager17remove_repository
FN:281,_RNvMNtNtCs26lDL6qRPME_9fastskill4core10repositoryNtB2_17RepositoryManager22get_default_repository
FN:123,_RNvMNtNtCs26lDL6qRPME_9fastskill4core10repositoryNtB2_17RepositoryManager3new
FN:151,_RNvMNtNtCs26lDL6qRPME_9fastskill4core10repositoryNtB2_17RepositoryManager4load
FN:185,_RNvMNtNtCs26lDL6qRPME_9fastskill4core10repositoryNtB2_17RepositoryManager4save
FN:40,_RNvNtNtCs26lDL6qRPME_9fastskill4core10repository16default_priority
FN:270,_RNCNCNvMNtNtCs26lDL6qRPME_9fastskill4core10repositoryNtB6_17RepositoryManager10get_client00CsfVElPQFRzD4_9fastskill
FN:257,_RNCNvMNtNtCs26lDL6qRPME_9fastskill4core10repositoryNtB4_17RepositoryManager10get_client0CsfVElPQFRzD4_9fastskill
FN:270,_RNCNCNvMNtNtCsjhmHPBDWNUU_9fastskill4core10repositoryNtB6_17RepositoryManager10get_client00Ba_
FN:257,_RNCNvMNtNtCsjhmHPBDWNUU_9fastskill4core10repositoryNtB4_17RepositoryManager10get_client0B8_
FN:201,_RNCNvMNtNtCsjhmHPBDWNUU_9fastskill4core10repositoryNtB4_17RepositoryManager11save_config0B8_
FN:156,_RNCNvMNtNtCsjhmHPBDWNUU_9fastskill4core10repositoryNtB4_17RepositoryManager4load0B8_
FN:254,_RNvMNtNtCsjhmHPBDWNUU_9fastskill4core10repositoryNtB2_17RepositoryManager10get_client
FN:195,_RNvMNtNtCsjhmHPBDWNUU_9fastskill4core10repositoryNtB2_17RepositoryManager11save_config
FN:211,_RNvMNtNtCsjhmHPBDWNUU_9fastskill4core10repositoryNtB2_17RepositoryManager14add_repository
FN:242,_RNvMNtNtCsjhmHPBDWNUU_9fastskill4core10repositoryNtB2_17RepositoryManager14get_repository
FN:228,_RNvMNtNtCsjhmHPBDWNUU_9fastskill4core10repositoryNtB2_17RepositoryManager17remove_repository
FN:281,_RNvMNtNtCsjhmHPBDWNUU_9fastskill4core10repositoryNtB2_17RepositoryManager22get_default_repository
FN:123,_RNvMNtNtCsjhmHPBDWNUU_9fastskill4core10repositoryNtB2_17RepositoryManager3new
FN:151,_RNvMNtNtCsjhmHPBDWNUU_9fastskill4core10repositoryNtB2_17RepositoryManager4load
FN:185,_RNvMNtNtCsjhmHPBDWNUU_9fastskill4core10repositoryNtB2_17RepositoryManager4save
FN:40,_RNvNtNtCsjhmHPBDWNUU_9fastskill4core10repository16default_priority
FN:133,_RNvMNtNtCsjhmHPBDWNUU_9fastskill4core10repositoryNtB2_17RepositoryManager16from_definitions
FN:247,_RNvMNtNtCsjhmHPBDWNUU_9fastskill4core10repositoryNtB2_17RepositoryManager17list_repositories
FN:270,_RNCNCNvMNtNtCs26lDL6qRPME_9fastskill4core10repositoryNtB6_17RepositoryManager10get_client00Cs4etJKk8xmvn_9fastskill
FN:257,_RNCNvMNtNtCs26lDL6qRPME_9fastskill4core10repositoryNtB4_17RepositoryManager10get_client0Cs4etJKk8xmvn_9fastskill
FNDA:0,_RNCNCNvMNtNtCs26lDL6qRPME_9fastskill4core10repositoryNtB6_17RepositoryManager10get_client00Ba_
FNDA:0,_RNCNvMNtNtCs26lDL6qRPME_9fastskill4core10repositoryNtB4_17RepositoryManager10get_client0B8_
FNDA:0,_RNCNvMNtNtCs26lDL6qRPME_9fastskill4core10repositoryNtB4_17RepositoryManager11save_config0B8_
FNDA:0,_RNCNvMNtNtCs26lDL6qRPME_9fastskill4core10repositoryNtB4_17RepositoryManager4load0B8_
FNDA:0,_RNvMNtNtCs26lDL6qRPME_9fastskill4core10repositoryNtB2_17RepositoryManager10get_client
FNDA:0,_RNvMNtNtCs26lDL6qRPME_9fastskill4core10repositoryNtB2_17RepositoryManager11save_config
FNDA:0,_RNvMNtNtCs26lDL6qRPME_9fastskill4core10repositoryNtB2_17RepositoryManager14add_repository
FNDA:0,_RNvMNtNtCs26lDL6qRPME_9fastskill4core10repositoryNtB2_17RepositoryManager14get_repository
FNDA:2,_RNvMNtNtCs26lDL6qRPME_9fastskill4core10repositoryNtB2_17RepositoryManager16from_definitions
FNDA:2,_RNvMNtNtCs26lDL6qRPME_9fastskill4core10repositoryNtB2_17RepositoryManager17list_repositories
FNDA:0,_RNvMNtNtCs26lDL6qRPME_9fastskill4core10repositoryNtB2_17RepositoryManager17remove_repository
FNDA:0,_RNvMNtNtCs26lDL6qRPME_9fastskill4core10repositoryNtB2_17RepositoryManager22get_default_repository
FNDA:1,_RNvMNtNtCs26lDL6qRPME_9fastskill4core10repositoryNtB2_17RepositoryManager3new
FNDA:0,_RNvMNtNtCs26lDL6qRPME_9fastskill4core10repositoryNtB2_17RepositoryManager4load
FNDA:0,_RNvMNtNtCs26lDL6qRPME_9fastskill4core10repositoryNtB2_17RepositoryManager4save
FNDA:0,_RNvNtNtCs26lDL6qRPME_9fastskill4core10repository16default_priority
FNDA:0,_RNCNCNvMNtNtCs26lDL6qRPME_9fastskill4core10repositoryNtB6_17RepositoryManager10get_client00CsfVElPQFRzD4_9fastskill
FNDA:0,_RNCNvMNtNtCs26lDL6qRPME_9fastskill4core10repositoryNtB4_17RepositoryManager10get_client0CsfVElPQFRzD4_9fastskill
FNDA:0,_RNCNCNvMNtNtCsjhmHPBDWNUU_9fastskill4core10repositoryNtB6_17RepositoryManager10get_client00Ba_
FNDA:0,_RNCNvMNtNtCsjhmHPBDWNUU_9fastskill4core10repositoryNtB4_17RepositoryManager10get_client0B8_
FNDA:0,_RNCNvMNtNtCsjhmHPBDWNUU_9fastskill4core10repositoryNtB4_17RepositoryManager11save_config0B8_
FNDA:0,_RNCNvMNtNtCsjhmHPBDWNUU_9fastskill4core10repositoryNtB4_17RepositoryManager4load0B8_
FNDA:0,_RNvMNtNtCsjhmHPBDWNUU_9fastskill4core10repositoryNtB2_17RepositoryManager10get_client
FNDA:0,_RNvMNtNtCsjhmHPBDWNUU_9fastskill4core10repositoryNtB2_17RepositoryManager11save_config
FNDA:0,_RNvMNtNtCsjhmHPBDWNUU_9fastskill4core10repositoryNtB2_17RepositoryManager14add_repository
FNDA:0,_RNvMNtNtCsjhmHPBDWNUU_9fastskill4core10repositoryNtB2_17RepositoryManager14get_repository
FNDA:0,_RNvMNtNtCsjhmHPBDWNUU_9fastskill4core10repositoryNtB2_17RepositoryManager17remove_repository
FNDA:0,_RNvMNtNtCsjhmHPBDWNUU_9fastskill4core10repositoryNtB2_17RepositoryManager22get_default_repository
FNDA:0,_RNvMNtNtCsjhmHPBDWNUU_9fastskill4core10repositoryNtB2_17RepositoryManager3new
FNDA:0,_RNvMNtNtCsjhmHPBDWNUU_9fastskill4core10repositoryNtB2_17RepositoryManager4load
FNDA:0,_RNvMNtNtCsjhmHPBDWNUU_9fastskill4core10repositoryNtB2_17RepositoryManager4save
FNDA:0,_RNvNtNtCsjhmHPBDWNUU_9fastskill4core10repository16default_priority
FNDA:0,_RNvMNtNtCsjhmHPBDWNUU_9fastskill4core10repositoryNtB2_17RepositoryManager16from_definitions
FNDA:0,_RNvMNtNtCsjhmHPBDWNUU_9fastskill4core10repositoryNtB2_17RepositoryManager17list_repositories
FNDA:0,_RNCNCNvMNtNtCs26lDL6qRPME_9fastskill4core10repositoryNtB6_17RepositoryManager10get_client00Cs4etJKk8xmvn_9fastskill
FNDA:0,_RNCNvMNtNtCs26lDL6qRPME_9fastskill4core10repositoryNtB4_17RepositoryManager10get_client0Cs4etJKk8xmvn_9fastskill
FNF:16
FNH:3
DA:40,0
DA:41,0
DA:42,0
DA:123,1
DA:124,1
DA:125,1
DA:126,1
DA:127,1
DA:128,1
DA:129,1
DA:133,2
DA:134,2
DA:135,2
DA:136,2
DA:138,2
DA:139,0
DA:140,0
DA:142,2
DA:143,2
DA:144,2
DA:145,2
DA:146,2
DA:147,2
DA:151,0
DA:152,0
DA:154,0
DA:156,0
DA:157,0
DA:158,0
DA:162,0
DA:163,0
DA:166,0
DA:167,0
DA:168,0
DA:169,0
DA:170,0
DA:172,0
DA:173,0
DA:176,0
DA:177,0
DA:178,0
DA:179,0
DA:180,0
DA:181,0
DA:182,0
DA:185,0
DA:186,0
DA:187,0
DA:188,0
DA:189,0
DA:190,0
DA:191,0
DA:192,0
DA:195,0
DA:197,0
DA:198,0
DA:199,0
DA:201,0
DA:202,0
DA:203,0
DA:205,0
DA:207,0
DA:208,0
DA:211,0
DA:212,0
DA:213,0
DA:214,0
DA:215,0
DA:216,0
DA:217,0
DA:218,0
DA:219,0
DA:220,0
DA:221,0
DA:223,0
DA:224,0
DA:225,0
DA:228,0
DA:229,0
DA:230,0
DA:231,0
DA:232,0
DA:233,0
DA:234,0
DA:236,0
DA:237,0
DA:238,0
DA:239,0
DA:242,0
DA:243,0
DA:244,0
DA:247,2
DA:248,2
DA:249,2
DA:250,2
DA:251,2
DA:254,0
DA:255,0
DA:256,0
DA:257,0
DA:260,0
DA:261,0
DA:262,0
DA:263,0
DA:267,0
DA:268,0
DA:269,0
DA:270,0
DA:272,0
DA:275,0
DA:276,0
DA:277,0
DA:278,0
DA:281,0
DA:283,0
DA:284,0
DA:285,0
DA:288,0
DA:289,0
DA:290,0
DA:291,0
BRF:0
BRH:0
LF:127
LH:23
end_of_record
SF:/home/sysuser/ws001/gofastskill/fastskill/src/core/repository/client.rs
FN:175,_RNCNCNCNvXs4_NtNtNtCs26lDL6qRPME_9fastskill4core10repository6clientNtBb_27MarketplaceRepositoryClientNtBb_16RepositoryClient11list_skills0s0_00Bh_
FN:194,_RNCNCNCNvXs4_NtNtNtCs26lDL6qRPME_9fastskill4core10repository6clientNtBb_27MarketplaceRepositoryClientNtBb_16RepositoryClient9get_skill000Bh_
FN:480,_RNCNCNCNvXs5_NtNtNtCs26lDL6qRPME_9fastskill4core10repository6clientNtBb_20CratesRegistryClientNtBb_16RepositoryClient9get_skill0s0_00Bh_
FN:483,_RNCNCNCNvXs5_NtNtNtCs26lDL6qRPME_9fastskill4core10repository6clientNtBb_20CratesRegistryClientNtBb_16RepositoryClient9get_skill0s0_0s0_0Bh_
FN:481,_RNCNCNCNvXs5_NtNtNtCs26lDL6qRPME_9fastskill4core10repository6clientNtBb_20CratesRegistryClientNtBb_16RepositoryClient9get_skill0s0_0s_0Bh_
FN:340,_RNCNCNvMs_NtNtNtCs26lDL6qRPME_9fastskill4core10repository6clientNtB8_20CratesRegistryClient12fetch_skills00Be_
FN:385,_RNCNCNvMs_NtNtNtCs26lDL6qRPME_9fastskill4core10repository6clientNtB8_20CratesRegistryClient12fetch_skills0s0_0Be_
FN:392,_RNCNCNvMs_NtNtNtCs26lDL6qRPME_9fastskill4core10repository6clientNtB8_20CratesRegistryClient12fetch_skills0s1_0Be_
FN:351,_RNCNCNvMs_NtNtNtCs26lDL6qRPME_9fastskill4core10repository6clientNtB8_20CratesRegistryClient12fetch_skills0s_0Be_
FN:158,_RNCNCNvXs4_NtNtNtCs26lDL6qRPME_9fastskill4core10repository6clientNtB9_27MarketplaceRepositoryClientNtB9_16RepositoryClient11list_skills00Bf_
FN:172,_RNCNCNvXs4_NtNtNtCs26lDL6qRPME_9fastskill4core10repository6clientNtB9_27MarketplaceRepositoryClientNtB9_16RepositoryClient11list_skills0s0_0Bf_
FN:164,_RNCNCNvXs4_NtNtNtCs26lDL6qRPME_9fastskill4core10repository6clientNtB9_27MarketplaceRepositoryClientNtB9_16RepositoryClient11list_skills0s_0Bf_
FN:222,_RNCNCNvXs4_NtNtNtCs26lDL6qRPME_9fastskill4core10repository6clientNtB9_27MarketplaceRepositoryClientNtB9_16RepositoryClient12get_versions00Bf_
FN:202,_RNCNCNvXs4_NtNtNtCs26lDL6qRPME_9fastskill4core10repository6clientNtB9_27MarketplaceRepositoryClientNtB9_16RepositoryClient6search00Bf_
FN:194,_RNCNCNvXs4_NtNtNtCs26lDL6qRPME_9fastskill4core10repository6clientNtB9_27MarketplaceRepositoryClientNtB9_16RepositoryClient9get_skill00Bf_
FN:431,_RNCNCNvXs5_NtNtNtCs26lDL6qRPME_9fastskill4core10repository6clientNtB9_20CratesRegistryClientNtB9_16RepositoryClient11list_skills00Bf_
FN:465,_RNCNCNvXs5_NtNtNtCs26lDL6qRPME_9fastskill4core10repository6clientNtB9_20CratesRegistryClientNtB9_16RepositoryClient9get_skill00Bf_
FN:475,_RNCNCNvXs5_NtNtNtCs26lDL6qRPME_9fastskill4core10repository6clientNtB9_20CratesRegistryClientNtB9_16RepositoryClient9get_skill0s0_0Bf_
FN:468,_RNCNCNvXs5_NtNtNtCs26lDL6qRPME_9fastskill4core10repository6clientNtB9_20CratesRegistryClientNtB9_16RepositoryClient9get_skill0s_0Bf_
FN:70,_RNCNvMNtNtNtCs26lDL6qRPME_9fastskill4core10repository6clientNtB4_27MarketplaceRepositoryClient3new0Ba_
FN:133,_RNCNvMNtNtNtCs26lDL6qRPME_9fastskill4core10repository6clientNtB4_27MarketplaceRepositoryClient3news0_0Ba_
FN:143,_RNCNvMNtNtNtCs26lDL6qRPME_9fastskill4core10repository6clientNtB4_27MarketplaceRepositoryClient3news1_0Ba_
FN:99,_RNCNvMNtNtNtCs26lDL6qRPME_9fastskill4core10repository6clientNtB4_27MarketplaceRepositoryClient3news_0Ba_
FN:319,_RNCNvMs_NtNtNtCs26lDL6qRPME_9fastskill4core10repository6clientNtB6_20CratesRegistryClient12fetch_skills0Bc_
FN:262,_RNCNvMs_NtNtNtCs26lDL6qRPME_9fastskill4core10repository6clientNtB6_20CratesRegistryClient3new0Bc_
FN:297,_RNCNvMs_NtNtNtCs26lDL6qRPME_9fastskill4core10repository6clientNtB6_20CratesRegistryClient3news_0Bc_
FN:49,_RNCNvNtNtNtCs26lDL6qRPME_9fastskill4core10repository6client13create_client0B9_
FN:65,_RNvMNtNtNtCs26lDL6qRPME_9fastskill4core10repository6clientNtB2_27MarketplaceRepositoryClient3new
FN:316,_RNvMs_NtNtNtCs26lDL6qRPME_9fastskill4core10repository6clientNtB4_20CratesRegistryClient12fetch_skills
FN:236,_RNvMs_NtNtNtCs26lDL6qRPME_9fastskill4core10repository6clientNtB4_20CratesRegistryClient3new
FN:47,_RNvNtNtNtCs26lDL6qRPME_9fastskill4core10repository6client13create_client
FN:154,_RNvXs4_NtNtNtCs26lDL6qRPME_9fastskill4core10repository6clientNtB5_27MarketplaceRepositoryClientNtB5_16RepositoryClient11list_skills
FN:216,_RNvXs4_NtNtNtCs26lDL6qRPME_9fastskill4core10repository6clientNtB5_27MarketplaceRepositoryClientNtB5_16RepositoryClient12get_versions
FN:197,_RNvXs4_NtNtNtCs26lDL6qRPME_9fastskill4core10repository6clientNtB5_27MarketplaceRepositoryClientNtB5_16RepositoryClient6search
FN:210,_RNvXs4_NtNtNtCs26lDL6qRPME_9fastskill4core10repository6clientNtB5_27MarketplaceRepositoryClientNtB5_16RepositoryClient8download
FN:188,_RNvXs4_NtNtNtCs26lDL6qRPME_9fastskill4core10repository6clientNtB5_27MarketplaceRepositoryClientNtB5_16RepositoryClient9get_skill
FN:423,_RNvXs5_NtNtNtCs26lDL6qRPME_9fastskill4core10repository6clientNtB5_20CratesRegistryClientNtB5_16RepositoryClient11list_skills
FN:510,_RNvXs5_NtNtNtCs26lDL6qRPME_9fastskill4core10repository6clientNtB5_20CratesRegistryClientNtB5_16RepositoryClient12get_versions
FN:490,_RNvXs5_NtNtNtCs26lDL6qRPME_9fastskill4core10repository6clientNtB5_20CratesRegistryClientNtB5_16RepositoryClient6search
FN:501,_RNvXs5_NtNtNtCs26lDL6qRPME_9fastskill4core10repository6clientNtB5_20CratesRegistryClientNtB5_16RepositoryClient8download
FN:452,_RNvXs5_NtNtNtCs26lDL6qRPME_9fastskill4core10repository6clientNtB5_20CratesRegistryClientNtB5_16RepositoryClient9get_skill
FN:47,_RNvNtNtNtCsjhmHPBDWNUU_9fastskill4core10repository6client13create_client
FN:65,_RNvMNtNtNtCsjhmHPBDWNUU_9fastskill4core10repository6clientNtB2_27MarketplaceRepositoryClient3new
FN:316,_RNvMs_NtNtNtCsjhmHPBDWNUU_9fastskill4core10repository6clientNtB4_20CratesRegistryClient12fetch_skills
FN:236,_RNvMs_NtNtNtCsjhmHPBDWNUU_9fastskill4core10repository6clientNtB4_20CratesRegistryClient3new
FN:154,_RNvXs4_NtNtNtCsjhmHPBDWNUU_9fastskill4core10repository6clientNtB5_27MarketplaceRepositoryClientNtB5_16RepositoryClient11list_skills
FN:216,_RNvXs4_NtNtNtCsjhmHPBDWNUU_9fastskill4core10repository6clientNtB5_27MarketplaceRepositoryClientNtB5_16RepositoryClient12get_versions
FN:197,_RNvXs4_NtNtNtCsjhmHPBDWNUU_9fastskill4core10repository6clientNtB5_27MarketplaceRepositoryClientNtB5_16RepositoryClient6search
FN:210,_RNvXs4_NtNtNtCsjhmHPBDWNUU_9fastskill4core10repository6clientNtB5_27MarketplaceRepositoryClientNtB5_16RepositoryClient8download
FN:188,_RNvXs4_NtNtNtCsjhmHPBDWNUU_9fastskill4core10repository6clientNtB5_27MarketplaceRepositoryClientNtB5_16RepositoryClient9get_skill
FN:423,_RNvXs5_NtNtNtCsjhmHPBDWNUU_9fastskill4core10repository6clientNtB5_20CratesRegistryClientNtB5_16RepositoryClient11list_skills
FN:510,_RNvXs5_NtNtNtCsjhmHPBDWNUU_9fastskill4core10repository6clientNtB5_20CratesRegistryClientNtB5_16RepositoryClient12get_versions
FN:490,_RNvXs5_NtNtNtCsjhmHPBDWNUU_9fastskill4core10repository6clientNtB5_20CratesRegistryClientNtB5_16RepositoryClient6search
FN:501,_RNvXs5_NtNtNtCsjhmHPBDWNUU_9fastskill4core10repository6clientNtB5_20CratesRegistryClientNtB5_16RepositoryClient8download
FN:452,_RNvXs5_NtNtNtCsjhmHPBDWNUU_9fastskill4core10repository6clientNtB5_20CratesRegistryClientNtB5_16RepositoryClient9get_skill
FN:175,_RNCNCNCNvXs4_NtNtNtCsjhmHPBDWNUU_9fastskill4core10repository6clientNtBb_27MarketplaceRepositoryClientNtBb_16RepositoryClient11list_skills0s0_00Bh_
FN:194,_RNCNCNCNvXs4_NtNtNtCsjhmHPBDWNUU_9fastskill4core10repository6clientNtBb_27MarketplaceRepositoryClientNtBb_16RepositoryClient9get_skill000Bh_
FN:480,_RNCNCNCNvXs5_NtNtNtCsjhmHPBDWNUU_9fastskill4core10repository6clientNtBb_20CratesRegistryClientNtBb_16RepositoryClient9get_skill0s0_00Bh_
FN:483,_RNCNCNCNvXs5_NtNtNtCsjhmHPBDWNUU_9fastskill4core10repository6clientNtBb_20CratesRegistryClientNtBb_16RepositoryClient9get_skill0s0_0s0_0Bh_
FN:481,_RNCNCNCNvXs5_NtNtNtCsjhmHPBDWNUU_9fastskill4core10repository6clientNtBb_20CratesRegistryClientNtBb_16RepositoryClient9get_skill0s0_0s_0Bh_
FN:340,_RNCNCNvMs_NtNtNtCsjhmHPBDWNUU_9fastskill4core10repository6clientNtB8_20CratesRegistryClient12fetch_skills00Be_
FN:385,_RNCNCNvMs_NtNtNtCsjhmHPBDWNUU_9fastskill4core10repository6clientNtB8_20CratesRegistryClient12fetch_skills0s0_0Be_
FN:392,_RNCNCNvMs_NtNtNtCsjhmHPBDWNUU_9fastskill4core10repository6clientNtB8_20CratesRegistryClient12fetch_skills0s1_0Be_
FN:351,_RNCNCNvMs_NtNtNtCsjhmHPBDWNUU_9fastskill4core10repository6clientNtB8_20CratesRegistryClient12fetch_skills0s_0Be_
FN:158,_RNCNCNvXs4_NtNtNtCsjhmHPBDWNUU_9fastskill4core10repository6clientNtB9_27MarketplaceRepositoryClientNtB9_16RepositoryClient11list_skills00Bf_
FN:172,_RNCNCNvXs4_NtNtNtCsjhmHPBDWNUU_9fastskill4core10repository6clientNtB9_27MarketplaceRepositoryClientNtB9_16RepositoryClient11list_skills0s0_0Bf_
FN:164,_RNCNCNvXs4_NtNtNtCsjhmHPBDWNUU_9fastskill4core10repository6clientNtB9_27MarketplaceRepositoryClientNtB9_16RepositoryClient11list_skills0s_0Bf_
FN:222,_RNCNCNvXs4_NtNtNtCsjhmHPBDWNUU_9fastskill4core10repository6clientNtB9_27MarketplaceRepositoryClientNtB9_16RepositoryClient12get_versions00Bf_
FN:202,_RNCNCNvXs4_NtNtNtCsjhmHPBDWNUU_9fastskill4core10repository6clientNtB9_27MarketplaceRepositoryClientNtB9_16RepositoryClient6search00Bf_
FN:194,_RNCNCNvXs4_NtNtNtCsjhmHPBDWNUU_9fastskill4core10repository6clientNtB9_27MarketplaceRepositoryClientNtB9_16RepositoryClient9get_skill00Bf_
FN:431,_RNCNCNvXs5_NtNtNtCsjhmHPBDWNUU_9fastskill4core10repository6clientNtB9_20CratesRegistryClientNtB9_16RepositoryClient11list_skills00Bf_
FN:465,_RNCNCNvXs5_NtNtNtCsjhmHPBDWNUU_9fastskill4core10repository6clientNtB9_20CratesRegistryClientNtB9_16RepositoryClient9get_skill00Bf_
FN:475,_RNCNCNvXs5_NtNtNtCsjhmHPBDWNUU_9fastskill4core10repository6clientNtB9_20CratesRegistryClientNtB9_16RepositoryClient9get_skill0s0_0Bf_
FN:468,_RNCNCNvXs5_NtNtNtCsjhmHPBDWNUU_9fastskill4core10repository6clientNtB9_20CratesRegistryClientNtB9_16RepositoryClient9get_skill0s_0Bf_
FN:70,_RNCNvMNtNtNtCsjhmHPBDWNUU_9fastskill4core10repository6clientNtB4_27MarketplaceRepositoryClient3new0Ba_
FN:133,_RNCNvMNtNtNtCsjhmHPBDWNUU_9fastskill4core10repository6clientNtB4_27MarketplaceRepositoryClient3news0_0Ba_
FN:143,_RNCNvMNtNtNtCsjhmHPBDWNUU_9fastskill4core10repository6clientNtB4_27MarketplaceRepositoryClient3news1_0Ba_
FN:99,_RNCNvMNtNtNtCsjhmHPBDWNUU_9fastskill4core10repository6clientNtB4_27MarketplaceRepositoryClient3news_0Ba_
FN:319,_RNCNvMs_NtNtNtCsjhmHPBDWNUU_9fastskill4core10repository6clientNtB6_20CratesRegistryClient12fetch_skills0Bc_
FN:262,_RNCNvMs_NtNtNtCsjhmHPBDWNUU_9fastskill4core10repository6clientNtB6_20CratesRegistryClient3new0Bc_
FN:297,_RNCNvMs_NtNtNtCsjhmHPBDWNUU_9fastskill4core10repository6clientNtB6_20CratesRegistryClient3news_0Bc_
FN:49,_RNCNvNtNtNtCsjhmHPBDWNUU_9fastskill4core10repository6client13create_client0B9_
FNDA:0,_RNCNCNCNvXs4_NtNtNtCs26lDL6qRPME_9fastskill4core10repository6clientNtBb_27MarketplaceRepositoryClientNtBb_16RepositoryClient11list_skills0s0_00Bh_
FNDA:0,_RNCNCNCNvXs4_NtNtNtCs26lDL6qRPME_9fastskill4core10repository6clientNtBb_27MarketplaceRepositoryClientNtBb_16RepositoryClient9get_skill000Bh_
FNDA:0,_RNCNCNCNvXs5_NtNtNtCs26lDL6qRPME_9fastskill4core10repository6clientNtBb_20CratesRegistryClientNtBb_16RepositoryClient9get_skill0s0_00Bh_
FNDA:0,_RNCNCNCNvXs5_NtNtNtCs26lDL6qRPME_9fastskill4core10repository6clientNtBb_20CratesRegistryClientNtBb_16RepositoryClient9get_skill0s0_0s0_0Bh_
FNDA:0,_RNCNCNCNvXs5_NtNtNtCs26lDL6qRPME_9fastskill4core10repository6clientNtBb_20CratesRegistryClientNtBb_16RepositoryClient9get_skill0s0_0s_0Bh_
FNDA:0,_RNCNCNvMs_NtNtNtCs26lDL6qRPME_9fastskill4core10repository6clientNtB8_20CratesRegistryClient12fetch_skills00Be_
FNDA:0,_RNCNCNvMs_NtNtNtCs26lDL6qRPME_9fastskill4core10repository6clientNtB8_20CratesRegistryClient12fetch_skills0s0_0Be_
FNDA:0,_RNCNCNvMs_NtNtNtCs26lDL6qRPME_9fastskill4core10repository6clientNtB8_20CratesRegistryClient12fetch_skills0s1_0Be_
FNDA:0,_RNCNCNvMs_NtNtNtCs26lDL6qRPME_9fastskill4core10repository6clientNtB8_20CratesRegistryClient12fetch_skills0s_0Be_
FNDA:0,_RNCNCNvXs4_NtNtNtCs26lDL6qRPME_9fastskill4core10repository6clientNtB9_27MarketplaceRepositoryClientNtB9_16RepositoryClient11list_skills00Bf_
FNDA:0,_RNCNCNvXs4_NtNtNtCs26lDL6qRPME_9fastskill4core10repository6clientNtB9_27MarketplaceRepositoryClientNtB9_16RepositoryClient11list_skills0s0_0Bf_
FNDA:0,_RNCNCNvXs4_NtNtNtCs26lDL6qRPME_9fastskill4core10repository6clientNtB9_27MarketplaceRepositoryClientNtB9_16RepositoryClient11list_skills0s_0Bf_
FNDA:0,_RNCNCNvXs4_NtNtNtCs26lDL6qRPME_9fastskill4core10repository6clientNtB9_27MarketplaceRepositoryClientNtB9_16RepositoryClient12get_versions00Bf_
FNDA:0,_RNCNCNvXs4_NtNtNtCs26lDL6qRPME_9fastskill4core10repository6clientNtB9_27MarketplaceRepositoryClientNtB9_16RepositoryClient6search00Bf_
FNDA:0,_RNCNCNvXs4_NtNtNtCs26lDL6qRPME_9fastskill4core10repository6clientNtB9_27MarketplaceRepositoryClientNtB9_16RepositoryClient9get_skill00Bf_
FNDA:0,_RNCNCNvXs5_NtNtNtCs26lDL6qRPME_9fastskill4core10repository6clientNtB9_20CratesRegistryClientNtB9_16RepositoryClient11list_skills00Bf_
FNDA:0,_RNCNCNvXs5_NtNtNtCs26lDL6qRPME_9fastskill4core10repository6clientNtB9_20CratesRegistryClientNtB9_16RepositoryClient9get_skill00Bf_
FNDA:0,_RNCNCNvXs5_NtNtNtCs26lDL6qRPME_9fastskill4core10repository6clientNtB9_20CratesRegistryClientNtB9_16RepositoryClient9get_skill0s0_0Bf_
FNDA:0,_RNCNCNvXs5_NtNtNtCs26lDL6qRPME_9fastskill4core10repository6clientNtB9_20CratesRegistryClientNtB9_16RepositoryClient9get_skill0s_0Bf_
FNDA:0,_RNCNvMNtNtNtCs26lDL6qRPME_9fastskill4core10repository6clientNtB4_27MarketplaceRepositoryClient3new0Ba_
FNDA:0,_RNCNvMNtNtNtCs26lDL6qRPME_9fastskill4core10repository6clientNtB4_27MarketplaceRepositoryClient3news0_0Ba_
FNDA:0,_RNCNvMNtNtNtCs26lDL6qRPME_9fastskill4core10repository6clientNtB4_27MarketplaceRepositoryClient3news1_0Ba_
FNDA:0,_RNCNvMNtNtNtCs26lDL6qRPME_9fastskill4core10repository6clientNtB4_27MarketplaceRepositoryClient3news_0Ba_
FNDA:15,_RNCNvMs_NtNtNtCs26lDL6qRPME_9fastskill4core10repository6clientNtB6_20CratesRegistryClient12fetch_skills0Bc_
FNDA:1,_RNCNvMs_NtNtNtCs26lDL6qRPME_9fastskill4core10repository6clientNtB6_20CratesRegistryClient3new0Bc_
FNDA:0,_RNCNvMs_NtNtNtCs26lDL6qRPME_9fastskill4core10repository6clientNtB6_20CratesRegistryClient3news_0Bc_
FNDA:0,_RNCNvNtNtNtCs26lDL6qRPME_9fastskill4core10repository6client13create_client0B9_
FNDA:0,_RNvMNtNtNtCs26lDL6qRPME_9fastskill4core10repository6clientNtB2_27MarketplaceRepositoryClient3new
FNDA:15,_RNvMs_NtNtNtCs26lDL6qRPME_9fastskill4core10repository6clientNtB4_20CratesRegistryClient12fetch_skills
FNDA:15,_RNvMs_NtNtNtCs26lDL6qRPME_9fastskill4core10repository6clientNtB4_20CratesRegistryClient3new
FNDA:0,_RNvNtNtNtCs26lDL6qRPME_9fastskill4core10repository6client13create_client
FNDA:0,_RNvXs4_NtNtNtCs26lDL6qRPME_9fastskill4core10repository6clientNtB5_27MarketplaceRepositoryClientNtB5_16RepositoryClient11list_skills
FNDA:0,_RNvXs4_NtNtNtCs26lDL6qRPME_9fastskill4core10repository6clientNtB5_27MarketplaceRepositoryClientNtB5_16RepositoryClient12get_versions
FNDA:0,_RNvXs4_NtNtNtCs26lDL6qRPME_9fastskill4core10repository6clientNtB5_27MarketplaceRepositoryClientNtB5_16RepositoryClient6search
FNDA:0,_RNvXs4_NtNtNtCs26lDL6qRPME_9fastskill4core10repository6clientNtB5_27MarketplaceRepositoryClientNtB5_16RepositoryClient8download
FNDA:0,_RNvXs4_NtNtNtCs26lDL6qRPME_9fastskill4core10repository6clientNtB5_27MarketplaceRepositoryClientNtB5_16RepositoryClient9get_skill
FNDA:0,_RNvXs5_NtNtNtCs26lDL6qRPME_9fastskill4core10repository6clientNtB5_20CratesRegistryClientNtB5_16RepositoryClient11list_skills
FNDA:0,_RNvXs5_NtNtNtCs26lDL6qRPME_9fastskill4core10repository6clientNtB5_20CratesRegistryClientNtB5_16RepositoryClient12get_versions
FNDA:0,_RNvXs5_NtNtNtCs26lDL6qRPME_9fastskill4core10repository6clientNtB5_20CratesRegistryClientNtB5_16RepositoryClient6search
FNDA:0,_RNvXs5_NtNtNtCs26lDL6qRPME_9fastskill4core10repository6clientNtB5_20CratesRegistryClientNtB5_16RepositoryClient8download
FNDA:0,_RNvXs5_NtNtNtCs26lDL6qRPME_9fastskill4core10repository6clientNtB5_20CratesRegistryClientNtB5_16RepositoryClient9get_skill
FNDA:0,_RNvNtNtNtCsjhmHPBDWNUU_9fastskill4core10repository6client13create_client
FNDA:0,_RNvMNtNtNtCsjhmHPBDWNUU_9fastskill4core10repository6clientNtB2_27MarketplaceRepositoryClient3new
FNDA:0,_RNvMs_NtNtNtCsjhmHPBDWNUU_9fastskill4core10repository6clientNtB4_20CratesRegistryClient12fetch_skills
FNDA:0,_RNvMs_NtNtNtCsjhmHPBDWNUU_9fastskill4core10repository6clientNtB4_20CratesRegistryClient3new
FNDA:0,_RNvXs4_NtNtNtCsjhmHPBDWNUU_9fastskill4core10repository6clientNtB5_27MarketplaceRepositoryClientNtB5_16RepositoryClient11list_skills
FNDA:0,_RNvXs4_NtNtNtCsjhmHPBDWNUU_9fastskill4core10repository6clientNtB5_27MarketplaceRepositoryClientNtB5_16RepositoryClient12get_versions
FNDA:0,_RNvXs4_NtNtNtCsjhmHPBDWNUU_9fastskill4core10repository6clientNtB5_27MarketplaceRepositoryClientNtB5_16RepositoryClient6search
FNDA:0,_RNvXs4_NtNtNtCsjhmHPBDWNUU_9fastskill4core10repository6clientNtB5_27MarketplaceRepositoryClientNtB5_16RepositoryClient8download
FNDA:0,_RNvXs4_NtNtNtCsjhmHPBDWNUU_9fastskill4core10repository6clientNtB5_27MarketplaceRepositoryClientNtB5_16RepositoryClient9get_skill
FNDA:0,_RNvXs5_NtNtNtCsjhmHPBDWNUU_9fastskill4core10repository6clientNtB5_20CratesRegistryClientNtB5_16RepositoryClient11list_skills
FNDA:0,_RNvXs5_NtNtNtCsjhmHPBDWNUU_9fastskill4core10repository6clientNtB5_20CratesRegistryClientNtB5_16RepositoryClient12get_versions
FNDA:0,_RNvXs5_NtNtNtCsjhmHPBDWNUU_9fastskill4core10repository6clientNtB5_20CratesRegistryClientNtB5_16RepositoryClient6search
FNDA:0,_RNvXs5_NtNtNtCsjhmHPBDWNUU_9fastskill4core10repository6clientNtB5_20CratesRegistryClientNtB5_16RepositoryClient8download
FNDA:0,_RNvXs5_NtNtNtCsjhmHPBDWNUU_9fastskill4core10repository6clientNtB5_20CratesRegistryClientNtB5_16RepositoryClient9get_skill
FNDA:0,_RNCNCNCNvXs4_NtNtNtCsjhmHPBDWNUU_9fastskill4core10repository6clientNtBb_27MarketplaceRepositoryClientNtBb_16RepositoryClient11list_skills0s0_00Bh_
FNDA:0,_RNCNCNCNvXs4_NtNtNtCsjhmHPBDWNUU_9fastskill4core10repository6clientNtBb_27MarketplaceRepositoryClientNtBb_16RepositoryClient9get_skill000Bh_
FNDA:0,_RNCNCNCNvXs5_NtNtNtCsjhmHPBDWNUU_9fastskill4core10repository6clientNtBb_20CratesRegistryClientNtBb_16RepositoryClient9get_skill0s0_00Bh_
FNDA:0,_RNCNCNCNvXs5_NtNtNtCsjhmHPBDWNUU_9fastskill4core10repository6clientNtBb_20CratesRegistryClientNtBb_16RepositoryClient9get_skill0s0_0s0_0Bh_
FNDA:0,_RNCNCNCNvXs5_NtNtNtCsjhmHPBDWNUU_9fastskill4core10repository6clientNtBb_20CratesRegistryClientNtBb_16RepositoryClient9get_skill0s0_0s_0Bh_
FNDA:0,_RNCNCNvMs_NtNtNtCsjhmHPBDWNUU_9fastskill4core10repository6clientNtB8_20CratesRegistryClient12fetch_skills00Be_
FNDA:0,_RNCNCNvMs_NtNtNtCsjhmHPBDWNUU_9fastskill4core10repository6clientNtB8_20CratesRegistryClient12fetch_skills0s0_0Be_
FNDA:0,_RNCNCNvMs_NtNtNtCsjhmHPBDWNUU_9fastskill4core10repository6clientNtB8_20CratesRegistryClient12fetch_skills0s1_0Be_
FNDA:0,_RNCNCNvMs_NtNtNtCsjhmHPBDWNUU_9fastskill4core10repository6clientNtB8_20CratesRegistryClient12fetch_skills0s_0Be_
FNDA:0,_RNCNCNvXs4_NtNtNtCsjhmHPBDWNUU_9fastskill4core10repository6clientNtB9_27MarketplaceRepositoryClientNtB9_16RepositoryClient11list_skills00Bf_
FNDA:0,_RNCNCNvXs4_NtNtNtCsjhmHPBDWNUU_9fastskill4core10repository6clientNtB9_27MarketplaceRepositoryClientNtB9_16RepositoryClient11list_skills0s0_0Bf_
FNDA:0,_RNCNCNvXs4_NtNtNtCsjhmHPBDWNUU_9fastskill4core10repository6clientNtB9_27MarketplaceRepositoryClientNtB9_16RepositoryClient11list_skills0s_0Bf_
FNDA:0,_RNCNCNvXs4_NtNtNtCsjhmHPBDWNUU_9fastskill4core10repository6clientNtB9_27MarketplaceRepositoryClientNtB9_16RepositoryClient12get_versions00Bf_
FNDA:0,_RNCNCNvXs4_NtNtNtCsjhmHPBDWNUU_9fastskill4core10repository6clientNtB9_27MarketplaceRepositoryClientNtB9_16RepositoryClient6search00Bf_
FNDA:0,_RNCNCNvXs4_NtNtNtCsjhmHPBDWNUU_9fastskill4core10repository6clientNtB9_27MarketplaceRepositoryClientNtB9_16RepositoryClient9get_skill00Bf_
FNDA:0,_RNCNCNvXs5_NtNtNtCsjhmHPBDWNUU_9fastskill4core10repository6clientNtB9_20CratesRegistryClientNtB9_16RepositoryClient11list_skills00Bf_
FNDA:0,_RNCNCNvXs5_NtNtNtCsjhmHPBDWNUU_9fastskill4core10repository6clientNtB9_20CratesRegistryClientNtB9_16RepositoryClient9get_skill00Bf_
FNDA:0,_RNCNCNvXs5_NtNtNtCsjhmHPBDWNUU_9fastskill4core10repository6clientNtB9_20CratesRegistryClientNtB9_16RepositoryClient9get_skill0s0_0Bf_
FNDA:0,_RNCNCNvXs5_NtNtNtCsjhmHPBDWNUU_9fastskill4core10repository6clientNtB9_20CratesRegistryClientNtB9_16RepositoryClient9get_skill0s_0Bf_
FNDA:0,_RNCNvMNtNtNtCsjhmHPBDWNUU_9fastskill4core10repository6clientNtB4_27MarketplaceRepositoryClient3new0Ba_
FNDA:0,_RNCNvMNtNtNtCsjhmHPBDWNUU_9fastskill4core10repository6clientNtB4_27MarketplaceRepositoryClient3news0_0Ba_
FNDA:0,_RNCNvMNtNtNtCsjhmHPBDWNUU_9fastskill4core10repository6clientNtB4_27MarketplaceRepositoryClient3news1_0Ba_
FNDA:0,_RNCNvMNtNtNtCsjhmHPBDWNUU_9fastskill4core10repository6clientNtB4_27MarketplaceRepositoryClient3news_0Ba_
FNDA:0,_RNCNvMs_NtNtNtCsjhmHPBDWNUU_9fastskill4core10repository6clientNtB6_20CratesRegistryClient12fetch_skills0Bc_
FNDA:0,_RNCNvMs_NtNtNtCsjhmHPBDWNUU_9fastskill4core10repository6clientNtB6_20CratesRegistryClient3new0Bc_
FNDA:0,_RNCNvMs_NtNtNtCsjhmHPBDWNUU_9fastskill4core10repository6clientNtB6_20CratesRegistryClient3news_0Bc_
FNDA:0,_RNCNvNtNtNtCsjhmHPBDWNUU_9fastskill4core10repository6client13create_client0B9_
FNF:41
FNH:4
DA:47,0
DA:48,0
DA:49,0
DA:50,0
DA:52,0
DA:54,0
DA:56,0
DA:65,0
DA:67,0
DA:68,0
DA:70,0
DA:71,0
DA:72,0
DA:73,0
DA:74,0
DA:75,0
DA:77,0
DA:78,0
DA:81,0
DA:82,0
DA:83,0
DA:84,0
DA:85,0
DA:86,0
DA:87,0
DA:89,0
DA:91,0
DA:92,0
DA:93,0
DA:94,0
DA:95,0
DA:96,0
DA:98,0
DA:99,0
DA:100,0
DA:101,0
DA:102,0
DA:103,0
DA:106,0
DA:107,0
DA:108,0
DA:109,0
DA:110,0
DA:111,0
DA:112,0
DA:113,0
DA:115,0
DA:116,0
DA:117,0
DA:118,0
DA:120,0
DA:122,0
DA:123,0
DA:124,0
DA:129,0
DA:130,0
DA:131,0
DA:132,0
DA:133,0
DA:135,0
DA:136,0
DA:137,0
DA:138,0
DA:139,0
DA:141,0
DA:142,0
DA:143,0
DA:145,0
DA:146,0
DA:147,0
DA:148,0
DA:149,0
DA:154,0
DA:158,0
DA:164,0
DA:172,0
DA:173,0
DA:174,0
DA:175,0
DA:176,0
DA:179,0
DA:180,0
DA:182,0
DA:188,0
DA:194,0
DA:195,0
DA:197,0
DA:202,0
DA:203,0
DA:204,0
DA:205,0
DA:206,0
DA:208,0
DA:210,0
DA:214,0
DA:216,0
DA:222,0
DA:225,0
DA:236,15
DA:237,15
DA:238,15
DA:240,0
DA:241,0
DA:242,0
DA:247,15
DA:248,1
DA:249,1
DA:250,1
DA:251,14
DA:254,14
DA:255,1
DA:256,1
DA:257,1
DA:258,1
DA:259,13
DA:262,13
DA:263,1
DA:264,1
DA:265,1
DA:266,1
DA:267,1
DA:269,0
DA:270,0
DA:271,0
DA:272,0
DA:274,0
DA:275,0
DA:276,0
DA:277,0
DA:281,0
DA:282,0
DA:283,0
DA:286,1
DA:288,13
DA:289,13
DA:290,13
DA:291,13
DA:292,13
DA:293,13
DA:294,13
DA:295,13
DA:296,13
DA:297,0
DA:298,0
DA:299,0
DA:300,0
DA:301,0
DA:302,0
DA:303,0
DA:306,13
DA:308,13
DA:309,13
DA:310,13
DA:311,13
DA:312,13
DA:313,15
DA:316,15
DA:317,15
DA:318,15
DA:319,15
DA:323,15
DA:324,15
DA:327,15
DA:328,15
DA:329,3
DA:330,12
DA:331,15
DA:332,4
DA:333,11
DA:334,15
DA:335,2
DA:336,13
DA:338,15
DA:339,8
DA:340,8
DA:341,9
DA:342,9
DA:343,9
DA:344,8
DA:345,7
DA:348,15
DA:349,15
DA:350,15
DA:351,15
DA:352,0
DA:353,0
DA:356,15
DA:359,15
DA:360,1
DA:361,1
DA:362,1
DA:363,1
DA:364,0
DA:365,0
DA:366,0
DA:367,0
DA:368,0
DA:369,0
DA:372,1
DA:373,1
DA:374,1
DA:375,1
DA:376,1
DA:377,0
DA:378,0
DA:379,14
DA:382,15
DA:383,15
DA:384,15
DA:385,15
DA:388,15
DA:389,15
DA:392,13
DA:393,0
DA:394,0
DA:395,13
DA:397,0
DA:398,0
DA:399,0
DA:400,1
DA:401,1
DA:402,1
DA:403,1
DA:404,1
DA:405,1
DA:406,0
DA:407,0
DA:408,0
DA:409,0
DA:410,0
DA:411,0
DA:412,0
DA:413,0
DA:414,0
DA:415,0
DA:416,0
DA:418,15
DA:423,0
DA:431,0
DA:432,0
DA:433,0
DA:434,0
DA:435,0
DA:436,0
DA:437,0
DA:438,0
DA:439,0
DA:440,0
DA:441,0
DA:442,0
DA:446,0
DA:452,0
DA:465,0
DA:468,0
DA:475,0
DA:476,0
DA:477,0
DA:478,0
DA:479,0
DA:480,0
DA:481,0
DA:482,0
DA:483,0
DA:486,0
DA:487,0
DA:488,0
DA:490,0
DA:499,0
DA:501,0
DA:508,0
DA:510,0
DA:517,0
BRF:0
BRH:0
LF:290
LH:94
end_of_record
SF:/home/sysuser/ws001/gofastskill/fastskill/src/core/resolver.rs
FN:147,_RNCNvMNtNtCs26lDL6qRPME_9fastskill4core8resolverNtB4_15PackageResolver13resolve_skill0B8_
FN:168,_RNCNvMNtNtCs26lDL6qRPME_9fastskill4core8resolverNtB4_15PackageResolver13resolve_skills0_0B8_
FN:195,_RNCNvMNtNtCs26lDL6qRPME_9fastskill4core8resolverNtB4_15PackageResolver13resolve_skills1_0B8_
FN:199,_RNCNvMNtNtCs26lDL6qRPME_9fastskill4core8resolverNtB4_15PackageResolver13resolve_skills2_0B8_
FN:153,_RNCNvMNtNtCs26lDL6qRPME_9fastskill4core8resolverNtB4_15PackageResolver13resolve_skills_0B8_
FN:221,_RNCNvMNtNtCs26lDL6qRPME_9fastskill4core8resolverNtB4_15PackageResolver22get_available_versions0B8_
FN:84,_RNCNCNvMNtNtCs26lDL6qRPME_9fastskill4core8resolverNtB6_15PackageResolver11build_index00Ba_
FN:102,_RNCNCNvMNtNtCs26lDL6qRPME_9fastskill4core8resolverNtB6_15PackageResolver11build_index0s0_0Ba_
FN:118,_RNCNCNvMNtNtCs26lDL6qRPME_9fastskill4core8resolverNtB6_15PackageResolver11build_index0s1_0Ba_
FN:92,_RNCNCNvMNtNtCs26lDL6qRPME_9fastskill4core8resolverNtB6_15PackageResolver11build_index0s_0Ba_
FN:76,_RNCNvMNtNtCs26lDL6qRPME_9fastskill4core8resolverNtB4_15PackageResolver11build_index0B8_
FN:76,_RNvMNtNtCs26lDL6qRPME_9fastskill4core8resolverNtB2_15PackageResolver11build_index
FN:231,_RNvMNtNtCs26lDL6qRPME_9fastskill4core8resolverNtB2_15PackageResolver11list_skills
FN:226,_RNvMNtNtCs26lDL6qRPME_9fastskill4core8resolverNtB2_15PackageResolver12skill_exists
FN:137,_RNvMNtNtCs26lDL6qRPME_9fastskill4core8resolverNtB2_15PackageResolver13resolve_skill
FN:242,_RNvMNtNtCs26lDL6qRPME_9fastskill4core8resolverNtB2_15PackageResolver20resolve_dependencies
FN:218,_RNvMNtNtCs26lDL6qRPME_9fastskill4core8resolverNtB2_15PackageResolver22get_available_versions
FN:265,_RNvMNtNtCs26lDL6qRPME_9fastskill4core8resolverNtB2_15PackageResolver30resolve_dependencies_recursive
FN:68,_RNvMNtNtCs26lDL6qRPME_9fastskill4core8resolverNtB2_15PackageResolver3new
FN:84,_RNCNCNvMNtNtCs26lDL6qRPME_9fastskill4core8resolverNtB6_15PackageResolver11build_index00CsfVElPQFRzD4_9fastskill
FN:102,_RNCNCNvMNtNtCs26lDL6qRPME_9fastskill4core8resolverNtB6_15PackageResolver11build_index0s0_0CsfVElPQFRzD4_9fastskill
FN:118,_RNCNCNvMNtNtCs26lDL6qRPME_9fastskill4core8resolverNtB6_15PackageResolver11build_index0s1_0CsfVElPQFRzD4_9fastskill
FN:92,_RNCNCNvMNtNtCs26lDL6qRPME_9fastskill4core8resolverNtB6_15PackageResolver11build_index0s_0CsfVElPQFRzD4_9fastskill
FN:76,_RNCNvMNtNtCs26lDL6qRPME_9fastskill4core8resolverNtB4_15PackageResolver11build_index0CsfVElPQFRzD4_9fastskill
FN:84,_RNCNCNvMNtNtCsjhmHPBDWNUU_9fastskill4core8resolverNtB6_15PackageResolver11build_index00Ba_
FN:102,_RNCNCNvMNtNtCsjhmHPBDWNUU_9fastskill4core8resolverNtB6_15PackageResolver11build_index0s0_0Ba_
FN:118,_RNCNCNvMNtNtCsjhmHPBDWNUU_9fastskill4core8resolverNtB6_15PackageResolver11build_index0s1_0Ba_
FN:92,_RNCNCNvMNtNtCsjhmHPBDWNUU_9fastskill4core8resolverNtB6_15PackageResolver11build_index0s_0Ba_
FN:76,_RNCNvMNtNtCsjhmHPBDWNUU_9fastskill4core8resolverNtB4_15PackageResolver11build_index0B8_
FN:147,_RNCNvMNtNtCsjhmHPBDWNUU_9fastskill4core8resolverNtB4_15PackageResolver13resolve_skill0B8_
FN:168,_RNCNvMNtNtCsjhmHPBDWNUU_9fastskill4core8resolverNtB4_15PackageResolver13resolve_skills0_0B8_
FN:195,_RNCNvMNtNtCsjhmHPBDWNUU_9fastskill4core8resolverNtB4_15PackageResolver13resolve_skills1_0B8_
FN:199,_RNCNvMNtNtCsjhmHPBDWNUU_9fastskill4core8resolverNtB4_15PackageResolver13resolve_skills2_0B8_
FN:153,_RNCNvMNtNtCsjhmHPBDWNUU_9fastskill4core8resolverNtB4_15PackageResolver13resolve_skills_0B8_
FN:221,_RNCNvMNtNtCsjhmHPBDWNUU_9fastskill4core8resolverNtB4_15PackageResolver22get_available_versions0B8_
FN:76,_RNvMNtNtCsjhmHPBDWNUU_9fastskill4core8resolverNtB2_15PackageResolver11build_index
FN:231,_RNvMNtNtCsjhmHPBDWNUU_9fastskill4core8resolverNtB2_15PackageResolver11list_skills
FN:226,_RNvMNtNtCsjhmHPBDWNUU_9fastskill4core8resolverNtB2_15PackageResolver12skill_exists
FN:137,_RNvMNtNtCsjhmHPBDWNUU_9fastskill4core8resolverNtB2_15PackageResolver13resolve_skill
FN:242,_RNvMNtNtCsjhmHPBDWNUU_9fastskill4core8resolverNtB2_15PackageResolver20resolve_dependencies
FN:218,_RNvMNtNtCsjhmHPBDWNUU_9fastskill4core8resolverNtB2_15PackageResolver22get_available_versions
FN:265,_RNvMNtNtCsjhmHPBDWNUU_9fastskill4core8resolverNtB2_15PackageResolver30resolve_dependencies_recursive
FN:312,_RNCNvNtNtNtCsjhmHPBDWNUU_9fastskill4core8resolver5testss_22test_resolver_priority0B9_
FN:312,_RNvNtNtNtCsjhmHPBDWNUU_9fastskill4core8resolver5testss_22test_resolver_priority
FN:68,_RNvMNtNtCsjhmHPBDWNUU_9fastskill4core8resolverNtB2_15PackageResolver3new
FN:84,_RNCNCNvMNtNtCs26lDL6qRPME_9fastskill4core8resolverNtB6_15PackageResolver11build_index00Cs4etJKk8xmvn_9fastskill
FN:102,_RNCNCNvMNtNtCs26lDL6qRPME_9fastskill4core8resolverNtB6_15PackageResolver11build_index0s0_0Cs4etJKk8xmvn_9fastskill
FN:118,_RNCNCNvMNtNtCs26lDL6qRPME_9fastskill4core8resolverNtB6_15PackageResolver11build_index0s1_0Cs4etJKk8xmvn_9fastskill
FN:92,_RNCNCNvMNtNtCs26lDL6qRPME_9fastskill4core8resolverNtB6_15PackageResolver11build_index0s_0Cs4etJKk8xmvn_9fastskill
FN:76,_RNCNvMNtNtCs26lDL6qRPME_9fastskill4core8resolverNtB4_15PackageResolver11build_index0Cs4etJKk8xmvn_9fastskill
FNDA:0,_RNCNvMNtNtCs26lDL6qRPME_9fastskill4core8resolverNtB4_15PackageResolver13resolve_skill0B8_
FNDA:0,_RNCNvMNtNtCs26lDL6qRPME_9fastskill4core8resolverNtB4_15PackageResolver13resolve_skills0_0B8_
FNDA:0,_RNCNvMNtNtCs26lDL6qRPME_9fastskill4core8resolverNtB4_15PackageResolver13resolve_skills1_0B8_
FNDA:0,_RNCNvMNtNtCs26lDL6qRPME_9fastskill4core8resolverNtB4_15PackageResolver13resolve_skills2_0B8_
FNDA:0,_RNCNvMNtNtCs26lDL6qRPME_9fastskill4core8resolverNtB4_15PackageResolver13resolve_skills_0B8_
FNDA:0,_RNCNvMNtNtCs26lDL6qRPME_9fastskill4core8resolverNtB4_15PackageResolver22get_available_versions0B8_
FNDA:0,_RNCNCNvMNtNtCs26lDL6qRPME_9fastskill4core8resolverNtB6_15PackageResolver11build_index00Ba_
FNDA:0,_RNCNCNvMNtNtCs26lDL6qRPME_9fastskill4core8resolverNtB6_15PackageResolver11build_index0s0_0Ba_
FNDA:0,_RNCNCNvMNtNtCs26lDL6qRPME_9fastskill4core8resolverNtB6_15PackageResolver11build_index0s1_0Ba_
FNDA:0,_RNCNCNvMNtNtCs26lDL6qRPME_9fastskill4core8resolverNtB6_15PackageResolver11build_index0s_0Ba_
FNDA:0,_RNCNvMNtNtCs26lDL6qRPME_9fastskill4core8resolverNtB4_15PackageResolver11build_index0B8_
FNDA:0,_RNvMNtNtCs26lDL6qRPME_9fastskill4core8resolverNtB2_15PackageResolver11build_index
FNDA:0,_RNvMNtNtCs26lDL6qRPME_9fastskill4core8resolverNtB2_15PackageResolver11list_skills
FNDA:0,_RNvMNtNtCs26lDL6qRPME_9fastskill4core8resolverNtB2_15PackageResolver12skill_exists
FNDA:0,_RNvMNtNtCs26lDL6qRPME_9fastskill4core8resolverNtB2_15PackageResolver13resolve_skill
FNDA:0,_RNvMNtNtCs26lDL6qRPME_9fastskill4core8resolverNtB2_15PackageResolver20resolve_dependencies
FNDA:0,_RNvMNtNtCs26lDL6qRPME_9fastskill4core8resolverNtB2_15PackageResolver22get_available_versions
FNDA:0,_RNvMNtNtCs26lDL6qRPME_9fastskill4core8resolverNtB2_15PackageResolver30resolve_dependencies_recursive
FNDA:0,_RNvMNtNtCs26lDL6qRPME_9fastskill4core8resolverNtB2_15PackageResolver3new
FNDA:0,_RNCNCNvMNtNtCs26lDL6qRPME_9fastskill4core8resolverNtB6_15PackageResolver11build_index00CsfVElPQFRzD4_9fastskill
FNDA:0,_RNCNCNvMNtNtCs26lDL6qRPME_9fastskill4core8resolverNtB6_15PackageResolver11build_index0s0_0CsfVElPQFRzD4_9fastskill
FNDA:0,_RNCNCNvMNtNtCs26lDL6qRPME_9fastskill4core8resolverNtB6_15PackageResolver11build_index0s1_0CsfVElPQFRzD4_9fastskill
FNDA:0,_RNCNCNvMNtNtCs26lDL6qRPME_9fastskill4core8resolverNtB6_15PackageResolver11build_index0s_0CsfVElPQFRzD4_9fastskill
FNDA:0,_RNCNvMNtNtCs26lDL6qRPME_9fastskill4core8resolverNtB4_15PackageResolver11build_index0CsfVElPQFRzD4_9fastskill
FNDA:0,_RNCNCNvMNtNtCsjhmHPBDWNUU_9fastskill4core8resolverNtB6_15PackageResolver11build_index00Ba_
FNDA:0,_RNCNCNvMNtNtCsjhmHPBDWNUU_9fastskill4core8resolverNtB6_15PackageResolver11build_index0s0_0Ba_
FNDA:0,_RNCNCNvMNtNtCsjhmHPBDWNUU_9fastskill4core8resolverNtB6_15PackageResolver11build_index0s1_0Ba_
FNDA:0,_RNCNCNvMNtNtCsjhmHPBDWNUU_9fastskill4core8resolverNtB6_15PackageResolver11build_index0s_0Ba_
FNDA:0,_RNCNvMNtNtCsjhmHPBDWNUU_9fastskill4core8resolverNtB4_15PackageResolver11build_index0B8_
FNDA:0,_RNCNvMNtNtCsjhmHPBDWNUU_9fastskill4core8resolverNtB4_15PackageResolver13resolve_skill0B8_
FNDA:0,_RNCNvMNtNtCsjhmHPBDWNUU_9fastskill4core8resolverNtB4_15PackageResolver13resolve_skills0_0B8_
FNDA:0,_RNCNvMNtNtCsjhmHPBDWNUU_9fastskill4core8resolverNtB4_15PackageResolver13resolve_skills1_0B8_
FNDA:0,_RNCNvMNtNtCsjhmHPBDWNUU_9fastskill4core8resolverNtB4_15PackageResolver13resolve_skills2_0B8_
FNDA:0,_RNCNvMNtNtCsjhmHPBDWNUU_9fastskill4core8resolverNtB4_15PackageResolver13resolve_skills_0B8_
FNDA:0,_RNCNvMNtNtCsjhmHPBDWNUU_9fastskill4core8resolverNtB4_15PackageResolver22get_available_versions0B8_
FNDA:0,_RNvMNtNtCsjhmHPBDWNUU_9fastskill4core8resolverNtB2_15PackageResolver11build_index
FNDA:0,_RNvMNtNtCsjhmHPBDWNUU_9fastskill4core8resolverNtB2_15PackageResolver11list_skills
FNDA:0,_RNvMNtNtCsjhmHPBDWNUU_9fastskill4core8resolverNtB2_15PackageResolver12skill_exists
FNDA:0,_RNvMNtNtCsjhmHPBDWNUU_9fastskill4core8resolverNtB2_15PackageResolver13resolve_skill
FNDA:0,_RNvMNtNtCsjhmHPBDWNUU_9fastskill4core8resolverNtB2_15PackageResolver20resolve_dependencies
FNDA:0,_RNvMNtNtCsjhmHPBDWNUU_9fastskill4core8resolverNtB2_15PackageResolver22get_available_versions
FNDA:0,_RNvMNtNtCsjhmHPBDWNUU_9fastskill4core8resolverNtB2_15PackageResolver30resolve_dependencies_recursive
FNDA:1,_RNCNvNtNtNtCsjhmHPBDWNUU_9fastskill4core8resolver5testss_22test_resolver_priority0B9_
FNDA:1,_RNvNtNtNtCsjhmHPBDWNUU_9fastskill4core8resolver5testss_22test_resolver_priority
FNDA:1,_RNvMNtNtCsjhmHPBDWNUU_9fastskill4core8resolverNtB2_15PackageResolver3new
FNDA:0,_RNCNCNvMNtNtCs26lDL6qRPME_9fastskill4core8resolverNtB6_15PackageResolver11build_index00Cs4etJKk8xmvn_9fastskill
FNDA:0,_RNCNCNvMNtNtCs26lDL6qRPME_9fastskill4core8resolverNtB6_15PackageResolver11build_index0s0_0Cs4etJKk8xmvn_9fastskill
FNDA:0,_RNCNCNvMNtNtCs26lDL6qRPME_9fastskill4core8resolverNtB6_15PackageResolver11build_index0s1_0Cs4etJKk8xmvn_9fastskill
FNDA:0,_RNCNCNvMNtNtCs26lDL6qRPME_9fastskill4core8resolverNtB6_15PackageResolver11build_index0s_0Cs4etJKk8xmvn_9fastskill
FNDA:0,_RNCNvMNtNtCs26lDL6qRPME_9fastskill4core8resolverNtB4_15PackageResolver11build_index0Cs4etJKk8xmvn_9fastskill
FNF:21
FNH:3
DA:68,1
DA:69,1
DA:70,1
DA:71,1
DA:72,1
DA:73,1
DA:76,0
DA:77,0
DA:80,0
DA:81,0
DA:82,0
DA:83,0
DA:84,0
DA:87,0
DA:89,0
DA:90,0
DA:91,0
DA:92,0
DA:93,0
DA:94,0
DA:95,0
DA:96,0
DA:97,0
DA:99,0
DA:100,0
DA:101,0
DA:102,0
DA:103,0
DA:104,0
DA:105,0
DA:106,0
DA:107,0
DA:110,0
DA:111,0
DA:112,0
DA:113,0
DA:117,0
DA:118,0
DA:119,0
DA:120,0
DA:121,0
DA:122,0
DA:123,0
DA:124,0
DA:125,0
DA:126,0
DA:127,0
DA:128,0
DA:129,0
DA:130,0
DA:133,0
DA:134,0
DA:137,0
DA:138,0
DA:139,0
DA:140,0
DA:141,0
DA:142,0
DA:143,0
DA:144,0
DA:145,0
DA:146,0
DA:147,0
DA:150,0
DA:151,0
DA:152,0
DA:153,0
DA:154,0
DA:156,0
DA:159,0
DA:160,0
DA:161,0
DA:164,0
DA:166,0
DA:167,0
DA:168,0
DA:169,0
DA:170,0
DA:172,0
DA:175,0
DA:176,0
DA:177,0
DA:178,0
DA:179,0
DA:180,0
DA:183,0
DA:184,0
DA:186,0
DA:189,0
DA:193,0
DA:194,0
DA:195,0
DA:196,0
DA:197,0
DA:198,0
DA:199,0
DA:200,0
DA:201,0
DA:202,0
DA:203,0
DA:206,0
DA:211,0
DA:212,0
DA:213,0
DA:214,0
DA:215,0
DA:218,0
DA:219,0
DA:220,0
DA:221,0
DA:222,0
DA:223,0
DA:226,0
DA:227,0
DA:228,0
DA:231,0
DA:232,0
DA:233,0
DA:242,0
DA:243,0
DA:244,0
DA:245,0
DA:246,0
DA:247,0
DA:248,0
DA:249,0
DA:250,0
DA:252,0
DA:253,0
DA:254,0
DA:255,0
DA:256,0
DA:257,0
DA:258,0
DA:259,0
DA:261,0
DA:262,0
DA:265,0
DA:266,0
DA:267,0
DA:268,0
DA:269,0
DA:270,0
DA:271,0
DA:272,0
DA:273,0
DA:274,0
DA:275,0
DA:276,0
DA:277,0
DA:280,0
DA:281,0
DA:284,0
DA:285,0
DA:286,0
DA:287,0
DA:288,0
DA:289,0
DA:290,0
DA:291,0
DA:292,0
DA:293,0
DA:295,0
DA:296,0
DA:299,0
DA:300,0
DA:312,1
DA:313,1
DA:314,1
DA:316,1
DA:317,1
DA:320,1
DA:321,1
DA:322,1
DA:323,1
DA:324,1
DA:325,1
DA:328,1
DA:330,1
DA:331,1
DA:332,1
DA:333,1
DA:334,1
DA:335,1
DA:338,1
DA:340,1
DA:343,1
BRF:0
BRH:0
LF:202
LH:29
end_of_record
SF:/home/sysuser/ws001/gofastskill/fastskill/src/core/routing.rs
FN:46,_RNvMNtNtCs26lDL6qRPME_9fastskill4core7routingNtB2_18RoutingServiceImpl22score_skills_for_query
FN:66,_RNvMNtNtCs26lDL6qRPME_9fastskill4core7routingNtB2_18RoutingServiceImpl25calculate_relevance_score
FN:41,_RNvMNtNtCs26lDL6qRPME_9fastskill4core7routingNtB2_18RoutingServiceImpl3new
FN:106,_RNvXs3_NtNtCs26lDL6qRPME_9fastskill4core7routingNtB5_18RoutingServiceImplNtB5_14RoutingService20find_relevant_skills
FN:61,_RNCNCNvMNtNtCs26lDL6qRPME_9fastskill4core7routingNtB6_18RoutingServiceImpl22score_skills_for_query00Ba_
FN:120,_RNCNCNvXs3_NtNtCs26lDL6qRPME_9fastskill4core7routingNtB9_18RoutingServiceImplNtB9_14RoutingService20find_relevant_skills00Bd_
FN:51,_RNCNvMNtNtCs26lDL6qRPME_9fastskill4core7routingNtB4_18RoutingServiceImpl22score_skills_for_query0B8_
FN:61,_RNCNCNvMNtNtCsjhmHPBDWNUU_9fastskill4core7routingNtB6_18RoutingServiceImpl22score_skills_for_query00Ba_
FN:120,_RNCNCNvXs3_NtNtCsjhmHPBDWNUU_9fastskill4core7routingNtB9_18RoutingServiceImplNtB9_14RoutingService20find_relevant_skills00Bd_
FN:51,_RNCNvMNtNtCsjhmHPBDWNUU_9fastskill4core7routingNtB4_18RoutingServiceImpl22score_skills_for_query0B8_
FN:46,_RNvMNtNtCsjhmHPBDWNUU_9fastskill4core7routingNtB2_18RoutingServiceImpl22score_skills_for_query
FN:66,_RNvMNtNtCsjhmHPBDWNUU_9fastskill4core7routingNtB2_18RoutingServiceImpl25calculate_relevance_score
FN:41,_RNvMNtNtCsjhmHPBDWNUU_9fastskill4core7routingNtB2_18RoutingServiceImpl3new
FN:106,_RNvXs3_NtNtCsjhmHPBDWNUU_9fastskill4core7routingNtB5_18RoutingServiceImplNtB5_14RoutingService20find_relevant_skills
FNDA:0,_RNvMNtNtCs26lDL6qRPME_9fastskill4core7routingNtB2_18RoutingServiceImpl22score_skills_for_query
FNDA:0,_RNvMNtNtCs26lDL6qRPME_9fastskill4core7routingNtB2_18RoutingServiceImpl25calculate_relevance_score
FNDA:0,_RNvMNtNtCs26lDL6qRPME_9fastskill4core7routingNtB2_18RoutingServiceImpl3new
FNDA:0,_RNvXs3_NtNtCs26lDL6qRPME_9fastskill4core7routingNtB5_18RoutingServiceImplNtB5_14RoutingService20find_relevant_skills
FNDA:0,_RNCNCNvMNtNtCs26lDL6qRPME_9fastskill4core7routingNtB6_18RoutingServiceImpl22score_skills_for_query00Ba_
FNDA:0,_RNCNCNvXs3_NtNtCs26lDL6qRPME_9fastskill4core7routingNtB9_18RoutingServiceImplNtB9_14RoutingService20find_relevant_skills00Bd_
FNDA:0,_RNCNvMNtNtCs26lDL6qRPME_9fastskill4core7routingNtB4_18RoutingServiceImpl22score_skills_for_query0B8_
FNDA:0,_RNCNCNvMNtNtCsjhmHPBDWNUU_9fastskill4core7routingNtB6_18RoutingServiceImpl22score_skills_for_query00Ba_
FNDA:0,_RNCNCNvXs3_NtNtCsjhmHPBDWNUU_9fastskill4core7routingNtB9_18RoutingServiceImplNtB9_14RoutingService20find_relevant_skills00Bd_
FNDA:0,_RNCNvMNtNtCsjhmHPBDWNUU_9fastskill4core7routingNtB4_18RoutingServiceImpl22score_skills_for_query0B8_
FNDA:0,_RNvMNtNtCsjhmHPBDWNUU_9fastskill4core7routingNtB2_18RoutingServiceImpl22score_skills_for_query
FNDA:0,_RNvMNtNtCsjhmHPBDWNUU_9fastskill4core7routingNtB2_18RoutingServiceImpl25calculate_relevance_score
FNDA:0,_RNvMNtNtCsjhmHPBDWNUU_9fastskill4core7routingNtB2_18RoutingServiceImpl3new
FNDA:0,_RNvXs3_NtNtCsjhmHPBDWNUU_9fastskill4core7routingNtB5_18RoutingServiceImplNtB5_14RoutingService20find_relevant_skills
FNF:7
FNH:0
DA:41,0
DA:42,0
DA:43,0
DA:46,0
DA:47,0
DA:48,0
DA:49,0
DA:50,0
DA:51,0
DA:52,0
DA:54,0
DA:55,0
DA:56,0
DA:57,0
DA:61,0
DA:62,0
DA:63,0
DA:66,0
DA:67,0
DA:68,0
DA:69,0
DA:70,0
DA:71,0
DA:72,0
DA:73,0
DA:76,0
DA:77,0
DA:78,0
DA:79,0
DA:80,0
DA:83,0
DA:84,0
DA:85,0
DA:88,0
DA:89,0
DA:90,0
DA:91,0
DA:92,0
DA:93,0
DA:94,0
DA:96,0
DA:97,0
DA:106,0
DA:120,0
DA:121,0
DA:122,0
DA:126,0
BRF:0
BRH:0
LF:49
LH:0
end_of_record
SF:/home/sysuser/ws001/gofastskill/fastskill/src/core/service.rs
FN:495,_RNCNCNCNvMs9_NtNtCs26lDL6qRPME_9fastskill4core7serviceNtBb_16FastSkillService33auto_index_skills_from_filesystem000CsdkUwxvwXlNP_9cli_tests
FN:540,_RNCNCNvMs9_NtNtCs26lDL6qRPME_9fastskill4core7serviceNtB9_16FastSkillService25try_index_skill_from_file00CsdkUwxvwXlNP_9cli_tests
FN:553,_RNCNCNvMs9_NtNtCs26lDL6qRPME_9fastskill4core7serviceNtB9_16FastSkillService25try_index_skill_from_file0s0_0CsdkUwxvwXlNP_9cli_tests
FN:554,_RNCNCNvMs9_NtNtCs26lDL6qRPME_9fastskill4core7serviceNtB9_16FastSkillService25try_index_skill_from_file0s1_0CsdkUwxvwXlNP_9cli_tests
FN:563,_RNCNCNvMs9_NtNtCs26lDL6qRPME_9fastskill4core7serviceNtB9_16FastSkillService25try_index_skill_from_file0s2_0CsdkUwxvwXlNP_9cli_tests
FN:548,_RNCNCNvMs9_NtNtCs26lDL6qRPME_9fastskill4core7serviceNtB9_16FastSkillService25try_index_skill_from_file0s_0CsdkUwxvwXlNP_9cli_tests
FN:491,_RNCNCNvMs9_NtNtCs26lDL6qRPME_9fastskill4core7serviceNtB9_16FastSkillService33auto_index_skills_from_filesystem00CsdkUwxvwXlNP_9cli_tests
FN:504,_RNCNCNvMs9_NtNtCs26lDL6qRPME_9fastskill4core7serviceNtB9_16FastSkillService33auto_index_skills_from_filesystem0s_0CsdkUwxvwXlNP_9cli_tests
FN:394,_RNCNvMs9_NtNtCs26lDL6qRPME_9fastskill4core7serviceNtB7_16FastSkillService10initialize0CsdkUwxvwXlNP_9cli_tests
FN:536,_RNCNvMs9_NtNtCs26lDL6qRPME_9fastskill4core7serviceNtB7_16FastSkillService25try_index_skill_from_file0CsdkUwxvwXlNP_9cli_tests
FN:483,_RNCNvMs9_NtNtCs26lDL6qRPME_9fastskill4core7serviceNtB7_16FastSkillService33auto_index_skills_from_filesystem0CsdkUwxvwXlNP_9cli_tests
FN:320,_RNCNvMs9_NtNtCs26lDL6qRPME_9fastskill4core7serviceNtB7_16FastSkillService3new0CsdkUwxvwXlNP_9cli_tests
FN:231,_RINvXs8_NtNtCs26lDL6qRPME_9fastskill4core7serviceNtB6_7SkillIdNtNtCs8frBgt4z83Q_10serde_core2de11Deserialize11deserializepEBa_
FN:495,_RNCNCNCNvMs9_NtNtCs26lDL6qRPME_9fastskill4core7serviceNtBb_16FastSkillService33auto_index_skills_from_filesystem000Bf_
FN:540,_RNCNCNvMs9_NtNtCs26lDL6qRPME_9fastskill4core7serviceNtB9_16FastSkillService25try_index_skill_from_file00Bd_
FN:553,_RNCNCNvMs9_NtNtCs26lDL6qRPME_9fastskill4core7serviceNtB9_16FastSkillService25try_index_skill_from_file0s0_0Bd_
FN:554,_RNCNCNvMs9_NtNtCs26lDL6qRPME_9fastskill4core7serviceNtB9_16FastSkillService25try_index_skill_from_file0s1_0Bd_
FN:563,_RNCNCNvMs9_NtNtCs26lDL6qRPME_9fastskill4core7serviceNtB9_16FastSkillService25try_index_skill_from_file0s2_0Bd_
FN:548,_RNCNCNvMs9_NtNtCs26lDL6qRPME_9fastskill4core7serviceNtB9_16FastSkillService25try_index_skill_from_file0s_0Bd_
FN:491,_RNCNCNvMs9_NtNtCs26lDL6qRPME_9fastskill4core7serviceNtB9_16FastSkillService33auto_index_skills_from_filesystem00Bd_
FN:504,_RNCNCNvMs9_NtNtCs26lDL6qRPME_9fastskill4core7serviceNtB9_16FastSkillService33auto_index_skills_from_filesystem0s_0Bd_
FN:394,_RNCNvMs9_NtNtCs26lDL6qRPME_9fastskill4core7serviceNtB7_16FastSkillService10initialize0Bb_
FN:536,_RNCNvMs9_NtNtCs26lDL6qRPME_9fastskill4core7serviceNtB7_16FastSkillService25try_index_skill_from_file0Bb_
FN:483,_RNCNvMs9_NtNtCs26lDL6qRPME_9fastskill4core7serviceNtB7_16FastSkillService33auto_index_skills_from_filesystem0Bb_
FN:320,_RNCNvMs9_NtNtCs26lDL6qRPME_9fastskill4core7serviceNtB7_16FastSkillService3new0Bb_
FN:421,_RNCNvMs9_NtNtCs26lDL6qRPME_9fastskill4core7serviceNtB7_16FastSkillService8shutdown0Bb_
FN:204,_RNvXs4_NtNtCs26lDL6qRPME_9fastskill4core7serviceNtNtCs6oyAry3tzoT_5alloc6string6StringINtNtCsiJueO4bndGx_4core7convert4FromNtB5_7SkillIdE4from
FN:192,_RNvMs2_NtNtCs26lDL6qRPME_9fastskill4core7serviceNtB5_7SkillId11into_string
FN:159,_RNvMs2_NtNtCs26lDL6qRPME_9fastskill4core7serviceNtB5_7SkillId3new
FN:187,_RNvMs2_NtNtCs26lDL6qRPME_9fastskill4core7serviceNtB5_7SkillId6as_str
FN:394,_RNvMs9_NtNtCs26lDL6qRPME_9fastskill4core7serviceNtB5_16FastSkillService10initialize
FN:461,_RNvMs9_NtNtCs26lDL6qRPME_9fastskill4core7serviceNtB5_16FastSkillService12tool_service
FN:439,_RNvMs9_NtNtCs26lDL6qRPME_9fastskill4core7serviceNtB5_16FastSkillService13skill_manager
FN:478,_RNvMs9_NtNtCs26lDL6qRPME_9fastskill4core7serviceNtB5_16FastSkillService14is_initialized
FN:456,_RNvMs9_NtNtCs26lDL6qRPME_9fastskill4core7serviceNtB5_16FastSkillService15loading_service
FN:466,_RNvMs9_NtNtCs26lDL6qRPME_9fastskill4core7serviceNtB5_16FastSkillService15routing_service
FN:444,_RNvMs9_NtNtCs26lDL6qRPME_9fastskill4core7serviceNtB5_16FastSkillService16metadata_service
FN:449,_RNvMs9_NtNtCs26lDL6qRPME_9fastskill4core7serviceNtB5_16FastSkillService20vector_index_service
FN:533,_RNvMs9_NtNtCs26lDL6qRPME_9fastskill4core7serviceNtB5_16FastSkillService25try_index_skill_from_file
FN:483,_RNvMs9_NtNtCs26lDL6qRPME_9fastskill4core7serviceNtB5_16FastSkillService33auto_index_skills_from_filesystem
FN:320,_RNvMs9_NtNtCs26lDL6qRPME_9fastskill4core7serviceNtB5_16FastSkillService3new
FN:473,_RNvMs9_NtNtCs26lDL6qRPME_9fastskill4core7serviceNtB5_16FastSkillService6config
FN:421,_RNvMs9_NtNtCs26lDL6qRPME_9fastskill4core7serviceNtB5_16FastSkillService8shutdown
FN:47,_RNvXNtNtCs26lDL6qRPME_9fastskill4core7serviceNtB2_13ServiceConfigNtNtCsiJueO4bndGx_4core7default7Default7default
FN:104,_RNvXs0_NtNtCs26lDL6qRPME_9fastskill4core7serviceNtB5_11CacheConfigNtNtCsiJueO4bndGx_4core7default7Default7default
FN:143,_RNvXs1_NtNtCs26lDL6qRPME_9fastskill4core7serviceNtB5_14SecurityConfigNtNtCsiJueO4bndGx_4core7default7Default7default
FN:198,_RNvXs3_NtNtCs26lDL6qRPME_9fastskill4core7serviceNtB5_7SkillIdNtNtCsiJueO4bndGx_4core3fmt7Display3fmt
FN:210,_RNvXs5_NtNtCs26lDL6qRPME_9fastskill4core7serviceNtB5_7SkillIdINtNtCsiJueO4bndGx_4core7convert4FromNtNtCs6oyAry3tzoT_5alloc6string6StringE4from
FN:216,_RNvXs6_NtNtCs26lDL6qRPME_9fastskill4core7serviceNtB5_7SkillIdINtNtCsiJueO4bndGx_4core7convert5AsRefeE6as_ref
FN:80,_RNvXs_NtNtCs26lDL6qRPME_9fastskill4core7serviceNtB4_15HotReloadConfigNtNtCsiJueO4bndGx_4core7default7Default7default
FN:222,_RINvXs7_NtNtCs26lDL6qRPME_9fastskill4core7serviceNtB6_7SkillIdNtNtCs8frBgt4z83Q_10serde_core3ser9Serialize9serializeNtNtNtCseH6nbJrdgGl_10serde_json5value3ser10SerializerEBa_
FN:179,_RNCNvMs2_NtNtCs26lDL6qRPME_9fastskill4core7serviceNtB7_7SkillId3new0Bb_
FN:211,_RNCNvXs5_NtNtCs26lDL6qRPME_9fastskill4core7serviceNtB7_7SkillIdINtNtCsiJueO4bndGx_4core7convert4FromNtNtCs6oyAry3tzoT_5alloc6string6StringE4from0Bb_
FN:495,_RNCNCNCNvMs9_NtNtCs26lDL6qRPME_9fastskill4core7serviceNtBb_16FastSkillService33auto_index_skills_from_filesystem000CsfVElPQFRzD4_9fastskill
FN:540,_RNCNCNvMs9_NtNtCs26lDL6qRPME_9fastskill4core7serviceNtB9_16FastSkillService25try_index_skill_from_file00CsfVElPQFRzD4_9fastskill
FN:553,_RNCNCNvMs9_NtNtCs26lDL6qRPME_9fastskill4core7serviceNtB9_16FastSkillService25try_index_skill_from_file0s0_0CsfVElPQFRzD4_9fastskill
FN:554,_RNCNCNvMs9_NtNtCs26lDL6qRPME_9fastskill4core7serviceNtB9_16FastSkillService25try_index_skill_from_file0s1_0CsfVElPQFRzD4_9fastskill
FN:563,_RNCNCNvMs9_NtNtCs26lDL6qRPME_9fastskill4core7serviceNtB9_16FastSkillService25try_index_skill_from_file0s2_0CsfVElPQFRzD4_9fastskill
FN:548,_RNCNCNvMs9_NtNtCs26lDL6qRPME_9fastskill4core7serviceNtB9_16FastSkillService25try_index_skill_from_file0s_0CsfVElPQFRzD4_9fastskill
FN:491,_RNCNCNvMs9_NtNtCs26lDL6qRPME_9fastskill4core7serviceNtB9_16FastSkillService33auto_index_skills_from_filesystem00CsfVElPQFRzD4_9fastskill
FN:504,_RNCNCNvMs9_NtNtCs26lDL6qRPME_9fastskill4core7serviceNtB9_16FastSkillService33auto_index_skills_from_filesystem0s_0CsfVElPQFRzD4_9fastskill
FN:394,_RNCNvMs9_NtNtCs26lDL6qRPME_9fastskill4core7serviceNtB7_16FastSkillService10initialize0CsfVElPQFRzD4_9fastskill
FN:536,_RNCNvMs9_NtNtCs26lDL6qRPME_9fastskill4core7serviceNtB7_16FastSkillService25try_index_skill_from_file0CsfVElPQFRzD4_9fastskill
FN:483,_RNCNvMs9_NtNtCs26lDL6qRPME_9fastskill4core7serviceNtB7_16FastSkillService33auto_index_skills_from_filesystem0CsfVElPQFRzD4_9fastskill
FN:320,_RNCNvMs9_NtNtCs26lDL6qRPME_9fastskill4core7serviceNtB7_16FastSkillService3new0CsfVElPQFRzD4_9fastskill
FN:231,_RINvXs8_NtNtCsjhmHPBDWNUU_9fastskill4core7serviceNtB6_7SkillIdNtNtCs8frBgt4z83Q_10serde_core2de11Deserialize11deserializepEBa_
FN:192,_RNvMs2_NtNtCsjhmHPBDWNUU_9fastskill4core7serviceNtB5_7SkillId11into_string
FN:187,_RNvMs2_NtNtCsjhmHPBDWNUU_9fastskill4core7serviceNtB5_7SkillId6as_str
FN:461,_RNvMs9_NtNtCsjhmHPBDWNUU_9fastskill4core7serviceNtB5_16FastSkillService12tool_service
FN:456,_RNvMs9_NtNtCsjhmHPBDWNUU_9fastskill4core7serviceNtB5_16FastSkillService15loading_service
FN:466,_RNvMs9_NtNtCsjhmHPBDWNUU_9fastskill4core7serviceNtB5_16FastSkillService15routing_service
FN:444,_RNvMs9_NtNtCsjhmHPBDWNUU_9fastskill4core7serviceNtB5_16FastSkillService16metadata_service
FN:449,_RNvMs9_NtNtCsjhmHPBDWNUU_9fastskill4core7serviceNtB5_16FastSkillService20vector_index_service
FN:204,_RNvXs4_NtNtCsjhmHPBDWNUU_9fastskill4core7serviceNtNtCs6oyAry3tzoT_5alloc6string6StringINtNtCsiJueO4bndGx_4core7convert4FromNtB5_7SkillIdE4from
FN:216,_RNvXs6_NtNtCsjhmHPBDWNUU_9fastskill4core7serviceNtB5_7SkillIdINtNtCsiJueO4bndGx_4core7convert5AsRefeE6as_ref
FN:595,_RNCNvNtNtNtCsjhmHPBDWNUU_9fastskill4core7service5testss_21test_service_creation0B9_
FN:610,_RNCNvNtNtNtCsjhmHPBDWNUU_9fastskill4core7service5testss_21test_service_shutdown0B9_
FN:159,_RNvMs2_NtNtCsjhmHPBDWNUU_9fastskill4core7serviceNtB5_7SkillId3new
FN:394,_RNvMs9_NtNtCsjhmHPBDWNUU_9fastskill4core7serviceNtB5_16FastSkillService10initialize
FN:439,_RNvMs9_NtNtCsjhmHPBDWNUU_9fastskill4core7serviceNtB5_16FastSkillService13skill_manager
FN:478,_RNvMs9_NtNtCsjhmHPBDWNUU_9fastskill4core7serviceNtB5_16FastSkillService14is_initialized
FN:533,_RNvMs9_NtNtCsjhmHPBDWNUU_9fastskill4core7serviceNtB5_16FastSkillService25try_index_skill_from_file
FN:483,_RNvMs9_NtNtCsjhmHPBDWNUU_9fastskill4core7serviceNtB5_16FastSkillService33auto_index_skills_from_filesystem
FN:320,_RNvMs9_NtNtCsjhmHPBDWNUU_9fastskill4core7serviceNtB5_16FastSkillService3new
FN:473,_RNvMs9_NtNtCsjhmHPBDWNUU_9fastskill4core7serviceNtB5_16FastSkillService6config
FN:421,_RNvMs9_NtNtCsjhmHPBDWNUU_9fastskill4core7serviceNtB5_16FastSkillService8shutdown
FN:47,_RNvXNtNtCsjhmHPBDWNUU_9fastskill4core7serviceNtB2_13ServiceConfigNtNtCsiJueO4bndGx_4core7default7Default7default
FN:104,_RNvXs0_NtNtCsjhmHPBDWNUU_9fastskill4core7serviceNtB5_11CacheConfigNtNtCsiJueO4bndGx_4core7default7Default7default
FN:143,_RNvXs1_NtNtCsjhmHPBDWNUU_9fastskill4core7serviceNtB5_14SecurityConfigNtNtCsiJueO4bndGx_4core7default7Default7default
FN:198,_RNvXs3_NtNtCsjhmHPBDWNUU_9fastskill4core7serviceNtB5_7SkillIdNtNtCsiJueO4bndGx_4core3fmt7Display3fmt
FN:210,_RNvXs5_NtNtCsjhmHPBDWNUU_9fastskill4core7serviceNtB5_7SkillIdINtNtCsiJueO4bndGx_4core7convert4FromNtNtCs6oyAry3tzoT_5alloc6string6StringE4from
FN:80,_RNvXs_NtNtCsjhmHPBDWNUU_9fastskill4core7serviceNtB4_15HotReloadConfigNtNtCsiJueO4bndGx_4core7default7Default7default
FN:595,_RNvNtNtNtCsjhmHPBDWNUU_9fastskill4core7service5testss_21test_service_creation
FN:610,_RNvNtNtNtCsjhmHPBDWNUU_9fastskill4core7service5testss_21test_service_shutdown
FN:222,_RINvXs7_NtNtCsjhmHPBDWNUU_9fastskill4core7serviceNtB6_7SkillIdNtNtCs8frBgt4z83Q_10serde_core3ser9Serialize9serializeNtNtNtCseH6nbJrdgGl_10serde_json5value3ser10SerializerEBa_
FN:495,_RNCNCNCNvMs9_NtNtCsjhmHPBDWNUU_9fastskill4core7serviceNtBb_16FastSkillService33auto_index_skills_from_filesystem000Bf_
FN:540,_RNCNCNvMs9_NtNtCsjhmHPBDWNUU_9fastskill4core7serviceNtB9_16FastSkillService25try_index_skill_from_file00Bd_
FN:553,_RNCNCNvMs9_NtNtCsjhmHPBDWNUU_9fastskill4core7serviceNtB9_16FastSkillService25try_index_skill_from_file0s0_0Bd_
FN:554,_RNCNCNvMs9_NtNtCsjhmHPBDWNUU_9fastskill4core7serviceNtB9_16FastSkillService25try_index_skill_from_file0s1_0Bd_
FN:563,_RNCNCNvMs9_NtNtCsjhmHPBDWNUU_9fastskill4core7serviceNtB9_16FastSkillService25try_index_skill_from_file0s2_0Bd_
FN:548,_RNCNCNvMs9_NtNtCsjhmHPBDWNUU_9fastskill4core7serviceNtB9_16FastSkillService25try_index_skill_from_file0s_0Bd_
FN:491,_RNCNCNvMs9_NtNtCsjhmHPBDWNUU_9fastskill4core7serviceNtB9_16FastSkillService33auto_index_skills_from_filesystem00Bd_
FN:504,_RNCNCNvMs9_NtNtCsjhmHPBDWNUU_9fastskill4core7serviceNtB9_16FastSkillService33auto_index_skills_from_filesystem0s_0Bd_
FN:179,_RNCNvMs2_NtNtCsjhmHPBDWNUU_9fastskill4core7serviceNtB7_7SkillId3new0Bb_
